

Microchip MPLAB XC8 Assembler V2.10 build 88905656 
                                                                                               Thu Mar 05 15:59:35 2020

Microchip MPLAB XC8 C Compiler v2.10 (Free license) build 20190730164152 Og1 
     1                           	processor	16F887
     2                           	opt	pw 120
     3                           	opt	flic
     4                           	psect	strings,global,class=STRING,delta=2
     5                           	psect	cinit,global,class=CODE,merge=1,delta=2
     6                           	psect	bssCOMMON,global,class=COMMON,space=1,delta=1
     7                           	psect	cstackCOMMON,global,class=COMMON,space=1,delta=1
     8                           	psect	cstackBANK0,global,class=BANK0,space=1,delta=1
     9                           	psect	maintext,global,class=CODE,split=1,delta=2
    10                           	psect	text1,local,class=CODE,merge=1,delta=2
    11                           	psect	text2,local,class=CODE,merge=1,delta=2
    12                           	psect	text3,local,class=CODE,merge=1,delta=2
    13                           	psect	text4,local,class=CODE,merge=1,delta=2
    14                           	psect	text5,local,class=CODE,merge=1,delta=2
    15                           	psect	text6,local,class=CODE,merge=1,delta=2
    16                           	psect	text7,local,class=CODE,merge=1,delta=2
    17                           	psect	text8,local,class=CODE,merge=1,delta=2
    18                           	psect	text9,local,class=CODE,merge=1,delta=2
    19                           	psect	text10,local,class=CODE,merge=1,delta=2
    20                           	psect	text11,local,class=CODE,merge=1,delta=2
    21                           	psect	text12,local,class=CODE,merge=1,delta=2
    22                           	psect	text13,local,class=CODE,merge=1,delta=2,group=1
    23                           	psect	text14,local,class=CODE,merge=1,delta=2,group=1
    24                           	psect	text15,local,class=CODE,merge=1,delta=2,group=1
    25                           	psect	text16,local,class=CODE,merge=1,delta=2,group=1
    26                           	psect	text17,local,class=CODE,merge=1,delta=2,group=1
    27                           	psect	text18,local,class=CODE,merge=1,delta=2
    28                           	psect	intentry,global,class=CODE,delta=2
    29                           	dabs	1,0x7E,2
    30  0000                     
    31                           ; Version 2.10
    32                           ; Generated 31/07/2019 GMT
    33                           ; 
    34                           ; Copyright © 2019, Microchip Technology Inc. and its subsidiaries ("Microchip")
    35                           ; All rights reserved.
    36                           ; 
    37                           ; This software is developed by Microchip Technology Inc. and its subsidiaries ("Microch
      +                          ip").
    38                           ; 
    39                           ; Redistribution and use in source and binary forms, with or without modification, are
    40                           ; permitted provided that the following conditions are met:
    41                           ; 
    42                           ;     1. Redistributions of source code must retain the above copyright notice, this lis
      +                          t of
    43                           ;        conditions and the following disclaimer.
    44                           ; 
    45                           ;     2. Redistributions in binary form must reproduce the above copyright notice, this 
      +                          list
    46                           ;        of conditions and the following disclaimer in the documentation and/or other
    47                           ;        materials provided with the distribution.
    48                           ; 
    49                           ;     3. Microchip's name may not be used to endorse or promote products derived from th
      +                          is
    50                           ;        software without specific prior written permission.
    51                           ; 
    52                           ; THIS SOFTWARE IS PROVIDED BY MICROCHIP "AS IS" AND ANY EXPRESS OR IMPLIED WARRANTIES,
    53                           ; INCLUDING, BUT NOT LIMITED TO, THE IMPLIED WARRANTIES OF MERCHANTABILITY AND FITNESS F
      +                          OR
    54                           ; PURPOSE ARE DISCLAIMED.  IN NO EVENT SHALL MICROCHIP BE LIABLE FOR ANY DIRECT, INDIREC
      +                          T,
    55                           ; INCIDENTAL, SPECIAL, EXEMPLARY, OR CONSEQUENTIAL DAMAGES (INCLUDING BUT NOT LIMITED TO
    56                           ; PROCUREMENT OF SUBSTITUTE GOODS OR SERVICES; LOSS OF USE, DATA OR PROFITS; OR BUSINESS
    57                           ; INTERRUPTION) HOWSOEVER CAUSED AND ON ANY THEORY OF LIABILITY, WHETHER IN CONTRACT, ST
      +                          RICT
    58                           ; LIABILITY, OR TORT (INCLUDING NEGLIGENCE OR OTHERWISE) ARISING IN ANY WAY OUT OF THE U
      +                          SE OF
    59                           ; THIS SOFTWARE, EVEN IF ADVISED OF THE POSSIBILITY OF SUCH DAMAGE.
    60                           ; 
    61                           ; 
    62                           ; Code-generator required, PIC16F887 Definitions
    63                           ; 
    64                           ; SFR Addresses
    65  0000                     	;# 
    66  0001                     	;# 
    67  0002                     	;# 
    68  0003                     	;# 
    69  0004                     	;# 
    70  0005                     	;# 
    71  0006                     	;# 
    72  0007                     	;# 
    73  0008                     	;# 
    74  0009                     	;# 
    75  000A                     	;# 
    76  000B                     	;# 
    77  000C                     	;# 
    78  000D                     	;# 
    79  000E                     	;# 
    80  000E                     	;# 
    81  000F                     	;# 
    82  0010                     	;# 
    83  0011                     	;# 
    84  0012                     	;# 
    85  0013                     	;# 
    86  0014                     	;# 
    87  0015                     	;# 
    88  0015                     	;# 
    89  0016                     	;# 
    90  0017                     	;# 
    91  0018                     	;# 
    92  0019                     	;# 
    93  001A                     	;# 
    94  001B                     	;# 
    95  001B                     	;# 
    96  001C                     	;# 
    97  001D                     	;# 
    98  001E                     	;# 
    99  001F                     	;# 
   100  0081                     	;# 
   101  0085                     	;# 
   102  0086                     	;# 
   103  0087                     	;# 
   104  0088                     	;# 
   105  0089                     	;# 
   106  008C                     	;# 
   107  008D                     	;# 
   108  008E                     	;# 
   109  008F                     	;# 
   110  0090                     	;# 
   111  0091                     	;# 
   112  0092                     	;# 
   113  0093                     	;# 
   114  0093                     	;# 
   115  0093                     	;# 
   116  0094                     	;# 
   117  0095                     	;# 
   118  0096                     	;# 
   119  0097                     	;# 
   120  0098                     	;# 
   121  0099                     	;# 
   122  009A                     	;# 
   123  009B                     	;# 
   124  009C                     	;# 
   125  009D                     	;# 
   126  009E                     	;# 
   127  009F                     	;# 
   128  0105                     	;# 
   129  0107                     	;# 
   130  0108                     	;# 
   131  0109                     	;# 
   132  010C                     	;# 
   133  010C                     	;# 
   134  010D                     	;# 
   135  010E                     	;# 
   136  010F                     	;# 
   137  0185                     	;# 
   138  0187                     	;# 
   139  0188                     	;# 
   140  0189                     	;# 
   141  018C                     	;# 
   142  018D                     	;# 
   143  0000                     	;# 
   144  0001                     	;# 
   145  0002                     	;# 
   146  0003                     	;# 
   147  0004                     	;# 
   148  0005                     	;# 
   149  0006                     	;# 
   150  0007                     	;# 
   151  0008                     	;# 
   152  0009                     	;# 
   153  000A                     	;# 
   154  000B                     	;# 
   155  000C                     	;# 
   156  000D                     	;# 
   157  000E                     	;# 
   158  000E                     	;# 
   159  000F                     	;# 
   160  0010                     	;# 
   161  0011                     	;# 
   162  0012                     	;# 
   163  0013                     	;# 
   164  0014                     	;# 
   165  0015                     	;# 
   166  0015                     	;# 
   167  0016                     	;# 
   168  0017                     	;# 
   169  0018                     	;# 
   170  0019                     	;# 
   171  001A                     	;# 
   172  001B                     	;# 
   173  001B                     	;# 
   174  001C                     	;# 
   175  001D                     	;# 
   176  001E                     	;# 
   177  001F                     	;# 
   178  0081                     	;# 
   179  0085                     	;# 
   180  0086                     	;# 
   181  0087                     	;# 
   182  0088                     	;# 
   183  0089                     	;# 
   184  008C                     	;# 
   185  008D                     	;# 
   186  008E                     	;# 
   187  008F                     	;# 
   188  0090                     	;# 
   189  0091                     	;# 
   190  0092                     	;# 
   191  0093                     	;# 
   192  0093                     	;# 
   193  0093                     	;# 
   194  0094                     	;# 
   195  0095                     	;# 
   196  0096                     	;# 
   197  0097                     	;# 
   198  0098                     	;# 
   199  0099                     	;# 
   200  009A                     	;# 
   201  009B                     	;# 
   202  009C                     	;# 
   203  009D                     	;# 
   204  009E                     	;# 
   205  009F                     	;# 
   206  0105                     	;# 
   207  0107                     	;# 
   208  0108                     	;# 
   209  0109                     	;# 
   210  010C                     	;# 
   211  010C                     	;# 
   212  010D                     	;# 
   213  010E                     	;# 
   214  010F                     	;# 
   215  0185                     	;# 
   216  0187                     	;# 
   217  0188                     	;# 
   218  0189                     	;# 
   219  018C                     	;# 
   220  018D                     	;# 
   221  0000                     	;# 
   222  0001                     	;# 
   223  0002                     	;# 
   224  0003                     	;# 
   225  0004                     	;# 
   226  0005                     	;# 
   227  0006                     	;# 
   228  0007                     	;# 
   229  0008                     	;# 
   230  0009                     	;# 
   231  000A                     	;# 
   232  000B                     	;# 
   233  000C                     	;# 
   234  000D                     	;# 
   235  000E                     	;# 
   236  000E                     	;# 
   237  000F                     	;# 
   238  0010                     	;# 
   239  0011                     	;# 
   240  0012                     	;# 
   241  0013                     	;# 
   242  0014                     	;# 
   243  0015                     	;# 
   244  0015                     	;# 
   245  0016                     	;# 
   246  0017                     	;# 
   247  0018                     	;# 
   248  0019                     	;# 
   249  001A                     	;# 
   250  001B                     	;# 
   251  001B                     	;# 
   252  001C                     	;# 
   253  001D                     	;# 
   254  001E                     	;# 
   255  001F                     	;# 
   256  0081                     	;# 
   257  0085                     	;# 
   258  0086                     	;# 
   259  0087                     	;# 
   260  0088                     	;# 
   261  0089                     	;# 
   262  008C                     	;# 
   263  008D                     	;# 
   264  008E                     	;# 
   265  008F                     	;# 
   266  0090                     	;# 
   267  0091                     	;# 
   268  0092                     	;# 
   269  0093                     	;# 
   270  0093                     	;# 
   271  0093                     	;# 
   272  0094                     	;# 
   273  0095                     	;# 
   274  0096                     	;# 
   275  0097                     	;# 
   276  0098                     	;# 
   277  0099                     	;# 
   278  009A                     	;# 
   279  009B                     	;# 
   280  009C                     	;# 
   281  009D                     	;# 
   282  009E                     	;# 
   283  009F                     	;# 
   284  0105                     	;# 
   285  0107                     	;# 
   286  0108                     	;# 
   287  0109                     	;# 
   288  010C                     	;# 
   289  010C                     	;# 
   290  010D                     	;# 
   291  010E                     	;# 
   292  010F                     	;# 
   293  0185                     	;# 
   294  0187                     	;# 
   295  0188                     	;# 
   296  0189                     	;# 
   297  018C                     	;# 
   298  018D                     	;# 
   299  0000                     	;# 
   300  0001                     	;# 
   301  0002                     	;# 
   302  0003                     	;# 
   303  0004                     	;# 
   304  0005                     	;# 
   305  0006                     	;# 
   306  0007                     	;# 
   307  0008                     	;# 
   308  0009                     	;# 
   309  000A                     	;# 
   310  000B                     	;# 
   311  000C                     	;# 
   312  000D                     	;# 
   313  000E                     	;# 
   314  000E                     	;# 
   315  000F                     	;# 
   316  0010                     	;# 
   317  0011                     	;# 
   318  0012                     	;# 
   319  0013                     	;# 
   320  0014                     	;# 
   321  0015                     	;# 
   322  0015                     	;# 
   323  0016                     	;# 
   324  0017                     	;# 
   325  0018                     	;# 
   326  0019                     	;# 
   327  001A                     	;# 
   328  001B                     	;# 
   329  001B                     	;# 
   330  001C                     	;# 
   331  001D                     	;# 
   332  001E                     	;# 
   333  001F                     	;# 
   334  0081                     	;# 
   335  0085                     	;# 
   336  0086                     	;# 
   337  0087                     	;# 
   338  0088                     	;# 
   339  0089                     	;# 
   340  008C                     	;# 
   341  008D                     	;# 
   342  008E                     	;# 
   343  008F                     	;# 
   344  0090                     	;# 
   345  0091                     	;# 
   346  0092                     	;# 
   347  0093                     	;# 
   348  0093                     	;# 
   349  0093                     	;# 
   350  0094                     	;# 
   351  0095                     	;# 
   352  0096                     	;# 
   353  0097                     	;# 
   354  0098                     	;# 
   355  0099                     	;# 
   356  009A                     	;# 
   357  009B                     	;# 
   358  009C                     	;# 
   359  009D                     	;# 
   360  009E                     	;# 
   361  009F                     	;# 
   362  0105                     	;# 
   363  0107                     	;# 
   364  0108                     	;# 
   365  0109                     	;# 
   366  010C                     	;# 
   367  010C                     	;# 
   368  010D                     	;# 
   369  010E                     	;# 
   370  010F                     	;# 
   371  0185                     	;# 
   372  0187                     	;# 
   373  0188                     	;# 
   374  0189                     	;# 
   375  018C                     	;# 
   376  018D                     	;# 
   377  0000                     	;# 
   378  0001                     	;# 
   379  0002                     	;# 
   380  0003                     	;# 
   381  0004                     	;# 
   382  0005                     	;# 
   383  0006                     	;# 
   384  0007                     	;# 
   385  0008                     	;# 
   386  0009                     	;# 
   387  000A                     	;# 
   388  000B                     	;# 
   389  000C                     	;# 
   390  000D                     	;# 
   391  000E                     	;# 
   392  000E                     	;# 
   393  000F                     	;# 
   394  0010                     	;# 
   395  0011                     	;# 
   396  0012                     	;# 
   397  0013                     	;# 
   398  0014                     	;# 
   399  0015                     	;# 
   400  0015                     	;# 
   401  0016                     	;# 
   402  0017                     	;# 
   403  0018                     	;# 
   404  0019                     	;# 
   405  001A                     	;# 
   406  001B                     	;# 
   407  001B                     	;# 
   408  001C                     	;# 
   409  001D                     	;# 
   410  001E                     	;# 
   411  001F                     	;# 
   412  0081                     	;# 
   413  0085                     	;# 
   414  0086                     	;# 
   415  0087                     	;# 
   416  0088                     	;# 
   417  0089                     	;# 
   418  008C                     	;# 
   419  008D                     	;# 
   420  008E                     	;# 
   421  008F                     	;# 
   422  0090                     	;# 
   423  0091                     	;# 
   424  0092                     	;# 
   425  0093                     	;# 
   426  0093                     	;# 
   427  0093                     	;# 
   428  0094                     	;# 
   429  0095                     	;# 
   430  0096                     	;# 
   431  0097                     	;# 
   432  0098                     	;# 
   433  0099                     	;# 
   434  009A                     	;# 
   435  009B                     	;# 
   436  009C                     	;# 
   437  009D                     	;# 
   438  009E                     	;# 
   439  009F                     	;# 
   440  0105                     	;# 
   441  0107                     	;# 
   442  0108                     	;# 
   443  0109                     	;# 
   444  010C                     	;# 
   445  010C                     	;# 
   446  010D                     	;# 
   447  010E                     	;# 
   448  010F                     	;# 
   449  0185                     	;# 
   450  0187                     	;# 
   451  0188                     	;# 
   452  0189                     	;# 
   453  018C                     	;# 
   454  018D                     	;# 
   455  0000                     	;# 
   456  0001                     	;# 
   457  0002                     	;# 
   458  0003                     	;# 
   459  0004                     	;# 
   460  0005                     	;# 
   461  0006                     	;# 
   462  0007                     	;# 
   463  0008                     	;# 
   464  0009                     	;# 
   465  000A                     	;# 
   466  000B                     	;# 
   467  000C                     	;# 
   468  000D                     	;# 
   469  000E                     	;# 
   470  000E                     	;# 
   471  000F                     	;# 
   472  0010                     	;# 
   473  0011                     	;# 
   474  0012                     	;# 
   475  0013                     	;# 
   476  0014                     	;# 
   477  0015                     	;# 
   478  0015                     	;# 
   479  0016                     	;# 
   480  0017                     	;# 
   481  0018                     	;# 
   482  0019                     	;# 
   483  001A                     	;# 
   484  001B                     	;# 
   485  001B                     	;# 
   486  001C                     	;# 
   487  001D                     	;# 
   488  001E                     	;# 
   489  001F                     	;# 
   490  0081                     	;# 
   491  0085                     	;# 
   492  0086                     	;# 
   493  0087                     	;# 
   494  0088                     	;# 
   495  0089                     	;# 
   496  008C                     	;# 
   497  008D                     	;# 
   498  008E                     	;# 
   499  008F                     	;# 
   500  0090                     	;# 
   501  0091                     	;# 
   502  0092                     	;# 
   503  0093                     	;# 
   504  0093                     	;# 
   505  0093                     	;# 
   506  0094                     	;# 
   507  0095                     	;# 
   508  0096                     	;# 
   509  0097                     	;# 
   510  0098                     	;# 
   511  0099                     	;# 
   512  009A                     	;# 
   513  009B                     	;# 
   514  009C                     	;# 
   515  009D                     	;# 
   516  009E                     	;# 
   517  009F                     	;# 
   518  0105                     	;# 
   519  0107                     	;# 
   520  0108                     	;# 
   521  0109                     	;# 
   522  010C                     	;# 
   523  010C                     	;# 
   524  010D                     	;# 
   525  010E                     	;# 
   526  010F                     	;# 
   527  0185                     	;# 
   528  0187                     	;# 
   529  0188                     	;# 
   530  0189                     	;# 
   531  018C                     	;# 
   532  018D                     	;# 
   533  0000                     	;# 
   534  0001                     	;# 
   535  0002                     	;# 
   536  0003                     	;# 
   537  0004                     	;# 
   538  0005                     	;# 
   539  0006                     	;# 
   540  0007                     	;# 
   541  0008                     	;# 
   542  0009                     	;# 
   543  000A                     	;# 
   544  000B                     	;# 
   545  000C                     	;# 
   546  000D                     	;# 
   547  000E                     	;# 
   548  000E                     	;# 
   549  000F                     	;# 
   550  0010                     	;# 
   551  0011                     	;# 
   552  0012                     	;# 
   553  0013                     	;# 
   554  0014                     	;# 
   555  0015                     	;# 
   556  0015                     	;# 
   557  0016                     	;# 
   558  0017                     	;# 
   559  0018                     	;# 
   560  0019                     	;# 
   561  001A                     	;# 
   562  001B                     	;# 
   563  001B                     	;# 
   564  001C                     	;# 
   565  001D                     	;# 
   566  001E                     	;# 
   567  001F                     	;# 
   568  0081                     	;# 
   569  0085                     	;# 
   570  0086                     	;# 
   571  0087                     	;# 
   572  0088                     	;# 
   573  0089                     	;# 
   574  008C                     	;# 
   575  008D                     	;# 
   576  008E                     	;# 
   577  008F                     	;# 
   578  0090                     	;# 
   579  0091                     	;# 
   580  0092                     	;# 
   581  0093                     	;# 
   582  0093                     	;# 
   583  0093                     	;# 
   584  0094                     	;# 
   585  0095                     	;# 
   586  0096                     	;# 
   587  0097                     	;# 
   588  0098                     	;# 
   589  0099                     	;# 
   590  009A                     	;# 
   591  009B                     	;# 
   592  009C                     	;# 
   593  009D                     	;# 
   594  009E                     	;# 
   595  009F                     	;# 
   596  0105                     	;# 
   597  0107                     	;# 
   598  0108                     	;# 
   599  0109                     	;# 
   600  010C                     	;# 
   601  010C                     	;# 
   602  010D                     	;# 
   603  010E                     	;# 
   604  010F                     	;# 
   605  0185                     	;# 
   606  0187                     	;# 
   607  0188                     	;# 
   608  0189                     	;# 
   609  018C                     	;# 
   610  018D                     	;# 
   611  0009                     _PORTEbits	set	9
   612  0010                     _T1CONbits	set	16
   613  001A                     _RCREG	set	26
   614  0019                     _TXREG	set	25
   615  0018                     _RCSTAbits	set	24
   616  000C                     _PIR1bits	set	12
   617  001F                     _ADCON0bits	set	31
   618  0005                     _PORTA	set	5
   619  0006                     _PORTBbits	set	6
   620  000E                     _TMR1L	set	14
   621  000F                     _TMR1H	set	15
   622  0080                     _TMR1ON	set	128
   623  0099                     _SPBRG	set	153
   624  0098                     _TXSTAbits	set	152
   625  0087                     _TRISCbits	set	135
   626  008F                     _OSCCONbits	set	143
   627  008C                     _PIE1bits	set	140
   628  009F                     _ADCON1bits	set	159
   629  0089                     _TRISE	set	137
   630  0085                     _TRISA	set	133
   631  0086                     _TRISBbits	set	134
   632  0187                     _BAUDCTLbits	set	391
   633  0189                     _ANSELH	set	393
   634  0188                     _ANSEL	set	392
   635                           
   636                           	psect	strings
   637  06C6                     __pstrings:	
   638  06C6                     stringtab:	
   639  06C6                     __stringtab:	
   640  06C6                     stringcode:	
   641                           ;	String table - string pointers are 1 byte each
   642                           
   643  06C6                     stringdir:	
   644  06C6  3006               	movlw	high stringdir
   645  06C7  008A               	movwf	10
   646  06C8  0804               	movf	4,w
   647  06C9  0A84               	incf	4,f
   648  06CA  0782               	addwf	2,f
   649  06CB                     __stringbase:	
   650  06CB  3400               	retlw	0
   651  06CC                     __end_of__stringtab:	
   652  06CC                     STR_1:	
   653  06CC  3464               	retlw	100	;'d'
   654  06CD  343A               	retlw	58	;':'
   655  06CE  3400               	retlw	0
   656  06CF                     STR_2:	
   657  06CF  3463               	retlw	99	;'c'
   658  06D0  346D               	retlw	109	;'m'
   659  06D1  3400               	retlw	0
   660                           
   661                           ; #config settings
   662  0000                     
   663                           	psect	cinit
   664  000F                     start_initialization:	
   665  000F                     __initialization:	
   666                           
   667                           ; Clear objects allocated to COMMON
   668  000F  01FA               	clrf	__pbssCOMMON& (0+127)
   669  0010  01FB               	clrf	(__pbssCOMMON+1)& (0+127)
   670  0011                     end_of_initialization:	
   671                           ;End of C runtime variable initialization code
   672                           
   673  0011                     __end_of__initialization:	
   674  0011  0183               	clrf	3
   675  0012  120A  118A  29F2   	ljmp	_main	;jump to C main() function
   676                           
   677                           	psect	bssCOMMON
   678  007A                     __pbssCOMMON:	
   679  007A                     _distancia:	
   680  007A                     	ds	2
   681                           
   682                           	psect	cstackCOMMON
   683  0070                     __pcstackCOMMON:	
   684  0070                     ?_setup:	
   685  0070                     ?_oscInit:	
   686                           ; 1 bytes @ 0x0
   687                           
   688  0070                     ?_lcd8_init:	
   689                           ; 1 bytes @ 0x0
   690                           
   691  0070                     ?_tmr1_Init:	
   692                           ; 1 bytes @ 0x0
   693                           
   694  0070                     ?_tmr1_Prescaler:	
   695                           ; 1 bytes @ 0x0
   696                           
   697  0070                     ?_tmr1_Interrupt:	
   698                           ; 1 bytes @ 0x0
   699                           
   700  0070                     ?_delay_1ms:	
   701                           ; 1 bytes @ 0x0
   702                           
   703  0070                     ?_lcd8_dispString:	
   704                           ; 1 bytes @ 0x0
   705                           
   706  0070                     ?_lcd8_dispChar:	
   707                           ; 1 bytes @ 0x0
   708                           
   709  0070                     ?_lcd8_cmd:	
   710                           ; 1 bytes @ 0x0
   711                           
   712  0070                     ?_ISR:	
   713                           ; 1 bytes @ 0x0
   714                           
   715  0070                     ??_ISR:	
   716                           ; 1 bytes @ 0x0
   717                           
   718  0070                     ?_main:	
   719                           ; 1 bytes @ 0x0
   720                           
   721                           
   722                           ; 1 bytes @ 0x0
   723  0070                     	ds	2
   724  0072                     ??_setup:	
   725  0072                     ??_oscInit:	
   726                           ; 1 bytes @ 0x2
   727                           
   728  0072                     ??_tmr1_Init:	
   729                           ; 1 bytes @ 0x2
   730                           
   731  0072                     ??_tmr1_Prescaler:	
   732                           ; 1 bytes @ 0x2
   733                           
   734  0072                     ??_tmr1_Interrupt:	
   735                           ; 1 bytes @ 0x2
   736                           
   737  0072                     ??_delay_1ms:	
   738                           ; 1 bytes @ 0x2
   739                           
   740  0072                     ?___awdiv:	
   741                           ; 1 bytes @ 0x2
   742                           
   743  0072                     ?___awmod:	
   744                           ; 2 bytes @ 0x2
   745                           
   746  0072                     ?___xxtofl:	
   747                           ; 2 bytes @ 0x2
   748                           
   749  0072                     tmr1_Interrupt@tmr1_Int:	
   750                           ; 4 bytes @ 0x2
   751                           
   752  0072                     delay_1ms@i:	
   753                           ; 1 bytes @ 0x2
   754                           
   755  0072                     ___awdiv@divisor:	
   756                           ; 2 bytes @ 0x2
   757                           
   758  0072                     ___awmod@divisor:	
   759                           ; 2 bytes @ 0x2
   760                           
   761  0072                     ___xxtofl@val:	
   762                           ; 2 bytes @ 0x2
   763                           
   764                           
   765                           ; 4 bytes @ 0x2
   766  0072                     	ds	2
   767  0074                     ??_lcd8_cmd:	
   768  0074                     ?_lcd8_write:	
   769                           ; 1 bytes @ 0x4
   770                           
   771  0074                     oscInit@freq:	
   772                           ; 1 bytes @ 0x4
   773                           
   774  0074                     tmr1_Prescaler@prescaler:	
   775                           ; 1 bytes @ 0x4
   776                           
   777  0074                     lcd8_cmd@cmd:	
   778                           ; 1 bytes @ 0x4
   779                           
   780  0074                     lcd8_write@dat:	
   781                           ; 1 bytes @ 0x4
   782                           
   783  0074                     ___awdiv@dividend:	
   784                           ; 2 bytes @ 0x4
   785                           
   786  0074                     ___awmod@dividend:	
   787                           ; 2 bytes @ 0x4
   788                           
   789                           
   790                           ; 2 bytes @ 0x4
   791  0074                     	ds	1
   792  0075                     ??_lcd8_init:	
   793  0075                     ?_lcd8_setCursor:	
   794                           ; 1 bytes @ 0x5
   795                           
   796  0075                     lcd8_setCursor@columna:	
   797                           ; 1 bytes @ 0x5
   798                           
   799                           
   800                           ; 1 bytes @ 0x5
   801  0075                     	ds	1
   802  0076                     ??_lcd8_setCursor:	
   803  0076                     ??_lcd8_dispString:	
   804                           ; 1 bytes @ 0x6
   805                           
   806  0076                     ??_lcd8_dispChar:	
   807                           ; 1 bytes @ 0x6
   808                           
   809  0076                     ??_lcd8_write:	
   810                           ; 1 bytes @ 0x6
   811                           
   812  0076                     ??___awdiv:	
   813                           ; 1 bytes @ 0x6
   814                           
   815  0076                     ??___awmod:	
   816                           ; 1 bytes @ 0x6
   817                           
   818  0076                     ??___xxtofl:	
   819                           ; 1 bytes @ 0x6
   820                           
   821  0076                     lcd8_dispChar@val_num:	
   822                           ; 1 bytes @ 0x6
   823                           
   824  0076                     lcd8_setCursor@fila:	
   825                           ; 1 bytes @ 0x6
   826                           
   827                           
   828                           ; 1 bytes @ 0x6
   829  0076                     	ds	1
   830  0077                     ___awmod@counter:	
   831                           
   832                           ; 1 bytes @ 0x7
   833  0077                     	ds	1
   834  0078                     lcd8_dispString@value:	
   835  0078                     ___awmod@sign:	
   836                           ; 1 bytes @ 0x8
   837                           
   838                           
   839                           ; 1 bytes @ 0x8
   840  0078                     	ds	2
   841                           
   842                           	psect	cstackBANK0
   843  0020                     __pcstackBANK0:	
   844  0020                     ___awdiv@counter:	
   845  0020                     ___xxtofl@sign:	
   846                           ; 1 bytes @ 0x0
   847                           
   848                           
   849                           ; 1 bytes @ 0x0
   850  0020                     	ds	1
   851  0021                     ___awdiv@sign:	
   852  0021                     ___xxtofl@exp:	
   853                           ; 1 bytes @ 0x1
   854                           
   855                           
   856                           ; 1 bytes @ 0x1
   857  0021                     	ds	1
   858  0022                     ___awdiv@quotient:	
   859  0022                     ___xxtofl@arg:	
   860                           ; 2 bytes @ 0x2
   861                           
   862                           
   863                           ; 4 bytes @ 0x2
   864  0022                     	ds	4
   865  0026                     ?___fldiv:	
   866  0026                     ___fldiv@a:	
   867                           ; 4 bytes @ 0x6
   868                           
   869                           
   870                           ; 4 bytes @ 0x6
   871  0026                     	ds	4
   872  002A                     ___fldiv@b:	
   873                           
   874                           ; 4 bytes @ 0xA
   875  002A                     	ds	4
   876  002E                     ??___fldiv:	
   877                           
   878                           ; 1 bytes @ 0xE
   879  002E                     	ds	5
   880  0033                     ___fldiv@rem:	
   881                           
   882                           ; 4 bytes @ 0x13
   883  0033                     	ds	4
   884  0037                     ___fldiv@sign:	
   885                           
   886                           ; 1 bytes @ 0x17
   887  0037                     	ds	1
   888  0038                     ___fldiv@new_exp:	
   889                           
   890                           ; 2 bytes @ 0x18
   891  0038                     	ds	2
   892  003A                     ___fldiv@grs:	
   893                           
   894                           ; 4 bytes @ 0x1A
   895  003A                     	ds	4
   896  003E                     ___fldiv@bexp:	
   897                           
   898                           ; 1 bytes @ 0x1E
   899  003E                     	ds	1
   900  003F                     ___fldiv@aexp:	
   901                           
   902                           ; 1 bytes @ 0x1F
   903  003F                     	ds	1
   904  0040                     ?___fltol:	
   905  0040                     ___fltol@f1:	
   906                           ; 4 bytes @ 0x20
   907                           
   908                           
   909                           ; 4 bytes @ 0x20
   910  0040                     	ds	4
   911  0044                     ??___fltol:	
   912                           
   913                           ; 1 bytes @ 0x24
   914  0044                     	ds	5
   915  0049                     ___fltol@sign1:	
   916                           
   917                           ; 1 bytes @ 0x29
   918  0049                     	ds	1
   919  004A                     ___fltol@exp1:	
   920                           
   921                           ; 1 bytes @ 0x2A
   922  004A                     	ds	1
   923  004B                     ??_main:	
   924                           
   925                           ; 1 bytes @ 0x2B
   926  004B                     	ds	1
   927                           
   928                           	psect	maintext
   929  01F2                     __pmaintext:	
   930 ;;
   931 ;;Main: autosize = 0, tempsize = 1, incstack = 0, save=0
   932 ;;
   933 ;; *************** function _main *****************
   934 ;; Defined at:
   935 ;;		line 51 in file "ultrasonico.c"
   936 ;; Parameters:    Size  Location     Type
   937 ;;		None
   938 ;; Auto vars:     Size  Location     Type
   939 ;;		None
   940 ;; Return value:  Size  Location     Type
   941 ;;                  1    wreg      void 
   942 ;; Registers used:
   943 ;;		wreg, fsr0l, fsr0h, status,2, status,0, btemp+1, pclath, cstack
   944 ;; Tracked objects:
   945 ;;		On entry : B00/0
   946 ;;		On exit  : 0/0
   947 ;;		Unchanged: 0/0
   948 ;; Data sizes:     COMMON   BANK0   BANK1   BANK3   BANK2
   949 ;;      Params:         0       0       0       0       0
   950 ;;      Locals:         0       0       0       0       0
   951 ;;      Temps:          0       1       0       0       0
   952 ;;      Totals:         0       1       0       0       0
   953 ;;Total ram usage:        1 bytes
   954 ;; Hardware stack levels required when called:    4
   955 ;; This function calls:
   956 ;;		___awdiv
   957 ;;		___awmod
   958 ;;		___fldiv
   959 ;;		___fltol
   960 ;;		___xxtofl
   961 ;;		_delay_1ms
   962 ;;		_lcd8_dispChar
   963 ;;		_lcd8_dispString
   964 ;;		_lcd8_init
   965 ;;		_lcd8_setCursor
   966 ;;		_oscInit
   967 ;;		_setup
   968 ;;		_tmr1_Init
   969 ;;		_tmr1_Interrupt
   970 ;;		_tmr1_Prescaler
   971 ;; This function is called by:
   972 ;;		Startup code after reset
   973 ;; This function uses a non-reentrant model
   974 ;;
   975                           
   976                           
   977                           ;psect for function _main
   978  01F2                     _main:	
   979  01F2                     l1936:	
   980                           ;incstack = 0
   981                           ; Regs used in _main: [wreg-fsr0h+status,2+status,0+btemp+1+pclath+cstack]
   982                           
   983                           
   984                           ;ultrasonico.c: 52:     setup();
   985  01F2  120A  118A  2683  120A  118A  	fcall	_setup
   986  01F7                     l1938:	
   987                           
   988                           ;ultrasonico.c: 53:     oscInit(1);
   989  01F7  3001               	movlw	1
   990  01F8  120A  118A  2472  120A  118A  	fcall	_oscInit
   991  01FD                     l1940:	
   992                           
   993                           ;ultrasonico.c: 54:     lcd8_init();
   994  01FD  120A  118A  25A9  120A  118A  	fcall	_lcd8_init
   995  0202                     l1942:	
   996                           
   997                           ;ultrasonico.c: 55:     tmr1_Init();
   998  0202  120A  118A  26E5  120A  118A  	fcall	_tmr1_Init
   999  0207                     l1944:	
  1000                           
  1001                           ;ultrasonico.c: 56:     tmr1_Prescaler(1);
  1002  0207  3001               	movlw	1
  1003  0208  120A  118A  25FF  120A  118A  	fcall	_tmr1_Prescaler
  1004  020D                     l1946:	
  1005                           
  1006                           ;ultrasonico.c: 57:     tmr1_Interrupt(0);
  1007  020D  3000               	movlw	0
  1008  020E  120A  118A  26D2  120A  118A  	fcall	_tmr1_Interrupt
  1009  0213                     l1948:	
  1010                           
  1011                           ;ultrasonico.c: 60:         TMR1H = 0;
  1012  0213  1283               	bcf	3,5	;RP0=0, select bank0
  1013  0214  1303               	bcf	3,6	;RP1=0, select bank0
  1014  0215  018F               	clrf	15	;volatile
  1015  0216                     l1950:	
  1016                           
  1017                           ;ultrasonico.c: 61:         TMR1L = 0;
  1018  0216  018E               	clrf	14	;volatile
  1019  0217                     l1952:	
  1020                           
  1021                           ;ultrasonico.c: 62:         PORTBbits.RB0 = 1;
  1022  0217  1406               	bsf	6,0	;volatile
  1023  0218                     l1954:	
  1024                           
  1025                           ;ultrasonico.c: 63:         _delay((unsigned long)((10)*(4000000/4000000.0)));
  1026  0218  3002               	movlw	2
  1027  0219  1283               	bcf	3,5	;RP0=0, select bank0
  1028  021A  1303               	bcf	3,6	;RP1=0, select bank0
  1029  021B  00CB               	movwf	??_main
  1030  021C                     u1827:	
  1031  021C  0BCB               	decfsz	??_main,f
  1032  021D  2A1C               	goto	u1827
  1033  021E  0000               	nop
  1034  021F                     l1956:	
  1035                           
  1036                           ;ultrasonico.c: 64:         PORTBbits.RB0 = 0;
  1037  021F  1283               	bcf	3,5	;RP0=0, select bank0
  1038  0220  1303               	bcf	3,6	;RP1=0, select bank0
  1039  0221  1006               	bcf	6,0	;volatile
  1040  0222                     l55:	
  1041                           ;ultrasonico.c: 65:         while(!PORTBbits.RB1);
  1042                           
  1043  0222  1C86               	btfss	6,1	;volatile
  1044  0223  2A25               	goto	u1801
  1045  0224  2A26               	goto	u1800
  1046  0225                     u1801:	
  1047  0225  2A22               	goto	l55
  1048  0226                     u1800:	
  1049  0226                     l57:	
  1050                           
  1051                           ;ultrasonico.c: 66:         TMR1ON = 1;
  1052  0226  1410               	bsf	16,0	;volatile
  1053  0227                     l58:	
  1054                           ;ultrasonico.c: 67:         while(PORTBbits.RB1);
  1055                           
  1056  0227  1886               	btfsc	6,1	;volatile
  1057  0228  2A2A               	goto	u1811
  1058  0229  2A2B               	goto	u1810
  1059  022A                     u1811:	
  1060  022A  2A27               	goto	l58
  1061  022B                     u1810:	
  1062  022B                     l60:	
  1063                           
  1064                           ;ultrasonico.c: 68:         TMR1ON = 0;
  1065  022B  1010               	bcf	16,0	;volatile
  1066  022C                     l1958:	
  1067                           
  1068                           ;ultrasonico.c: 70:         distancia = (TMR1L | (TMR1H<<8));
  1069  022C  080F               	movf	15,w	;volatile
  1070  022D  00FB               	movwf	_distancia+1
  1071  022E  080E               	movf	14,w	;volatile
  1072  022F  00FA               	movwf	_distancia
  1073  0230                     l1960:	
  1074                           
  1075                           ;ultrasonico.c: 71:         distancia = distancia/29.412;
  1076  0230  087A               	movf	_distancia,w
  1077  0231  00F2               	movwf	___xxtofl@val
  1078  0232  087B               	movf	_distancia+1,w
  1079  0233  00F3               	movwf	___xxtofl@val+1
  1080  0234  3000               	movlw	0
  1081  0235  1BF3               	btfsc	___xxtofl@val+1,7
  1082  0236  30FF               	movlw	255
  1083  0237  00F4               	movwf	___xxtofl@val+2
  1084  0238  00F5               	movwf	___xxtofl@val+3
  1085  0239  3001               	movlw	1
  1086  023A  120A  118A  233A  120A  118A  	fcall	___xxtofl
  1087  023F  0875               	movf	?___xxtofl+3,w
  1088  0240  1283               	bcf	3,5	;RP0=0, select bank0
  1089  0241  1303               	bcf	3,6	;RP1=0, select bank0
  1090  0242  00AD               	movwf	___fldiv@b+3
  1091  0243  0874               	movf	?___xxtofl+2,w
  1092  0244  00AC               	movwf	___fldiv@b+2
  1093  0245  0873               	movf	?___xxtofl+1,w
  1094  0246  00AB               	movwf	___fldiv@b+1
  1095  0247  0872               	movf	?___xxtofl,w
  1096  0248  00AA               	movwf	___fldiv@b
  1097  0249  3041               	movlw	65
  1098  024A  00A9               	movwf	___fldiv@a+3
  1099  024B  30EB               	movlw	235
  1100  024C  00A8               	movwf	___fldiv@a+2
  1101  024D  304B               	movlw	75
  1102  024E  00A7               	movwf	___fldiv@a+1
  1103  024F  30C7               	movlw	199
  1104  0250  00A6               	movwf	___fldiv@a
  1105  0251  120A  118A  2015  120A  118A  	fcall	___fldiv
  1106  0256  1283               	bcf	3,5	;RP0=0, select bank0
  1107  0257  1303               	bcf	3,6	;RP1=0, select bank0
  1108  0258  0829               	movf	?___fldiv+3,w
  1109  0259  00C3               	movwf	___fltol@f1+3
  1110  025A  0828               	movf	?___fldiv+2,w
  1111  025B  00C2               	movwf	___fltol@f1+2
  1112  025C  0827               	movf	?___fldiv+1,w
  1113  025D  00C1               	movwf	___fltol@f1+1
  1114  025E  0826               	movf	?___fldiv,w
  1115  025F  00C0               	movwf	___fltol@f1
  1116  0260  120A  118A  23F6  120A  118A  	fcall	___fltol
  1117  0265  1283               	bcf	3,5	;RP0=0, select bank0
  1118  0266  1303               	bcf	3,6	;RP1=0, select bank0
  1119  0267  0841               	movf	?___fltol+1,w
  1120  0268  00FB               	movwf	_distancia+1
  1121  0269  0840               	movf	?___fltol,w
  1122  026A  00FA               	movwf	_distancia
  1123  026B                     l1962:	
  1124                           
  1125                           ;ultrasonico.c: 72:         distancia = distancia + 1;
  1126  026B  087A               	movf	_distancia,w
  1127  026C  3E01               	addlw	1
  1128  026D  00FA               	movwf	_distancia
  1129  026E  087B               	movf	_distancia+1,w
  1130  026F  1803               	skipnc
  1131  0270  3E01               	addlw	1
  1132  0271  3E00               	addlw	0
  1133  0272  00FB               	movwf	_distancia+1
  1134  0273                     l1964:	
  1135                           
  1136                           ;ultrasonico.c: 74:         lcd8_setCursor(1,1);
  1137  0273  01F5               	clrf	lcd8_setCursor@columna
  1138  0274  0AF5               	incf	lcd8_setCursor@columna,f
  1139  0275  3001               	movlw	1
  1140  0276  120A  118A  2651  120A  118A  	fcall	_lcd8_setCursor
  1141  027B                     l1966:	
  1142                           
  1143                           ;ultrasonico.c: 75:         delay_1ms();
  1144  027B  120A  118A  266D  120A  118A  	fcall	_delay_1ms
  1145  0280                     l1968:	
  1146                           
  1147                           ;ultrasonico.c: 76:         lcd8_dispString("d:");
  1148  0280  3001               	movlw	(low ((STR_1-__stringbase)| (0+32768)))& (0+255)
  1149  0281  120A  118A  262C  120A  118A  	fcall	_lcd8_dispString
  1150  0286                     l1970:	
  1151                           
  1152                           ;ultrasonico.c: 77:         delay_1ms();
  1153  0286  120A  118A  266D  120A  118A  	fcall	_delay_1ms
  1154  028B                     l1972:	
  1155                           
  1156                           ;ultrasonico.c: 78:         lcd8_setCursor(2,3);
  1157  028B  3003               	movlw	3
  1158  028C  1283               	bcf	3,5	;RP0=0, select bank0
  1159  028D  1303               	bcf	3,6	;RP1=0, select bank0
  1160  028E  00CB               	movwf	??_main
  1161  028F  084B               	movf	??_main,w
  1162  0290  00F5               	movwf	lcd8_setCursor@columna
  1163  0291  3002               	movlw	2
  1164  0292  120A  118A  2651  120A  118A  	fcall	_lcd8_setCursor
  1165  0297                     l1974:	
  1166                           
  1167                           ;ultrasonico.c: 79:         delay_1ms();
  1168  0297  120A  118A  266D  120A  118A  	fcall	_delay_1ms
  1169  029C                     l1976:	
  1170                           
  1171                           ;ultrasonico.c: 80:         lcd8_dispChar(distancia%10);
  1172  029C  300A               	movlw	10
  1173  029D  00F2               	movwf	___awmod@divisor
  1174  029E  3000               	movlw	0
  1175  029F  00F3               	movwf	___awmod@divisor+1
  1176  02A0  087B               	movf	_distancia+1,w
  1177  02A1  00F5               	movwf	___awmod@dividend+1
  1178  02A2  087A               	movf	_distancia,w
  1179  02A3  00F4               	movwf	___awmod@dividend
  1180  02A4  120A  118A  2550  120A  118A  	fcall	___awmod
  1181  02A9  0872               	movf	?___awmod,w
  1182  02AA  120A  118A  26B8  120A  118A  	fcall	_lcd8_dispChar
  1183  02AF                     l1978:	
  1184                           
  1185                           ;ultrasonico.c: 81:         delay_1ms();
  1186  02AF  120A  118A  266D  120A  118A  	fcall	_delay_1ms
  1187  02B4                     l1980:	
  1188                           
  1189                           ;ultrasonico.c: 82:         lcd8_setCursor(2,2);
  1190  02B4  3002               	movlw	2
  1191  02B5  1283               	bcf	3,5	;RP0=0, select bank0
  1192  02B6  1303               	bcf	3,6	;RP1=0, select bank0
  1193  02B7  00CB               	movwf	??_main
  1194  02B8  084B               	movf	??_main,w
  1195  02B9  00F5               	movwf	lcd8_setCursor@columna
  1196  02BA  3002               	movlw	2
  1197  02BB  120A  118A  2651  120A  118A  	fcall	_lcd8_setCursor
  1198  02C0                     l1982:	
  1199                           
  1200                           ;ultrasonico.c: 83:         delay_1ms();
  1201  02C0  120A  118A  266D  120A  118A  	fcall	_delay_1ms
  1202  02C5                     l1984:	
  1203                           
  1204                           ;ultrasonico.c: 84:         distancia = distancia/10;
  1205  02C5  300A               	movlw	10
  1206  02C6  00F2               	movwf	___awdiv@divisor
  1207  02C7  3000               	movlw	0
  1208  02C8  00F3               	movwf	___awdiv@divisor+1
  1209  02C9  087B               	movf	_distancia+1,w
  1210  02CA  00F5               	movwf	___awdiv@dividend+1
  1211  02CB  087A               	movf	_distancia,w
  1212  02CC  00F4               	movwf	___awdiv@dividend
  1213  02CD  120A  118A  24E7  120A  118A  	fcall	___awdiv
  1214  02D2  0873               	movf	?___awdiv+1,w
  1215  02D3  00FB               	movwf	_distancia+1
  1216  02D4  0872               	movf	?___awdiv,w
  1217  02D5  00FA               	movwf	_distancia
  1218  02D6                     l1986:	
  1219                           
  1220                           ;ultrasonico.c: 85:         lcd8_dispChar(distancia%10);
  1221  02D6  300A               	movlw	10
  1222  02D7  00F2               	movwf	___awmod@divisor
  1223  02D8  3000               	movlw	0
  1224  02D9  00F3               	movwf	___awmod@divisor+1
  1225  02DA  087B               	movf	_distancia+1,w
  1226  02DB  00F5               	movwf	___awmod@dividend+1
  1227  02DC  087A               	movf	_distancia,w
  1228  02DD  00F4               	movwf	___awmod@dividend
  1229  02DE  120A  118A  2550  120A  118A  	fcall	___awmod
  1230  02E3  0872               	movf	?___awmod,w
  1231  02E4  120A  118A  26B8  120A  118A  	fcall	_lcd8_dispChar
  1232  02E9                     l1988:	
  1233                           
  1234                           ;ultrasonico.c: 86:         delay_1ms();
  1235  02E9  120A  118A  266D  120A  118A  	fcall	_delay_1ms
  1236  02EE                     l1990:	
  1237                           
  1238                           ;ultrasonico.c: 87:         lcd8_setCursor(2,1);
  1239  02EE  01F5               	clrf	lcd8_setCursor@columna
  1240  02EF  0AF5               	incf	lcd8_setCursor@columna,f
  1241  02F0  3002               	movlw	2
  1242  02F1  120A  118A  2651  120A  118A  	fcall	_lcd8_setCursor
  1243  02F6                     l1992:	
  1244                           
  1245                           ;ultrasonico.c: 88:         delay_1ms();
  1246  02F6  120A  118A  266D  120A  118A  	fcall	_delay_1ms
  1247  02FB                     l1994:	
  1248                           
  1249                           ;ultrasonico.c: 89:         distancia = distancia/10;
  1250  02FB  300A               	movlw	10
  1251  02FC  00F2               	movwf	___awdiv@divisor
  1252  02FD  3000               	movlw	0
  1253  02FE  00F3               	movwf	___awdiv@divisor+1
  1254  02FF  087B               	movf	_distancia+1,w
  1255  0300  00F5               	movwf	___awdiv@dividend+1
  1256  0301  087A               	movf	_distancia,w
  1257  0302  00F4               	movwf	___awdiv@dividend
  1258  0303  120A  118A  24E7  120A  118A  	fcall	___awdiv
  1259  0308  0873               	movf	?___awdiv+1,w
  1260  0309  00FB               	movwf	_distancia+1
  1261  030A  0872               	movf	?___awdiv,w
  1262  030B  00FA               	movwf	_distancia
  1263  030C                     l1996:	
  1264                           
  1265                           ;ultrasonico.c: 90:         lcd8_dispChar(distancia%10);
  1266  030C  300A               	movlw	10
  1267  030D  00F2               	movwf	___awmod@divisor
  1268  030E  3000               	movlw	0
  1269  030F  00F3               	movwf	___awmod@divisor+1
  1270  0310  087B               	movf	_distancia+1,w
  1271  0311  00F5               	movwf	___awmod@dividend+1
  1272  0312  087A               	movf	_distancia,w
  1273  0313  00F4               	movwf	___awmod@dividend
  1274  0314  120A  118A  2550  120A  118A  	fcall	___awmod
  1275  0319  0872               	movf	?___awmod,w
  1276  031A  120A  118A  26B8  120A  118A  	fcall	_lcd8_dispChar
  1277  031F                     l1998:	
  1278                           
  1279                           ;ultrasonico.c: 91:         lcd8_setCursor(2,4);
  1280  031F  3004               	movlw	4
  1281  0320  1283               	bcf	3,5	;RP0=0, select bank0
  1282  0321  1303               	bcf	3,6	;RP1=0, select bank0
  1283  0322  00CB               	movwf	??_main
  1284  0323  084B               	movf	??_main,w
  1285  0324  00F5               	movwf	lcd8_setCursor@columna
  1286  0325  3002               	movlw	2
  1287  0326  120A  118A  2651  120A  118A  	fcall	_lcd8_setCursor
  1288  032B                     l2000:	
  1289                           
  1290                           ;ultrasonico.c: 92:         delay_1ms();
  1291  032B  120A  118A  266D  120A  118A  	fcall	_delay_1ms
  1292  0330                     l2002:	
  1293                           
  1294                           ;ultrasonico.c: 93:         lcd8_dispString("cm");
  1295  0330  3004               	movlw	(low ((STR_2-__stringbase)| (0+32768)))& (0+255)
  1296  0331  120A  118A  262C  120A  118A  	fcall	_lcd8_dispString
  1297  0336  2A13               	goto	l1948
  1298  0337  120A  118A  280C   	ljmp	start
  1299  033A                     __end_of_main:	
  1300                           
  1301                           	psect	text1
  1302  05FF                     __ptext1:	
  1303 ;; *************** function _tmr1_Prescaler *****************
  1304 ;; Defined at:
  1305 ;;		line 22 in file "TMR1.c"
  1306 ;; Parameters:    Size  Location     Type
  1307 ;;  prescaler       1    wreg     unsigned char 
  1308 ;; Auto vars:     Size  Location     Type
  1309 ;;  prescaler       1    4[COMMON] unsigned char 
  1310 ;; Return value:  Size  Location     Type
  1311 ;;                  1    wreg      void 
  1312 ;; Registers used:
  1313 ;;		wreg, fsr0l, fsr0h, status,2, status,0
  1314 ;; Tracked objects:
  1315 ;;		On entry : 0/0
  1316 ;;		On exit  : 0/0
  1317 ;;		Unchanged: 0/0
  1318 ;; Data sizes:     COMMON   BANK0   BANK1   BANK3   BANK2
  1319 ;;      Params:         0       0       0       0       0
  1320 ;;      Locals:         1       0       0       0       0
  1321 ;;      Temps:          2       0       0       0       0
  1322 ;;      Totals:         3       0       0       0       0
  1323 ;;Total ram usage:        3 bytes
  1324 ;; Hardware stack levels used:    1
  1325 ;; Hardware stack levels required when called:    1
  1326 ;; This function calls:
  1327 ;;		Nothing
  1328 ;; This function is called by:
  1329 ;;		_main
  1330 ;; This function uses a non-reentrant model
  1331 ;;
  1332                           
  1333                           
  1334                           ;psect for function _tmr1_Prescaler
  1335  05FF                     _tmr1_Prescaler:	
  1336                           
  1337                           ;incstack = 0
  1338                           ; Regs used in _tmr1_Prescaler: [wreg-fsr0h+status,2+status,0]
  1339                           ;tmr1_Prescaler@prescaler stored from wreg
  1340  05FF  00F4               	movwf	tmr1_Prescaler@prescaler
  1341  0600                     l898:	
  1342                           
  1343                           ;TMR1.c: 23:     switch(prescaler){
  1344  0600  2E15               	goto	l902
  1345  0601                     l187:	
  1346                           ;TMR1.c: 24:         case 0:
  1347                           
  1348                           
  1349                           ;TMR1.c: 25:             T1CONbits.T1CKPS1 = 0;
  1350  0601  1283               	bcf	3,5	;RP0=0, select bank0
  1351  0602  1303               	bcf	3,6	;RP1=0, select bank0
  1352  0603  1290               	bcf	16,5	;volatile
  1353                           
  1354                           ;TMR1.c: 26:             T1CONbits.T1CKPS0 = 0;
  1355  0604  1210               	bcf	16,4	;volatile
  1356                           
  1357                           ;TMR1.c: 27:             break;
  1358  0605  2E2B               	goto	l192
  1359  0606                     l189:	
  1360                           ;TMR1.c: 28:         case 1:
  1361                           
  1362                           
  1363                           ;TMR1.c: 29:             T1CONbits.T1CKPS1 = 0;
  1364  0606  1283               	bcf	3,5	;RP0=0, select bank0
  1365  0607  1303               	bcf	3,6	;RP1=0, select bank0
  1366  0608  1290               	bcf	16,5	;volatile
  1367                           
  1368                           ;TMR1.c: 30:             T1CONbits.T1CKPS0 = 1;
  1369  0609  1610               	bsf	16,4	;volatile
  1370                           
  1371                           ;TMR1.c: 31:             break;
  1372  060A  2E2B               	goto	l192
  1373  060B                     l190:	
  1374                           ;TMR1.c: 32:         case 2:
  1375                           
  1376                           
  1377                           ;TMR1.c: 33:             T1CONbits.T1CKPS1 = 1;
  1378  060B  1283               	bcf	3,5	;RP0=0, select bank0
  1379  060C  1303               	bcf	3,6	;RP1=0, select bank0
  1380  060D  1690               	bsf	16,5	;volatile
  1381                           
  1382                           ;TMR1.c: 34:             T1CONbits.T1CKPS0 = 0;
  1383  060E  1210               	bcf	16,4	;volatile
  1384                           
  1385                           ;TMR1.c: 35:             break;
  1386  060F  2E2B               	goto	l192
  1387  0610                     l191:	
  1388                           ;TMR1.c: 36:         case 3:
  1389                           
  1390                           
  1391                           ;TMR1.c: 37:             T1CONbits.T1CKPS1 = 1;
  1392  0610  1283               	bcf	3,5	;RP0=0, select bank0
  1393  0611  1303               	bcf	3,6	;RP1=0, select bank0
  1394  0612  1690               	bsf	16,5	;volatile
  1395                           
  1396                           ;TMR1.c: 38:             T1CONbits.T1CKPS0 = 1;
  1397  0613  1610               	bsf	16,4	;volatile
  1398                           
  1399                           ;TMR1.c: 39:             break;
  1400  0614  2E2B               	goto	l192
  1401  0615                     l902:	
  1402  0615  0874               	movf	tmr1_Prescaler@prescaler,w
  1403  0616  00F2               	movwf	??_tmr1_Prescaler
  1404  0617  01F3               	clrf	??_tmr1_Prescaler+1
  1405                           
  1406                           ; Switch on 2 bytes has been partitioned into a top level switch of size 1, and 1 sub-sw
      +                          itches
  1407                           ; Switch size 1, requested type "simple"
  1408                           ; Number of cases is 1, Range of values is 0 to 0
  1409                           ; switch strategies available:
  1410                           ; Name         Instructions Cycles
  1411                           ; simple_byte            4     3 (average)
  1412                           ; direct_byte           11     8 (fixed)
  1413                           ; jumptable            260     6 (fixed)
  1414                           ;	Chosen strategy is simple_byte
  1415  0618  0873               	movf	??_tmr1_Prescaler+1,w
  1416  0619  3A00               	xorlw	0	; case 0
  1417  061A  1903               	skipnz
  1418  061B  2E1D               	goto	l2044
  1419  061C  2E2B               	goto	l192
  1420  061D                     l2044:	
  1421                           
  1422                           ; Switch size 1, requested type "simple"
  1423                           ; Number of cases is 4, Range of values is 0 to 3
  1424                           ; switch strategies available:
  1425                           ; Name         Instructions Cycles
  1426                           ; simple_byte           13     7 (average)
  1427                           ; direct_byte           20     8 (fixed)
  1428                           ; jumptable            260     6 (fixed)
  1429                           ;	Chosen strategy is simple_byte
  1430  061D  0872               	movf	??_tmr1_Prescaler,w
  1431  061E  3A00               	xorlw	0	; case 0
  1432  061F  1903               	skipnz
  1433  0620  2E01               	goto	l187
  1434  0621  3A01               	xorlw	1	; case 1
  1435  0622  1903               	skipnz
  1436  0623  2E06               	goto	l189
  1437  0624  3A03               	xorlw	3	; case 2
  1438  0625  1903               	skipnz
  1439  0626  2E0B               	goto	l190
  1440  0627  3A01               	xorlw	1	; case 3
  1441  0628  1903               	skipnz
  1442  0629  2E10               	goto	l191
  1443  062A  2E2B               	goto	l192
  1444  062B                     l192:	
  1445  062B  0008               	return
  1446  062C                     __end_of_tmr1_Prescaler:	
  1447                           
  1448                           	psect	text2
  1449  06D2                     __ptext2:	
  1450 ;; *************** function _tmr1_Interrupt *****************
  1451 ;; Defined at:
  1452 ;;		line 43 in file "TMR1.c"
  1453 ;; Parameters:    Size  Location     Type
  1454 ;;  tmr1_Int        1    wreg     unsigned char 
  1455 ;; Auto vars:     Size  Location     Type
  1456 ;;  tmr1_Int        1    2[COMMON] unsigned char 
  1457 ;; Return value:  Size  Location     Type
  1458 ;;                  1    wreg      void 
  1459 ;; Registers used:
  1460 ;;		wreg, status,0
  1461 ;; Tracked objects:
  1462 ;;		On entry : 0/0
  1463 ;;		On exit  : 0/0
  1464 ;;		Unchanged: 0/0
  1465 ;; Data sizes:     COMMON   BANK0   BANK1   BANK3   BANK2
  1466 ;;      Params:         0       0       0       0       0
  1467 ;;      Locals:         1       0       0       0       0
  1468 ;;      Temps:          0       0       0       0       0
  1469 ;;      Totals:         1       0       0       0       0
  1470 ;;Total ram usage:        1 bytes
  1471 ;; Hardware stack levels used:    1
  1472 ;; Hardware stack levels required when called:    1
  1473 ;; This function calls:
  1474 ;;		Nothing
  1475 ;; This function is called by:
  1476 ;;		_main
  1477 ;; This function uses a non-reentrant model
  1478 ;;
  1479                           
  1480                           
  1481                           ;psect for function _tmr1_Interrupt
  1482  06D2                     _tmr1_Interrupt:	
  1483                           
  1484                           ;incstack = 0
  1485                           ; Regs used in _tmr1_Interrupt: [wreg+status,0]
  1486                           ;tmr1_Interrupt@tmr1_Int stored from wreg
  1487  06D2  00F2               	movwf	tmr1_Interrupt@tmr1_Int
  1488  06D3                     l908:	
  1489                           
  1490                           ;TMR1.c: 44:     PIE1bits.TMR1IE = tmr1_Int;
  1491  06D3  0C72               	rrf	tmr1_Interrupt@tmr1_Int,w
  1492  06D4  1683               	bsf	3,5	;RP0=1, select bank1
  1493  06D5  1303               	bcf	3,6	;RP1=0, select bank1
  1494  06D6  1C03               	skipc
  1495  06D7  100C               	bcf	12,0	;volatile
  1496  06D8  1803               	skipnc
  1497  06D9  140C               	bsf	12,0	;volatile
  1498  06DA                     l910:	
  1499                           
  1500                           ;TMR1.c: 45:     PIR1bits.TMR1IF = 0;
  1501  06DA  1283               	bcf	3,5	;RP0=0, select bank0
  1502  06DB  1303               	bcf	3,6	;RP1=0, select bank0
  1503  06DC  100C               	bcf	12,0	;volatile
  1504  06DD                     l195:	
  1505  06DD  0008               	return
  1506  06DE                     __end_of_tmr1_Interrupt:	
  1507                           
  1508                           	psect	text3
  1509  06E5                     __ptext3:	
  1510 ;; *************** function _tmr1_Init *****************
  1511 ;; Defined at:
  1512 ;;		line 16 in file "TMR1.c"
  1513 ;; Parameters:    Size  Location     Type
  1514 ;;		None
  1515 ;; Auto vars:     Size  Location     Type
  1516 ;;		None
  1517 ;; Return value:  Size  Location     Type
  1518 ;;                  1    wreg      void 
  1519 ;; Registers used:
  1520 ;;		None
  1521 ;; Tracked objects:
  1522 ;;		On entry : 0/0
  1523 ;;		On exit  : 0/0
  1524 ;;		Unchanged: 0/0
  1525 ;; Data sizes:     COMMON   BANK0   BANK1   BANK3   BANK2
  1526 ;;      Params:         0       0       0       0       0
  1527 ;;      Locals:         0       0       0       0       0
  1528 ;;      Temps:          0       0       0       0       0
  1529 ;;      Totals:         0       0       0       0       0
  1530 ;;Total ram usage:        0 bytes
  1531 ;; Hardware stack levels used:    1
  1532 ;; Hardware stack levels required when called:    1
  1533 ;; This function calls:
  1534 ;;		Nothing
  1535 ;; This function is called by:
  1536 ;;		_main
  1537 ;; This function uses a non-reentrant model
  1538 ;;
  1539                           
  1540                           
  1541                           ;psect for function _tmr1_Init
  1542  06E5                     _tmr1_Init:	
  1543  06E5                     l896:	
  1544                           ;incstack = 0
  1545                           ; Regs used in _tmr1_Init: []
  1546                           
  1547                           
  1548                           ;TMR1.c: 17:     T1CONbits.T1OSCEN = 0;
  1549  06E5  1283               	bcf	3,5	;RP0=0, select bank0
  1550  06E6  1303               	bcf	3,6	;RP1=0, select bank0
  1551  06E7  1190               	bcf	16,3	;volatile
  1552                           
  1553                           ;TMR1.c: 18:     T1CONbits.TMR1CS = 0;
  1554  06E8  1090               	bcf	16,1	;volatile
  1555                           
  1556                           ;TMR1.c: 19:     T1CONbits.TMR1ON = 1;
  1557  06E9  1410               	bsf	16,0	;volatile
  1558  06EA                     l183:	
  1559  06EA  0008               	return
  1560  06EB                     __end_of_tmr1_Init:	
  1561                           
  1562                           	psect	text4
  1563  0683                     __ptext4:	
  1564 ;; *************** function _setup *****************
  1565 ;; Defined at:
  1566 ;;		line 98 in file "ultrasonico.c"
  1567 ;; Parameters:    Size  Location     Type
  1568 ;;		None
  1569 ;; Auto vars:     Size  Location     Type
  1570 ;;		None
  1571 ;; Return value:  Size  Location     Type
  1572 ;;                  1    wreg      void 
  1573 ;; Registers used:
  1574 ;;		status,2
  1575 ;; Tracked objects:
  1576 ;;		On entry : 0/0
  1577 ;;		On exit  : 0/0
  1578 ;;		Unchanged: 0/0
  1579 ;; Data sizes:     COMMON   BANK0   BANK1   BANK3   BANK2
  1580 ;;      Params:         0       0       0       0       0
  1581 ;;      Locals:         0       0       0       0       0
  1582 ;;      Temps:          0       0       0       0       0
  1583 ;;      Totals:         0       0       0       0       0
  1584 ;;Total ram usage:        0 bytes
  1585 ;; Hardware stack levels used:    1
  1586 ;; Hardware stack levels required when called:    1
  1587 ;; This function calls:
  1588 ;;		Nothing
  1589 ;; This function is called by:
  1590 ;;		_main
  1591 ;; This function uses a non-reentrant model
  1592 ;;
  1593                           
  1594                           
  1595                           ;psect for function _setup
  1596  0683                     _setup:	
  1597  0683                     l860:	
  1598                           ;incstack = 0
  1599                           ; Regs used in _setup: [status,2]
  1600                           
  1601                           
  1602                           ;ultrasonico.c: 99:     PORTBbits.RB0 = 0;
  1603  0683  1283               	bcf	3,5	;RP0=0, select bank0
  1604  0684  1303               	bcf	3,6	;RP1=0, select bank0
  1605  0685  1006               	bcf	6,0	;volatile
  1606                           
  1607                           ;ultrasonico.c: 100:     PORTBbits.RB1 = 0;
  1608  0686  1086               	bcf	6,1	;volatile
  1609                           
  1610                           ;ultrasonico.c: 101:     TRISBbits.TRISB0 = 0;
  1611  0687  1683               	bsf	3,5	;RP0=1, select bank1
  1612  0688  1303               	bcf	3,6	;RP1=0, select bank1
  1613  0689  1006               	bcf	6,0	;volatile
  1614                           
  1615                           ;ultrasonico.c: 102:     TRISBbits.TRISB1 = 1;
  1616  068A  1486               	bsf	6,1	;volatile
  1617  068B                     l862:	
  1618                           
  1619                           ;ultrasonico.c: 103:     TRISA = 0x00;
  1620  068B  0185               	clrf	5	;volatile
  1621                           
  1622                           ;ultrasonico.c: 104:     PORTA = 0x00;
  1623  068C  1283               	bcf	3,5	;RP0=0, select bank0
  1624  068D  1303               	bcf	3,6	;RP1=0, select bank0
  1625  068E  0185               	clrf	5	;volatile
  1626                           
  1627                           ;ultrasonico.c: 105:     ANSEL = 0;
  1628  068F  1683               	bsf	3,5	;RP0=1, select bank3
  1629  0690  1703               	bsf	3,6	;RP1=1, select bank3
  1630  0691  0188               	clrf	8	;volatile
  1631                           
  1632                           ;ultrasonico.c: 106:     ANSELH = 0;
  1633  0692  0189               	clrf	9	;volatile
  1634                           
  1635                           ;ultrasonico.c: 107:     TRISE = 0;
  1636  0693  1683               	bsf	3,5	;RP0=1, select bank1
  1637  0694  1303               	bcf	3,6	;RP1=0, select bank1
  1638  0695  0189               	clrf	9	;volatile
  1639  0696                     l66:	
  1640  0696  0008               	return
  1641  0697                     __end_of_setup:	
  1642                           
  1643                           	psect	text5
  1644  0472                     __ptext5:	
  1645 ;; *************** function _oscInit *****************
  1646 ;; Defined at:
  1647 ;;		line 11 in file "OSCCON.c"
  1648 ;; Parameters:    Size  Location     Type
  1649 ;;  freq            1    wreg     unsigned char 
  1650 ;; Auto vars:     Size  Location     Type
  1651 ;;  freq            1    4[COMMON] unsigned char 
  1652 ;; Return value:  Size  Location     Type
  1653 ;;                  1    wreg      unsigned char 
  1654 ;; Registers used:
  1655 ;;		wreg, fsr0l, fsr0h, status,2, status,0
  1656 ;; Tracked objects:
  1657 ;;		On entry : 0/0
  1658 ;;		On exit  : 0/0
  1659 ;;		Unchanged: 0/0
  1660 ;; Data sizes:     COMMON   BANK0   BANK1   BANK3   BANK2
  1661 ;;      Params:         0       0       0       0       0
  1662 ;;      Locals:         1       0       0       0       0
  1663 ;;      Temps:          2       0       0       0       0
  1664 ;;      Totals:         3       0       0       0       0
  1665 ;;Total ram usage:        3 bytes
  1666 ;; Hardware stack levels used:    1
  1667 ;; Hardware stack levels required when called:    1
  1668 ;; This function calls:
  1669 ;;		Nothing
  1670 ;; This function is called by:
  1671 ;;		_main
  1672 ;; This function uses a non-reentrant model
  1673 ;;
  1674                           
  1675                           
  1676                           ;psect for function _oscInit
  1677  0472                     _oscInit:	
  1678                           
  1679                           ;incstack = 0
  1680                           ; Regs used in _oscInit: [wreg-fsr0h+status,2+status,0]
  1681                           ;oscInit@freq stored from wreg
  1682  0472  00F4               	movwf	oscInit@freq
  1683  0473                     l864:	
  1684                           
  1685                           ;OSCCON.c: 12:     switch(freq){
  1686  0473  2CC4               	goto	l868
  1687  0474                     l117:	
  1688                           ;OSCCON.c: 13:         case 0:
  1689                           
  1690                           
  1691                           ;OSCCON.c: 14:             OSCCONbits.IRCF2 = 1;
  1692  0474  1683               	bsf	3,5	;RP0=1, select bank1
  1693  0475  1303               	bcf	3,6	;RP1=0, select bank1
  1694  0476  170F               	bsf	15,6	;volatile
  1695                           
  1696                           ;OSCCON.c: 15:             OSCCONbits.IRCF1 = 1;
  1697  0477  168F               	bsf	15,5	;volatile
  1698                           
  1699                           ;OSCCON.c: 16:             OSCCONbits.IRCF0 = 1;
  1700  0478  160F               	bsf	15,4	;volatile
  1701                           
  1702                           ;OSCCON.c: 17:             OSCCONbits.OSTS = 0;
  1703  0479  118F               	bcf	15,3	;volatile
  1704                           
  1705                           ;OSCCON.c: 18:             OSCCONbits.HTS = 1;
  1706  047A  150F               	bsf	15,2	;volatile
  1707                           
  1708                           ;OSCCON.c: 19:             OSCCONbits.LTS = 0;
  1709  047B  108F               	bcf	15,1	;volatile
  1710                           
  1711                           ;OSCCON.c: 20:             OSCCONbits.SCS = 1;
  1712  047C  140F               	bsf	15,0	;volatile
  1713                           
  1714                           ;OSCCON.c: 21:             break;
  1715  047D  2CE6               	goto	l126
  1716  047E                     l119:	
  1717                           ;OSCCON.c: 22:         case 1:
  1718                           
  1719                           
  1720                           ;OSCCON.c: 23:             OSCCONbits.IRCF2 = 1;
  1721  047E  1683               	bsf	3,5	;RP0=1, select bank1
  1722  047F  1303               	bcf	3,6	;RP1=0, select bank1
  1723  0480  170F               	bsf	15,6	;volatile
  1724                           
  1725                           ;OSCCON.c: 24:             OSCCONbits.IRCF1 = 1;
  1726  0481  168F               	bsf	15,5	;volatile
  1727                           
  1728                           ;OSCCON.c: 25:             OSCCONbits.IRCF0 = 0;
  1729  0482  120F               	bcf	15,4	;volatile
  1730                           
  1731                           ;OSCCON.c: 26:             OSCCONbits.OSTS = 0;
  1732  0483  118F               	bcf	15,3	;volatile
  1733                           
  1734                           ;OSCCON.c: 27:             OSCCONbits.HTS = 1;
  1735  0484  150F               	bsf	15,2	;volatile
  1736                           
  1737                           ;OSCCON.c: 28:             OSCCONbits.LTS = 0;
  1738  0485  108F               	bcf	15,1	;volatile
  1739                           
  1740                           ;OSCCON.c: 29:             OSCCONbits.SCS = 1;
  1741  0486  140F               	bsf	15,0	;volatile
  1742                           
  1743                           ;OSCCON.c: 30:             break;
  1744  0487  2CE6               	goto	l126
  1745  0488                     l120:	
  1746                           ;OSCCON.c: 31:         case 2:
  1747                           
  1748                           
  1749                           ;OSCCON.c: 32:             OSCCONbits.IRCF2 = 1;
  1750  0488  1683               	bsf	3,5	;RP0=1, select bank1
  1751  0489  1303               	bcf	3,6	;RP1=0, select bank1
  1752  048A  170F               	bsf	15,6	;volatile
  1753                           
  1754                           ;OSCCON.c: 33:             OSCCONbits.IRCF1 = 0;
  1755  048B  128F               	bcf	15,5	;volatile
  1756                           
  1757                           ;OSCCON.c: 34:             OSCCONbits.IRCF0 = 1;
  1758  048C  160F               	bsf	15,4	;volatile
  1759                           
  1760                           ;OSCCON.c: 35:             OSCCONbits.OSTS = 0;
  1761  048D  118F               	bcf	15,3	;volatile
  1762                           
  1763                           ;OSCCON.c: 36:             OSCCONbits.HTS = 1;
  1764  048E  150F               	bsf	15,2	;volatile
  1765                           
  1766                           ;OSCCON.c: 37:             OSCCONbits.LTS = 0;
  1767  048F  108F               	bcf	15,1	;volatile
  1768                           
  1769                           ;OSCCON.c: 38:             OSCCONbits.SCS = 1;
  1770  0490  140F               	bsf	15,0	;volatile
  1771                           
  1772                           ;OSCCON.c: 39:             break;
  1773  0491  2CE6               	goto	l126
  1774  0492                     l121:	
  1775                           ;OSCCON.c: 40:         case 3:
  1776                           
  1777                           
  1778                           ;OSCCON.c: 41:             OSCCONbits.IRCF2 = 1;
  1779  0492  1683               	bsf	3,5	;RP0=1, select bank1
  1780  0493  1303               	bcf	3,6	;RP1=0, select bank1
  1781  0494  170F               	bsf	15,6	;volatile
  1782                           
  1783                           ;OSCCON.c: 42:             OSCCONbits.IRCF1 = 0;
  1784  0495  128F               	bcf	15,5	;volatile
  1785                           
  1786                           ;OSCCON.c: 43:             OSCCONbits.IRCF0 = 0;
  1787  0496  120F               	bcf	15,4	;volatile
  1788                           
  1789                           ;OSCCON.c: 44:             OSCCONbits.OSTS = 0;
  1790  0497  118F               	bcf	15,3	;volatile
  1791                           
  1792                           ;OSCCON.c: 45:             OSCCONbits.HTS = 1;
  1793  0498  150F               	bsf	15,2	;volatile
  1794                           
  1795                           ;OSCCON.c: 46:             OSCCONbits.LTS = 0;
  1796  0499  108F               	bcf	15,1	;volatile
  1797                           
  1798                           ;OSCCON.c: 47:             OSCCONbits.SCS = 1;
  1799  049A  140F               	bsf	15,0	;volatile
  1800                           
  1801                           ;OSCCON.c: 48:             break;
  1802  049B  2CE6               	goto	l126
  1803  049C                     l122:	
  1804                           ;OSCCON.c: 49:         case 4:
  1805                           
  1806                           
  1807                           ;OSCCON.c: 50:             OSCCONbits.IRCF2 = 0;
  1808  049C  1683               	bsf	3,5	;RP0=1, select bank1
  1809  049D  1303               	bcf	3,6	;RP1=0, select bank1
  1810  049E  130F               	bcf	15,6	;volatile
  1811                           
  1812                           ;OSCCON.c: 51:             OSCCONbits.IRCF1 = 1;
  1813  049F  168F               	bsf	15,5	;volatile
  1814                           
  1815                           ;OSCCON.c: 52:             OSCCONbits.IRCF0 = 1;
  1816  04A0  160F               	bsf	15,4	;volatile
  1817                           
  1818                           ;OSCCON.c: 53:             OSCCONbits.OSTS = 0;
  1819  04A1  118F               	bcf	15,3	;volatile
  1820                           
  1821                           ;OSCCON.c: 54:             OSCCONbits.HTS = 1;
  1822  04A2  150F               	bsf	15,2	;volatile
  1823                           
  1824                           ;OSCCON.c: 55:             OSCCONbits.LTS = 0;
  1825  04A3  108F               	bcf	15,1	;volatile
  1826                           
  1827                           ;OSCCON.c: 56:             OSCCONbits.SCS = 1;
  1828  04A4  140F               	bsf	15,0	;volatile
  1829                           
  1830                           ;OSCCON.c: 57:             break;
  1831  04A5  2CE6               	goto	l126
  1832  04A6                     l123:	
  1833                           ;OSCCON.c: 58:         case 5:
  1834                           
  1835                           
  1836                           ;OSCCON.c: 59:             OSCCONbits.IRCF2 = 0;
  1837  04A6  1683               	bsf	3,5	;RP0=1, select bank1
  1838  04A7  1303               	bcf	3,6	;RP1=0, select bank1
  1839  04A8  130F               	bcf	15,6	;volatile
  1840                           
  1841                           ;OSCCON.c: 60:             OSCCONbits.IRCF1 = 1;
  1842  04A9  168F               	bsf	15,5	;volatile
  1843                           
  1844                           ;OSCCON.c: 61:             OSCCONbits.IRCF0 = 0;
  1845  04AA  120F               	bcf	15,4	;volatile
  1846                           
  1847                           ;OSCCON.c: 62:             OSCCONbits.OSTS = 0;
  1848  04AB  118F               	bcf	15,3	;volatile
  1849                           
  1850                           ;OSCCON.c: 63:             OSCCONbits.HTS = 1;
  1851  04AC  150F               	bsf	15,2	;volatile
  1852                           
  1853                           ;OSCCON.c: 64:             OSCCONbits.LTS = 0;
  1854  04AD  108F               	bcf	15,1	;volatile
  1855                           
  1856                           ;OSCCON.c: 65:             OSCCONbits.SCS = 1;
  1857  04AE  140F               	bsf	15,0	;volatile
  1858                           
  1859                           ;OSCCON.c: 66:             break;
  1860  04AF  2CE6               	goto	l126
  1861  04B0                     l124:	
  1862                           ;OSCCON.c: 67:         case 6:
  1863                           
  1864                           
  1865                           ;OSCCON.c: 68:             OSCCONbits.IRCF2 = 0;
  1866  04B0  1683               	bsf	3,5	;RP0=1, select bank1
  1867  04B1  1303               	bcf	3,6	;RP1=0, select bank1
  1868  04B2  130F               	bcf	15,6	;volatile
  1869                           
  1870                           ;OSCCON.c: 69:             OSCCONbits.IRCF1 = 0;
  1871  04B3  128F               	bcf	15,5	;volatile
  1872                           
  1873                           ;OSCCON.c: 70:             OSCCONbits.IRCF0 = 1;
  1874  04B4  160F               	bsf	15,4	;volatile
  1875                           
  1876                           ;OSCCON.c: 71:             OSCCONbits.OSTS = 0;
  1877  04B5  118F               	bcf	15,3	;volatile
  1878                           
  1879                           ;OSCCON.c: 72:             OSCCONbits.HTS = 1;
  1880  04B6  150F               	bsf	15,2	;volatile
  1881                           
  1882                           ;OSCCON.c: 73:             OSCCONbits.LTS = 0;
  1883  04B7  108F               	bcf	15,1	;volatile
  1884                           
  1885                           ;OSCCON.c: 74:             OSCCONbits.SCS = 1;
  1886  04B8  140F               	bsf	15,0	;volatile
  1887                           
  1888                           ;OSCCON.c: 75:             break;
  1889  04B9  2CE6               	goto	l126
  1890  04BA                     l125:	
  1891                           ;OSCCON.c: 76:         case 7:
  1892                           
  1893                           
  1894                           ;OSCCON.c: 77:             OSCCONbits.IRCF2 = 0;
  1895  04BA  1683               	bsf	3,5	;RP0=1, select bank1
  1896  04BB  1303               	bcf	3,6	;RP1=0, select bank1
  1897  04BC  130F               	bcf	15,6	;volatile
  1898                           
  1899                           ;OSCCON.c: 78:             OSCCONbits.IRCF1 = 0;
  1900  04BD  128F               	bcf	15,5	;volatile
  1901                           
  1902                           ;OSCCON.c: 79:             OSCCONbits.IRCF0 = 0;
  1903  04BE  120F               	bcf	15,4	;volatile
  1904                           
  1905                           ;OSCCON.c: 80:             OSCCONbits.OSTS = 0;
  1906  04BF  118F               	bcf	15,3	;volatile
  1907                           
  1908                           ;OSCCON.c: 81:             OSCCONbits.HTS = 0;
  1909  04C0  110F               	bcf	15,2	;volatile
  1910                           
  1911                           ;OSCCON.c: 82:             OSCCONbits.LTS = 1;
  1912  04C1  148F               	bsf	15,1	;volatile
  1913                           
  1914                           ;OSCCON.c: 83:             OSCCONbits.SCS = 1;
  1915  04C2  140F               	bsf	15,0	;volatile
  1916                           
  1917                           ;OSCCON.c: 84:             break;
  1918  04C3  2CE6               	goto	l126
  1919  04C4                     l868:	
  1920  04C4  0874               	movf	oscInit@freq,w
  1921  04C5  00F2               	movwf	??_oscInit
  1922  04C6  01F3               	clrf	??_oscInit+1
  1923                           
  1924                           ; Switch on 2 bytes has been partitioned into a top level switch of size 1, and 1 sub-sw
      +                          itches
  1925                           ; Switch size 1, requested type "simple"
  1926                           ; Number of cases is 1, Range of values is 0 to 0
  1927                           ; switch strategies available:
  1928                           ; Name         Instructions Cycles
  1929                           ; simple_byte            4     3 (average)
  1930                           ; direct_byte           11     8 (fixed)
  1931                           ; jumptable            260     6 (fixed)
  1932                           ;	Chosen strategy is simple_byte
  1933  04C7  0873               	movf	??_oscInit+1,w
  1934  04C8  3A00               	xorlw	0	; case 0
  1935  04C9  1903               	skipnz
  1936  04CA  2CCC               	goto	l2046
  1937  04CB  2CE6               	goto	l126
  1938  04CC                     l2046:	
  1939                           
  1940                           ; Switch size 1, requested type "simple"
  1941                           ; Number of cases is 8, Range of values is 0 to 7
  1942                           ; switch strategies available:
  1943                           ; Name         Instructions Cycles
  1944                           ; simple_byte           25    13 (average)
  1945                           ; direct_byte           32     8 (fixed)
  1946                           ; jumptable            260     6 (fixed)
  1947                           ;	Chosen strategy is simple_byte
  1948  04CC  0872               	movf	??_oscInit,w
  1949  04CD  3A00               	xorlw	0	; case 0
  1950  04CE  1903               	skipnz
  1951  04CF  2C74               	goto	l117
  1952  04D0  3A01               	xorlw	1	; case 1
  1953  04D1  1903               	skipnz
  1954  04D2  2C7E               	goto	l119
  1955  04D3  3A03               	xorlw	3	; case 2
  1956  04D4  1903               	skipnz
  1957  04D5  2C88               	goto	l120
  1958  04D6  3A01               	xorlw	1	; case 3
  1959  04D7  1903               	skipnz
  1960  04D8  2C92               	goto	l121
  1961  04D9  3A07               	xorlw	7	; case 4
  1962  04DA  1903               	skipnz
  1963  04DB  2C9C               	goto	l122
  1964  04DC  3A01               	xorlw	1	; case 5
  1965  04DD  1903               	skipnz
  1966  04DE  2CA6               	goto	l123
  1967  04DF  3A03               	xorlw	3	; case 6
  1968  04E0  1903               	skipnz
  1969  04E1  2CB0               	goto	l124
  1970  04E2  3A01               	xorlw	1	; case 7
  1971  04E3  1903               	skipnz
  1972  04E4  2CBA               	goto	l125
  1973  04E5  2CE6               	goto	l126
  1974  04E6                     l126:	
  1975  04E6  0008               	return
  1976  04E7                     __end_of_oscInit:	
  1977                           
  1978                           	psect	text6
  1979  0651                     __ptext6:	
  1980 ;; *************** function _lcd8_setCursor *****************
  1981 ;; Defined at:
  1982 ;;		line 62 in file "LCD.c"
  1983 ;; Parameters:    Size  Location     Type
  1984 ;;  fila            1    wreg     unsigned char 
  1985 ;;  columna         1    5[COMMON] unsigned char 
  1986 ;; Auto vars:     Size  Location     Type
  1987 ;;  fila            1    6[COMMON] unsigned char 
  1988 ;; Return value:  Size  Location     Type
  1989 ;;                  1    wreg      void 
  1990 ;; Registers used:
  1991 ;;		wreg, status,2, status,0, btemp+1, pclath, cstack
  1992 ;; Tracked objects:
  1993 ;;		On entry : 0/0
  1994 ;;		On exit  : 0/0
  1995 ;;		Unchanged: 0/0
  1996 ;; Data sizes:     COMMON   BANK0   BANK1   BANK3   BANK2
  1997 ;;      Params:         1       0       0       0       0
  1998 ;;      Locals:         1       0       0       0       0
  1999 ;;      Temps:          0       0       0       0       0
  2000 ;;      Totals:         2       0       0       0       0
  2001 ;;Total ram usage:        2 bytes
  2002 ;; Hardware stack levels used:    1
  2003 ;; Hardware stack levels required when called:    3
  2004 ;; This function calls:
  2005 ;;		_lcd8_cmd
  2006 ;; This function is called by:
  2007 ;;		_main
  2008 ;; This function uses a non-reentrant model
  2009 ;;
  2010                           
  2011                           
  2012                           ;psect for function _lcd8_setCursor
  2013  0651                     _lcd8_setCursor:	
  2014                           
  2015                           ;incstack = 0
  2016                           ; Regs used in _lcd8_setCursor: [wreg+status,2+status,0+btemp+1+pclath+cstack]
  2017                           ;lcd8_setCursor@fila stored from wreg
  2018  0651  00F6               	movwf	lcd8_setCursor@fila
  2019  0652                     l1426:	
  2020                           
  2021                           ;LCD.c: 63:     if (fila == 1){
  2022  0652  0376               	decf	lcd8_setCursor@fila,w
  2023  0653  1D03               	btfss	3,2
  2024  0654  2E56               	goto	u831
  2025  0655  2E57               	goto	u830
  2026  0656                     u831:	
  2027  0656  2E5F               	goto	l1430
  2028  0657                     u830:	
  2029  0657                     l1428:	
  2030                           
  2031                           ;LCD.c: 64:         lcd8_cmd(0x80 + columna);
  2032  0657  0875               	movf	lcd8_setCursor@columna,w
  2033  0658  3E80               	addlw	128
  2034  0659  120A  118A  2697  120A  118A  	fcall	_lcd8_cmd
  2035                           
  2036                           ;LCD.c: 65:     }
  2037  065E  2E6C               	goto	l229
  2038  065F                     l1430:	
  2039  065F  3002               	movlw	2
  2040  0660  0676               	xorwf	lcd8_setCursor@fila,w
  2041  0661  1D03               	btfss	3,2
  2042  0662  2E64               	goto	u841
  2043  0663  2E65               	goto	u840
  2044  0664                     u841:	
  2045  0664  2E6C               	goto	l229
  2046  0665                     u840:	
  2047  0665                     l1432:	
  2048                           
  2049                           ;LCD.c: 67:         lcd8_cmd(0xC0 + columna);
  2050  0665  0875               	movf	lcd8_setCursor@columna,w
  2051  0666  3EC0               	addlw	192
  2052  0667  120A  118A  2697  120A  118A  	fcall	_lcd8_cmd
  2053  066C                     l229:	
  2054  066C  0008               	return
  2055  066D                     __end_of_lcd8_setCursor:	
  2056                           
  2057                           	psect	text7
  2058  05A9                     __ptext7:	
  2059 ;; *************** function _lcd8_init *****************
  2060 ;; Defined at:
  2061 ;;		line 18 in file "LCD.c"
  2062 ;; Parameters:    Size  Location     Type
  2063 ;;		None
  2064 ;; Auto vars:     Size  Location     Type
  2065 ;;		None
  2066 ;; Return value:  Size  Location     Type
  2067 ;;                  1    wreg      void 
  2068 ;; Registers used:
  2069 ;;		wreg, status,2, status,0, btemp+1, pclath, cstack
  2070 ;; Tracked objects:
  2071 ;;		On entry : 0/0
  2072 ;;		On exit  : 0/0
  2073 ;;		Unchanged: 0/0
  2074 ;; Data sizes:     COMMON   BANK0   BANK1   BANK3   BANK2
  2075 ;;      Params:         0       0       0       0       0
  2076 ;;      Locals:         0       0       0       0       0
  2077 ;;      Temps:          2       0       0       0       0
  2078 ;;      Totals:         2       0       0       0       0
  2079 ;;Total ram usage:        2 bytes
  2080 ;; Hardware stack levels used:    1
  2081 ;; Hardware stack levels required when called:    3
  2082 ;; This function calls:
  2083 ;;		_lcd8_cmd
  2084 ;; This function is called by:
  2085 ;;		_main
  2086 ;; This function uses a non-reentrant model
  2087 ;;
  2088                           
  2089                           
  2090                           ;psect for function _lcd8_init
  2091  05A9                     _lcd8_init:	
  2092  05A9                     l874:	
  2093                           ;incstack = 0
  2094                           ; Regs used in _lcd8_init: [wreg+status,2+status,0+btemp+1+pclath+cstack]
  2095                           
  2096                           
  2097                           ;LCD.c: 19:     _delay((unsigned long)((20)*(4000000/4000.0)));
  2098  05A9  301A               	movlw	26
  2099  05AA  00F6               	movwf	??_lcd8_init+1
  2100  05AB  30F8               	movlw	248
  2101  05AC  00F5               	movwf	??_lcd8_init
  2102  05AD                     u1837:	
  2103  05AD  0BF5               	decfsz	??_lcd8_init,f
  2104  05AE  2DAD               	goto	u1837
  2105  05AF  0BF6               	decfsz	??_lcd8_init+1,f
  2106  05B0  2DAD               	goto	u1837
  2107  05B1  0000               	nop
  2108  05B2                     l876:	
  2109                           
  2110                           ;LCD.c: 20:     lcd8_cmd(0x30);
  2111  05B2  3030               	movlw	48
  2112  05B3  120A  118A  2697  120A  118A  	fcall	_lcd8_cmd
  2113  05B8                     l878:	
  2114                           
  2115                           ;LCD.c: 21:     _delay((unsigned long)((5)*(4000000/4000.0)));
  2116  05B8  3007               	movlw	7
  2117  05B9  00F6               	movwf	??_lcd8_init+1
  2118  05BA  307D               	movlw	125
  2119  05BB  00F5               	movwf	??_lcd8_init
  2120  05BC                     u1847:	
  2121  05BC  0BF5               	decfsz	??_lcd8_init,f
  2122  05BD  2DBC               	goto	u1847
  2123  05BE  0BF6               	decfsz	??_lcd8_init+1,f
  2124  05BF  2DBC               	goto	u1847
  2125                           
  2126                           ;LCD.c: 22:     lcd8_cmd(0x30);
  2127  05C0  3030               	movlw	48
  2128  05C1  120A  118A  2697  120A  118A  	fcall	_lcd8_cmd
  2129  05C6                     l880:	
  2130                           
  2131                           ;LCD.c: 23:     _delay((unsigned long)((1)*(4000000/4000.0)));
  2132  05C6  30C7               	movlw	199
  2133  05C7  00F5               	movwf	??_lcd8_init
  2134  05C8                     u1857:	
  2135  05C8  2DC9               	nop2
  2136  05C9  0BF5               	decfsz	??_lcd8_init,f
  2137  05CA  2DC8               	goto	u1857
  2138  05CB  2DCC               	nop2
  2139  05CC  2DCD               	nop2
  2140  05CD                     l882:	
  2141                           
  2142                           ;LCD.c: 24:     lcd8_cmd(0x30);
  2143  05CD  3030               	movlw	48
  2144  05CE  120A  118A  2697  120A  118A  	fcall	_lcd8_cmd
  2145                           
  2146                           ;LCD.c: 25:     _delay((unsigned long)((1)*(4000000/4000.0)));
  2147  05D3  30C7               	movlw	199
  2148  05D4  00F5               	movwf	??_lcd8_init
  2149  05D5                     u1867:	
  2150  05D5  2DD6               	nop2
  2151  05D6  0BF5               	decfsz	??_lcd8_init,f
  2152  05D7  2DD5               	goto	u1867
  2153  05D8  2DD9               	nop2
  2154  05D9  2DDA               	nop2
  2155  05DA                     l884:	
  2156                           
  2157                           ;LCD.c: 26:     lcd8_cmd(0x38);
  2158  05DA  3038               	movlw	56
  2159  05DB  120A  118A  2697  120A  118A  	fcall	_lcd8_cmd
  2160  05E0                     l886:	
  2161                           
  2162                           ;LCD.c: 27:     lcd8_cmd(0x10);
  2163  05E0  3010               	movlw	16
  2164  05E1  120A  118A  2697  120A  118A  	fcall	_lcd8_cmd
  2165  05E6                     l888:	
  2166                           
  2167                           ;LCD.c: 28:     lcd8_cmd(0x01);
  2168  05E6  3001               	movlw	1
  2169  05E7  120A  118A  2697  120A  118A  	fcall	_lcd8_cmd
  2170  05EC                     l890:	
  2171                           
  2172                           ;LCD.c: 29:     lcd8_cmd(0x06);
  2173  05EC  3006               	movlw	6
  2174  05ED  120A  118A  2697  120A  118A  	fcall	_lcd8_cmd
  2175  05F2                     l892:	
  2176                           
  2177                           ;LCD.c: 30:     lcd8_cmd(0x0C);
  2178  05F2  300C               	movlw	12
  2179  05F3  120A  118A  2697  120A  118A  	fcall	_lcd8_cmd
  2180  05F8                     l894:	
  2181                           
  2182                           ;LCD.c: 31:     lcd8_cmd(0x80);
  2183  05F8  3080               	movlw	128
  2184  05F9  120A  118A  2697  120A  118A  	fcall	_lcd8_cmd
  2185  05FE                     l208:	
  2186  05FE  0008               	return
  2187  05FF                     __end_of_lcd8_init:	
  2188                           
  2189                           	psect	text8
  2190  0697                     __ptext8:	
  2191 ;; *************** function _lcd8_cmd *****************
  2192 ;; Defined at:
  2193 ;;		line 34 in file "LCD.c"
  2194 ;; Parameters:    Size  Location     Type
  2195 ;;  cmd             1    wreg     unsigned char 
  2196 ;; Auto vars:     Size  Location     Type
  2197 ;;  cmd             1    4[COMMON] unsigned char 
  2198 ;; Return value:  Size  Location     Type
  2199 ;;                  1    wreg      void 
  2200 ;; Registers used:
  2201 ;;		wreg, status,2, status,0, btemp+1, pclath, cstack
  2202 ;; Tracked objects:
  2203 ;;		On entry : 0/0
  2204 ;;		On exit  : 0/0
  2205 ;;		Unchanged: 0/0
  2206 ;; Data sizes:     COMMON   BANK0   BANK1   BANK3   BANK2
  2207 ;;      Params:         0       0       0       0       0
  2208 ;;      Locals:         1       0       0       0       0
  2209 ;;      Temps:          0       0       0       0       0
  2210 ;;      Totals:         1       0       0       0       0
  2211 ;;Total ram usage:        1 bytes
  2212 ;; Hardware stack levels used:    1
  2213 ;; Hardware stack levels required when called:    2
  2214 ;; This function calls:
  2215 ;;		_delay_1ms
  2216 ;; This function is called by:
  2217 ;;		_lcd8_init
  2218 ;;		_lcd8_setCursor
  2219 ;; This function uses a non-reentrant model
  2220 ;;
  2221                           
  2222                           
  2223                           ;psect for function _lcd8_cmd
  2224  0697                     _lcd8_cmd:	
  2225                           
  2226                           ;incstack = 0
  2227                           ; Regs used in _lcd8_cmd: [wreg+status,2+status,0+btemp+1+pclath+cstack]
  2228                           ;lcd8_cmd@cmd stored from wreg
  2229  0697  00F4               	movwf	lcd8_cmd@cmd
  2230  0698                     l836:	
  2231                           
  2232                           ;LCD.c: 35:     PORTA = cmd;
  2233  0698  0874               	movf	lcd8_cmd@cmd,w
  2234  0699  1283               	bcf	3,5	;RP0=0, select bank0
  2235  069A  1303               	bcf	3,6	;RP1=0, select bank0
  2236  069B  0085               	movwf	5	;volatile
  2237  069C                     l838:	
  2238                           
  2239                           ;LCD.c: 36:     PORTEbits.RE0 = 0;
  2240  069C  1009               	bcf	9,0	;volatile
  2241  069D                     l840:	
  2242                           
  2243                           ;LCD.c: 37:     PORTEbits.RE1 = 0;
  2244  069D  1089               	bcf	9,1	;volatile
  2245  069E                     l842:	
  2246                           
  2247                           ;LCD.c: 38:     PORTEbits.RE2 = 1;
  2248  069E  1509               	bsf	9,2	;volatile
  2249  069F                     l844:	
  2250                           
  2251                           ;LCD.c: 39:     delay_1ms();
  2252  069F  120A  118A  266D  120A  118A  	fcall	_delay_1ms
  2253  06A4                     l846:	
  2254                           
  2255                           ;LCD.c: 40:     PORTEbits.RE2 = 0;
  2256  06A4  1283               	bcf	3,5	;RP0=0, select bank0
  2257  06A5  1303               	bcf	3,6	;RP1=0, select bank0
  2258  06A6  1109               	bcf	9,2	;volatile
  2259  06A7                     l211:	
  2260  06A7  0008               	return
  2261  06A8                     __end_of_lcd8_cmd:	
  2262                           
  2263                           	psect	text9
  2264  062C                     __ptext9:	
  2265 ;; *************** function _lcd8_dispString *****************
  2266 ;; Defined at:
  2267 ;;		line 52 in file "LCD.c"
  2268 ;; Parameters:    Size  Location     Type
  2269 ;;  value           1    wreg     PTR unsigned char 
  2270 ;;		 -> STR_2(3), STR_1(3), 
  2271 ;; Auto vars:     Size  Location     Type
  2272 ;;  value           1    8[COMMON] PTR unsigned char 
  2273 ;;		 -> STR_2(3), STR_1(3), 
  2274 ;; Return value:  Size  Location     Type
  2275 ;;                  1    wreg      void 
  2276 ;; Registers used:
  2277 ;;		wreg, fsr0l, fsr0h, status,2, status,0, btemp+1, pclath, cstack
  2278 ;; Tracked objects:
  2279 ;;		On entry : 0/0
  2280 ;;		On exit  : 0/0
  2281 ;;		Unchanged: 0/0
  2282 ;; Data sizes:     COMMON   BANK0   BANK1   BANK3   BANK2
  2283 ;;      Params:         0       0       0       0       0
  2284 ;;      Locals:         1       0       0       0       0
  2285 ;;      Temps:          2       0       0       0       0
  2286 ;;      Totals:         3       0       0       0       0
  2287 ;;Total ram usage:        3 bytes
  2288 ;; Hardware stack levels used:    1
  2289 ;; Hardware stack levels required when called:    3
  2290 ;; This function calls:
  2291 ;;		_lcd8_write
  2292 ;; This function is called by:
  2293 ;;		_main
  2294 ;; This function uses a non-reentrant model
  2295 ;;
  2296                           
  2297                           
  2298                           ;psect for function _lcd8_dispString
  2299  062C                     _lcd8_dispString:	
  2300                           
  2301                           ;incstack = 0
  2302                           ; Regs used in _lcd8_dispString: [wreg-fsr0h+status,2+status,0+btemp+1+pclath+cstack]
  2303                           ;lcd8_dispString@value stored from wreg
  2304  062C  00F8               	movwf	lcd8_dispString@value
  2305  062D                     l1434:	
  2306                           
  2307                           ;LCD.c: 53:     while(*value){
  2308  062D  2E44               	goto	l1440
  2309  062E                     l1436:	
  2310                           
  2311                           ;LCD.c: 54:         lcd8_write(*value++);
  2312  062E  0878               	movf	lcd8_dispString@value,w
  2313  062F  0084               	movwf	4
  2314  0630  120A  118A  26C6  120A  118A  	fcall	stringdir
  2315  0635  00F6               	movwf	??_lcd8_dispString
  2316  0636  01F7               	clrf	??_lcd8_dispString+1
  2317  0637  0876               	movf	??_lcd8_dispString,w
  2318  0638  00F4               	movwf	lcd8_write@dat
  2319  0639  0877               	movf	??_lcd8_dispString+1,w
  2320  063A  00F5               	movwf	lcd8_write@dat+1
  2321  063B  120A  118A  26A8  120A  118A  	fcall	_lcd8_write
  2322  0640                     l1438:	
  2323  0640  3001               	movlw	1
  2324  0641  00F6               	movwf	??_lcd8_dispString
  2325  0642  0876               	movf	??_lcd8_dispString,w
  2326  0643  07F8               	addwf	lcd8_dispString@value,f
  2327  0644                     l1440:	
  2328                           
  2329                           ;LCD.c: 53:     while(*value){
  2330  0644  0878               	movf	lcd8_dispString@value,w
  2331  0645  0084               	movwf	4
  2332  0646  120A  118A  26C6  120A  118A  	fcall	stringdir
  2333  064B  3A00               	xorlw	0
  2334  064C  1D03               	skipz
  2335  064D  2E4F               	goto	u851
  2336  064E  2E50               	goto	u850
  2337  064F                     u851:	
  2338  064F  2E2E               	goto	l1436
  2339  0650                     u850:	
  2340  0650                     l220:	
  2341  0650  0008               	return
  2342  0651                     __end_of_lcd8_dispString:	
  2343                           
  2344                           	psect	text10
  2345  06B8                     __ptext10:	
  2346 ;; *************** function _lcd8_dispChar *****************
  2347 ;; Defined at:
  2348 ;;		line 58 in file "LCD.c"
  2349 ;; Parameters:    Size  Location     Type
  2350 ;;  val_num         1    wreg     unsigned char 
  2351 ;; Auto vars:     Size  Location     Type
  2352 ;;  val_num         1    6[COMMON] unsigned char 
  2353 ;; Return value:  Size  Location     Type
  2354 ;;                  1    wreg      void 
  2355 ;; Registers used:
  2356 ;;		wreg, status,2, status,0, btemp+1, pclath, cstack
  2357 ;; Tracked objects:
  2358 ;;		On entry : 0/0
  2359 ;;		On exit  : 0/0
  2360 ;;		Unchanged: 0/0
  2361 ;; Data sizes:     COMMON   BANK0   BANK1   BANK3   BANK2
  2362 ;;      Params:         0       0       0       0       0
  2363 ;;      Locals:         1       0       0       0       0
  2364 ;;      Temps:          0       0       0       0       0
  2365 ;;      Totals:         1       0       0       0       0
  2366 ;;Total ram usage:        1 bytes
  2367 ;; Hardware stack levels used:    1
  2368 ;; Hardware stack levels required when called:    3
  2369 ;; This function calls:
  2370 ;;		_lcd8_write
  2371 ;; This function is called by:
  2372 ;;		_main
  2373 ;; This function uses a non-reentrant model
  2374 ;;
  2375                           
  2376                           
  2377                           ;psect for function _lcd8_dispChar
  2378  06B8                     _lcd8_dispChar:	
  2379                           
  2380                           ;incstack = 0
  2381                           ; Regs used in _lcd8_dispChar: [wreg+status,2+status,0+btemp+1+pclath+cstack]
  2382                           ;lcd8_dispChar@val_num stored from wreg
  2383  06B8  00F6               	movwf	lcd8_dispChar@val_num
  2384  06B9                     l1442:	
  2385                           
  2386                           ;LCD.c: 59:     lcd8_write(val_num + 0x30);
  2387  06B9  0876               	movf	lcd8_dispChar@val_num,w
  2388  06BA  3E30               	addlw	48
  2389  06BB  00F4               	movwf	lcd8_write@dat
  2390  06BC  3000               	movlw	0
  2391  06BD  1803               	skipnc
  2392  06BE  3001               	movlw	1
  2393  06BF  00F5               	movwf	lcd8_write@dat+1
  2394  06C0  120A  118A  26A8  120A  118A  	fcall	_lcd8_write
  2395  06C5                     l223:	
  2396  06C5  0008               	return
  2397  06C6                     __end_of_lcd8_dispChar:	
  2398                           
  2399                           	psect	text11
  2400  06A8                     __ptext11:	
  2401 ;; *************** function _lcd8_write *****************
  2402 ;; Defined at:
  2403 ;;		line 43 in file "LCD.c"
  2404 ;; Parameters:    Size  Location     Type
  2405 ;;  dat             2    4[COMMON] unsigned int 
  2406 ;; Auto vars:     Size  Location     Type
  2407 ;;		None
  2408 ;; Return value:  Size  Location     Type
  2409 ;;                  1    wreg      void 
  2410 ;; Registers used:
  2411 ;;		wreg, status,2, status,0, btemp+1, pclath, cstack
  2412 ;; Tracked objects:
  2413 ;;		On entry : 0/0
  2414 ;;		On exit  : 0/0
  2415 ;;		Unchanged: 0/0
  2416 ;; Data sizes:     COMMON   BANK0   BANK1   BANK3   BANK2
  2417 ;;      Params:         2       0       0       0       0
  2418 ;;      Locals:         0       0       0       0       0
  2419 ;;      Temps:          0       0       0       0       0
  2420 ;;      Totals:         2       0       0       0       0
  2421 ;;Total ram usage:        2 bytes
  2422 ;; Hardware stack levels used:    1
  2423 ;; Hardware stack levels required when called:    2
  2424 ;; This function calls:
  2425 ;;		_delay_1ms
  2426 ;; This function is called by:
  2427 ;;		_lcd8_dispString
  2428 ;;		_lcd8_dispChar
  2429 ;; This function uses a non-reentrant model
  2430 ;;
  2431                           
  2432                           
  2433                           ;psect for function _lcd8_write
  2434  06A8                     _lcd8_write:	
  2435  06A8                     l1414:	
  2436                           ;incstack = 0
  2437                           ; Regs used in _lcd8_write: [wreg+status,2+status,0+btemp+1+pclath+cstack]
  2438                           
  2439                           
  2440                           ;LCD.c: 44:     PORTA = dat;
  2441  06A8  0874               	movf	lcd8_write@dat,w
  2442  06A9  1283               	bcf	3,5	;RP0=0, select bank0
  2443  06AA  1303               	bcf	3,6	;RP1=0, select bank0
  2444  06AB  0085               	movwf	5	;volatile
  2445  06AC                     l1416:	
  2446                           
  2447                           ;LCD.c: 45:     PORTEbits.RE0 = 1;
  2448  06AC  1409               	bsf	9,0	;volatile
  2449  06AD                     l1418:	
  2450                           
  2451                           ;LCD.c: 46:     PORTEbits.RE1 = 0;
  2452  06AD  1089               	bcf	9,1	;volatile
  2453  06AE                     l1420:	
  2454                           
  2455                           ;LCD.c: 47:     PORTEbits.RE2 = 1;
  2456  06AE  1509               	bsf	9,2	;volatile
  2457  06AF                     l1422:	
  2458                           
  2459                           ;LCD.c: 48:     delay_1ms();
  2460  06AF  120A  118A  266D  120A  118A  	fcall	_delay_1ms
  2461  06B4                     l1424:	
  2462                           
  2463                           ;LCD.c: 49:     PORTEbits.RE2 = 0;
  2464  06B4  1283               	bcf	3,5	;RP0=0, select bank0
  2465  06B5  1303               	bcf	3,6	;RP1=0, select bank0
  2466  06B6  1109               	bcf	9,2	;volatile
  2467  06B7                     l214:	
  2468  06B7  0008               	return
  2469  06B8                     __end_of_lcd8_write:	
  2470                           
  2471                           	psect	text12
  2472  066D                     __ptext12:	
  2473 ;; *************** function _delay_1ms *****************
  2474 ;; Defined at:
  2475 ;;		line 71 in file "LCD.c"
  2476 ;; Parameters:    Size  Location     Type
  2477 ;;		None
  2478 ;; Auto vars:     Size  Location     Type
  2479 ;;  i               2    2[COMMON] int 
  2480 ;; Return value:  Size  Location     Type
  2481 ;;                  1    wreg      void 
  2482 ;; Registers used:
  2483 ;;		wreg, status,2, btemp+1
  2484 ;; Tracked objects:
  2485 ;;		On entry : 0/0
  2486 ;;		On exit  : 0/0
  2487 ;;		Unchanged: 0/0
  2488 ;; Data sizes:     COMMON   BANK0   BANK1   BANK3   BANK2
  2489 ;;      Params:         0       0       0       0       0
  2490 ;;      Locals:         2       0       0       0       0
  2491 ;;      Temps:          0       0       0       0       0
  2492 ;;      Totals:         2       0       0       0       0
  2493 ;;Total ram usage:        2 bytes
  2494 ;; Hardware stack levels used:    1
  2495 ;; Hardware stack levels required when called:    1
  2496 ;; This function calls:
  2497 ;;		Nothing
  2498 ;; This function is called by:
  2499 ;;		_main
  2500 ;;		_lcd8_cmd
  2501 ;;		_lcd8_write
  2502 ;; This function uses a non-reentrant model
  2503 ;;
  2504                           
  2505                           
  2506                           ;psect for function _delay_1ms
  2507  066D                     _delay_1ms:	
  2508  066D                     l826:	
  2509                           ;incstack = 0
  2510                           ; Regs used in _delay_1ms: [wreg+status,2+btemp+1]
  2511                           
  2512                           
  2513                           ;LCD.c: 72:     for (int i = 0; i < 50; i++);
  2514  066D  01F2               	clrf	delay_1ms@i
  2515  066E  01F3               	clrf	delay_1ms@i+1
  2516  066F                     l832:	
  2517  066F  3001               	movlw	1
  2518  0670  07F2               	addwf	delay_1ms@i,f
  2519  0671  1803               	skipnc
  2520  0672  0AF3               	incf	delay_1ms@i+1,f
  2521  0673  3000               	movlw	0
  2522  0674  07F3               	addwf	delay_1ms@i+1,f
  2523  0675                     l834:	
  2524  0675  0873               	movf	delay_1ms@i+1,w
  2525  0676  3A80               	xorlw	128
  2526  0677  00FF               	movwf	btemp+1
  2527  0678  3080               	movlw	128
  2528  0679  027F               	subwf	btemp+1,w
  2529  067A  1D03               	skipz
  2530  067B  2E7E               	goto	u15
  2531  067C  3032               	movlw	50
  2532  067D  0272               	subwf	delay_1ms@i,w
  2533  067E                     u15:	
  2534  067E  1C03               	skipc
  2535  067F  2E81               	goto	u11
  2536  0680  2E82               	goto	u10
  2537  0681                     u11:	
  2538  0681  2E6F               	goto	l832
  2539  0682                     u10:	
  2540  0682                     l234:	
  2541  0682  0008               	return
  2542  0683                     __end_of_delay_1ms:	
  2543                           
  2544                           	psect	text13
  2545  033A                     __ptext13:	
  2546 ;; *************** function ___xxtofl *****************
  2547 ;; Defined at:
  2548 ;;		line 10 in file "C:\Program Files (x86)\Microchip\xc8\v2.10\pic\sources\c90\common\xxtofl.c"
  2549 ;; Parameters:    Size  Location     Type
  2550 ;;  sign            1    wreg     unsigned char 
  2551 ;;  val             4    2[COMMON] long 
  2552 ;; Auto vars:     Size  Location     Type
  2553 ;;  sign            1    0[BANK0 ] unsigned char 
  2554 ;;  arg             4    2[BANK0 ] unsigned long 
  2555 ;;  exp             1    1[BANK0 ] unsigned char 
  2556 ;; Return value:  Size  Location     Type
  2557 ;;                  4    2[COMMON] unsigned char 
  2558 ;; Registers used:
  2559 ;;		wreg, status,2, status,0
  2560 ;; Tracked objects:
  2561 ;;		On entry : 0/0
  2562 ;;		On exit  : 0/0
  2563 ;;		Unchanged: 0/0
  2564 ;; Data sizes:     COMMON   BANK0   BANK1   BANK3   BANK2
  2565 ;;      Params:         4       0       0       0       0
  2566 ;;      Locals:         0       6       0       0       0
  2567 ;;      Temps:          4       0       0       0       0
  2568 ;;      Totals:         8       6       0       0       0
  2569 ;;Total ram usage:       14 bytes
  2570 ;; Hardware stack levels used:    1
  2571 ;; Hardware stack levels required when called:    1
  2572 ;; This function calls:
  2573 ;;		Nothing
  2574 ;; This function is called by:
  2575 ;;		_main
  2576 ;; This function uses a non-reentrant model
  2577 ;;
  2578                           
  2579                           
  2580                           ;psect for function ___xxtofl
  2581  033A                     ___xxtofl:	
  2582                           
  2583                           ;incstack = 0
  2584                           ; Regs used in ___xxtofl: [wreg+status,2+status,0]
  2585                           ;___xxtofl@sign stored from wreg
  2586  033A  1283               	bcf	3,5	;RP0=0, select bank0
  2587  033B  1303               	bcf	3,6	;RP1=0, select bank0
  2588  033C  00A0               	movwf	___xxtofl@sign
  2589  033D                     l1704:	
  2590  033D  0820               	movf	___xxtofl@sign,w
  2591  033E  1903               	btfsc	3,2
  2592  033F  2B41               	goto	u1441
  2593  0340  2B42               	goto	u1440
  2594  0341                     u1441:	
  2595  0341  2B56               	goto	l1710
  2596  0342                     u1440:	
  2597  0342                     l1706:	
  2598  0342  1FF5               	btfss	___xxtofl@val+3,7
  2599  0343  2B45               	goto	u1451
  2600  0344  2B46               	goto	u1450
  2601  0345                     u1451:	
  2602  0345  2B56               	goto	l1710
  2603  0346                     u1450:	
  2604  0346                     l1708:	
  2605  0346  0972               	comf	___xxtofl@val,w
  2606  0347  00A2               	movwf	___xxtofl@arg
  2607  0348  0973               	comf	___xxtofl@val+1,w
  2608  0349  00A3               	movwf	___xxtofl@arg+1
  2609  034A  0974               	comf	___xxtofl@val+2,w
  2610  034B  00A4               	movwf	___xxtofl@arg+2
  2611  034C  0975               	comf	___xxtofl@val+3,w
  2612  034D  00A5               	movwf	___xxtofl@arg+3
  2613  034E  0AA2               	incf	___xxtofl@arg,f
  2614  034F  1903               	skipnz
  2615  0350  0AA3               	incf	___xxtofl@arg+1,f
  2616  0351  1903               	skipnz
  2617  0352  0AA4               	incf	___xxtofl@arg+2,f
  2618  0353  1903               	skipnz
  2619  0354  0AA5               	incf	___xxtofl@arg+3,f
  2620  0355  2B5E               	goto	l747
  2621  0356                     l1710:	
  2622  0356  0875               	movf	___xxtofl@val+3,w
  2623  0357  00A5               	movwf	___xxtofl@arg+3
  2624  0358  0874               	movf	___xxtofl@val+2,w
  2625  0359  00A4               	movwf	___xxtofl@arg+2
  2626  035A  0873               	movf	___xxtofl@val+1,w
  2627  035B  00A3               	movwf	___xxtofl@arg+1
  2628  035C  0872               	movf	___xxtofl@val,w
  2629  035D  00A2               	movwf	___xxtofl@arg
  2630  035E                     l747:	
  2631  035E  0875               	movf	___xxtofl@val+3,w
  2632  035F  0474               	iorwf	___xxtofl@val+2,w
  2633  0360  0473               	iorwf	___xxtofl@val+1,w
  2634  0361  0472               	iorwf	___xxtofl@val,w
  2635  0362  1D03               	skipz
  2636  0363  2B65               	goto	u1461
  2637  0364  2B66               	goto	u1460
  2638  0365                     u1461:	
  2639  0365  2B6F               	goto	l1716
  2640  0366                     u1460:	
  2641  0366                     l1712:	
  2642  0366  3000               	movlw	0
  2643  0367  00F5               	movwf	?___xxtofl+3
  2644  0368  3000               	movlw	0
  2645  0369  00F4               	movwf	?___xxtofl+2
  2646  036A  3000               	movlw	0
  2647  036B  00F3               	movwf	?___xxtofl+1
  2648  036C  3000               	movlw	0
  2649  036D  00F2               	movwf	?___xxtofl
  2650  036E  2BF5               	goto	l749
  2651  036F                     l1716:	
  2652  036F  3096               	movlw	150
  2653  0370  00F6               	movwf	??___xxtofl
  2654  0371  0876               	movf	??___xxtofl,w
  2655  0372  00A1               	movwf	___xxtofl@exp
  2656  0373  2B81               	goto	l1720
  2657  0374                     l1718:	
  2658  0374  3001               	movlw	1
  2659  0375  00F6               	movwf	??___xxtofl
  2660  0376  0876               	movf	??___xxtofl,w
  2661  0377  07A1               	addwf	___xxtofl@exp,f
  2662  0378  3001               	movlw	1
  2663  0379                     u1475:	
  2664  0379  1003               	clrc
  2665  037A  0CA5               	rrf	___xxtofl@arg+3,f
  2666  037B  0CA4               	rrf	___xxtofl@arg+2,f
  2667  037C  0CA3               	rrf	___xxtofl@arg+1,f
  2668  037D  0CA2               	rrf	___xxtofl@arg,f
  2669  037E  3EFF               	addlw	-1
  2670  037F  1D03               	skipz
  2671  0380  2B79               	goto	u1475
  2672  0381                     l1720:	
  2673  0381  30FE               	movlw	254
  2674  0382  0525               	andwf	___xxtofl@arg+3,w
  2675  0383  1D03               	btfss	3,2
  2676  0384  2B86               	goto	u1481
  2677  0385  2B87               	goto	u1480
  2678  0386                     u1481:	
  2679  0386  2B74               	goto	l1718
  2680  0387                     u1480:	
  2681  0387  2BA3               	goto	l753
  2682  0388                     l1722:	
  2683  0388  3001               	movlw	1
  2684  0389  00F6               	movwf	??___xxtofl
  2685  038A  0876               	movf	??___xxtofl,w
  2686  038B  07A1               	addwf	___xxtofl@exp,f
  2687  038C                     l1724:	
  2688  038C  3001               	movlw	1
  2689  038D  07A2               	addwf	___xxtofl@arg,f
  2690  038E  3000               	movlw	0
  2691  038F  1803               	skipnc
  2692  0390  3001               	movlw	1
  2693  0391  07A3               	addwf	___xxtofl@arg+1,f
  2694  0392  3000               	movlw	0
  2695  0393  1803               	skipnc
  2696  0394  3001               	movlw	1
  2697  0395  07A4               	addwf	___xxtofl@arg+2,f
  2698  0396  3000               	movlw	0
  2699  0397  1803               	skipnc
  2700  0398  3001               	movlw	1
  2701  0399  07A5               	addwf	___xxtofl@arg+3,f
  2702  039A                     l1726:	
  2703  039A  3001               	movlw	1
  2704  039B                     u1495:	
  2705  039B  1003               	clrc
  2706  039C  0CA5               	rrf	___xxtofl@arg+3,f
  2707  039D  0CA4               	rrf	___xxtofl@arg+2,f
  2708  039E  0CA3               	rrf	___xxtofl@arg+1,f
  2709  039F  0CA2               	rrf	___xxtofl@arg,f
  2710  03A0  3EFF               	addlw	-1
  2711  03A1  1D03               	skipz
  2712  03A2  2B9B               	goto	u1495
  2713  03A3                     l753:	
  2714  03A3  30FF               	movlw	255
  2715  03A4  0525               	andwf	___xxtofl@arg+3,w
  2716  03A5  1D03               	btfss	3,2
  2717  03A6  2BA8               	goto	u1501
  2718  03A7  2BA9               	goto	u1500
  2719  03A8                     u1501:	
  2720  03A8  2B88               	goto	l1722
  2721  03A9                     u1500:	
  2722  03A9  2BB5               	goto	l1730
  2723  03AA                     l1728:	
  2724  03AA  3001               	movlw	1
  2725  03AB  02A1               	subwf	___xxtofl@exp,f
  2726  03AC  3001               	movlw	1
  2727  03AD  00F6               	movwf	??___xxtofl
  2728  03AE                     u1515:	
  2729  03AE  1003               	clrc
  2730  03AF  0DA2               	rlf	___xxtofl@arg,f
  2731  03B0  0DA3               	rlf	___xxtofl@arg+1,f
  2732  03B1  0DA4               	rlf	___xxtofl@arg+2,f
  2733  03B2  0DA5               	rlf	___xxtofl@arg+3,f
  2734  03B3  0BF6               	decfsz	??___xxtofl,f
  2735  03B4  2BAE               	goto	u1515
  2736  03B5                     l1730:	
  2737  03B5  1BA4               	btfsc	___xxtofl@arg+2,7
  2738  03B6  2BB8               	goto	u1521
  2739  03B7  2BB9               	goto	u1520
  2740  03B8                     u1521:	
  2741  03B8  2BBF               	goto	l760
  2742  03B9                     u1520:	
  2743  03B9                     l1732:	
  2744  03B9  3002               	movlw	2
  2745  03BA  0221               	subwf	___xxtofl@exp,w
  2746  03BB  1803               	skipnc
  2747  03BC  2BBE               	goto	u1531
  2748  03BD  2BBF               	goto	u1530
  2749  03BE                     u1531:	
  2750  03BE  2BAA               	goto	l1728
  2751  03BF                     u1530:	
  2752  03BF                     l760:	
  2753  03BF  1821               	btfsc	___xxtofl@exp,0
  2754  03C0  2BC2               	goto	u1541
  2755  03C1  2BC3               	goto	u1540
  2756  03C2                     u1541:	
  2757  03C2  2BCB               	goto	l761
  2758  03C3                     u1540:	
  2759  03C3                     l1734:	
  2760  03C3  30FF               	movlw	255
  2761  03C4  05A2               	andwf	___xxtofl@arg,f
  2762  03C5  30FF               	movlw	255
  2763  03C6  05A3               	andwf	___xxtofl@arg+1,f
  2764  03C7  307F               	movlw	127
  2765  03C8  05A4               	andwf	___xxtofl@arg+2,f
  2766  03C9  30FF               	movlw	255
  2767  03CA  05A5               	andwf	___xxtofl@arg+3,f
  2768  03CB                     l761:	
  2769  03CB  1003               	clrc
  2770  03CC  0CA1               	rrf	___xxtofl@exp,f
  2771  03CD                     l1736:	
  2772  03CD  0821               	movf	___xxtofl@exp,w
  2773  03CE  00F6               	movwf	??___xxtofl
  2774  03CF  01F7               	clrf	??___xxtofl+1
  2775  03D0  01F8               	clrf	??___xxtofl+2
  2776  03D1  01F9               	clrf	??___xxtofl+3
  2777  03D2  3018               	movlw	24
  2778  03D3                     u1555:	
  2779  03D3  1003               	clrc
  2780  03D4  0DF6               	rlf	??___xxtofl,f
  2781  03D5  0DF7               	rlf	??___xxtofl+1,f
  2782  03D6  0DF8               	rlf	??___xxtofl+2,f
  2783  03D7  0DF9               	rlf	??___xxtofl+3,f
  2784  03D8                     u1550:	
  2785  03D8  3EFF               	addlw	-1
  2786  03D9  1D03               	skipz
  2787  03DA  2BD3               	goto	u1555
  2788  03DB  0876               	movf	??___xxtofl,w
  2789  03DC  04A2               	iorwf	___xxtofl@arg,f
  2790  03DD  0877               	movf	??___xxtofl+1,w
  2791  03DE  04A3               	iorwf	___xxtofl@arg+1,f
  2792  03DF  0878               	movf	??___xxtofl+2,w
  2793  03E0  04A4               	iorwf	___xxtofl@arg+2,f
  2794  03E1  0879               	movf	??___xxtofl+3,w
  2795  03E2  04A5               	iorwf	___xxtofl@arg+3,f
  2796  03E3                     l1738:	
  2797  03E3  0820               	movf	___xxtofl@sign,w
  2798  03E4  1903               	btfsc	3,2
  2799  03E5  2BE7               	goto	u1561
  2800  03E6  2BE8               	goto	u1560
  2801  03E7                     u1561:	
  2802  03E7  2BED               	goto	l1744
  2803  03E8                     u1560:	
  2804  03E8                     l1740:	
  2805  03E8  1FF5               	btfss	___xxtofl@val+3,7
  2806  03E9  2BEB               	goto	u1571
  2807  03EA  2BEC               	goto	u1570
  2808  03EB                     u1571:	
  2809  03EB  2BED               	goto	l1744
  2810  03EC                     u1570:	
  2811  03EC                     l1742:	
  2812  03EC  17A5               	bsf	___xxtofl@arg+3,7
  2813  03ED                     l1744:	
  2814  03ED  0825               	movf	___xxtofl@arg+3,w
  2815  03EE  00F5               	movwf	?___xxtofl+3
  2816  03EF  0824               	movf	___xxtofl@arg+2,w
  2817  03F0  00F4               	movwf	?___xxtofl+2
  2818  03F1  0823               	movf	___xxtofl@arg+1,w
  2819  03F2  00F3               	movwf	?___xxtofl+1
  2820  03F3  0822               	movf	___xxtofl@arg,w
  2821  03F4  00F2               	movwf	?___xxtofl
  2822  03F5                     l749:	
  2823  03F5  0008               	return
  2824  03F6                     __end_of___xxtofl:	
  2825                           
  2826                           	psect	text14
  2827  03F6                     __ptext14:	
  2828 ;; *************** function ___fltol *****************
  2829 ;; Defined at:
  2830 ;;		line 43 in file "C:\Program Files (x86)\Microchip\xc8\v2.10\pic\sources\c90\common\fltol.c"
  2831 ;; Parameters:    Size  Location     Type
  2832 ;;  f1              4   32[BANK0 ] unsigned char 
  2833 ;; Auto vars:     Size  Location     Type
  2834 ;;  exp1            1   42[BANK0 ] unsigned char 
  2835 ;;  sign1           1   41[BANK0 ] unsigned char 
  2836 ;; Return value:  Size  Location     Type
  2837 ;;                  4   32[BANK0 ] long 
  2838 ;; Registers used:
  2839 ;;		wreg, status,2, status,0
  2840 ;; Tracked objects:
  2841 ;;		On entry : 0/0
  2842 ;;		On exit  : 0/0
  2843 ;;		Unchanged: 0/0
  2844 ;; Data sizes:     COMMON   BANK0   BANK1   BANK3   BANK2
  2845 ;;      Params:         0       4       0       0       0
  2846 ;;      Locals:         0       2       0       0       0
  2847 ;;      Temps:          0       5       0       0       0
  2848 ;;      Totals:         0      11       0       0       0
  2849 ;;Total ram usage:       11 bytes
  2850 ;; Hardware stack levels used:    1
  2851 ;; Hardware stack levels required when called:    1
  2852 ;; This function calls:
  2853 ;;		Nothing
  2854 ;; This function is called by:
  2855 ;;		_main
  2856 ;; This function uses a non-reentrant model
  2857 ;;
  2858                           
  2859                           
  2860                           ;psect for function ___fltol
  2861  03F6                     ___fltol:	
  2862  03F6                     l1900:	
  2863                           ;incstack = 0
  2864                           ; Regs used in ___fltol: [wreg+status,2+status,0]
  2865                           
  2866  03F6  1003               	clrc
  2867  03F7  1283               	bcf	3,5	;RP0=0, select bank0
  2868  03F8  1303               	bcf	3,6	;RP1=0, select bank0
  2869  03F9  0D42               	rlf	___fltol@f1+2,w
  2870  03FA  0D43               	rlf	___fltol@f1+3,w
  2871  03FB  00C4               	movwf	??___fltol
  2872  03FC  0844               	movf	??___fltol,w
  2873  03FD  00CA               	movwf	___fltol@exp1
  2874  03FE  084A               	movf	___fltol@exp1,w
  2875  03FF  1D03               	btfss	3,2
  2876  0400  2C02               	goto	u1701
  2877  0401  2C03               	goto	u1700
  2878  0402                     u1701:	
  2879  0402  2C0C               	goto	l1906
  2880  0403                     u1700:	
  2881  0403                     l1902:	
  2882  0403  3000               	movlw	0
  2883  0404  00C3               	movwf	?___fltol+3
  2884  0405  3000               	movlw	0
  2885  0406  00C2               	movwf	?___fltol+2
  2886  0407  3000               	movlw	0
  2887  0408  00C1               	movwf	?___fltol+1
  2888  0409  3000               	movlw	0
  2889  040A  00C0               	movwf	?___fltol
  2890  040B  2C71               	goto	l506
  2891  040C                     l1906:	
  2892  040C  0840               	movf	___fltol@f1,w
  2893  040D  00C4               	movwf	??___fltol
  2894  040E  0841               	movf	___fltol@f1+1,w
  2895  040F  00C5               	movwf	??___fltol+1
  2896  0410  0842               	movf	___fltol@f1+2,w
  2897  0411  00C6               	movwf	??___fltol+2
  2898  0412  0843               	movf	___fltol@f1+3,w
  2899  0413  00C7               	movwf	??___fltol+3
  2900  0414  301F               	movlw	31
  2901  0415                     u1715:	
  2902  0415  1003               	clrc
  2903  0416  0CC7               	rrf	??___fltol+3,f
  2904  0417  0CC6               	rrf	??___fltol+2,f
  2905  0418  0CC5               	rrf	??___fltol+1,f
  2906  0419  0CC4               	rrf	??___fltol,f
  2907  041A                     u1710:	
  2908  041A  3EFF               	addlw	-1
  2909  041B  1D03               	skipz
  2910  041C  2C15               	goto	u1715
  2911  041D  0844               	movf	??___fltol,w
  2912  041E  00C8               	movwf	??___fltol+4
  2913  041F  0848               	movf	??___fltol+4,w
  2914  0420  00C9               	movwf	___fltol@sign1
  2915  0421                     l1908:	
  2916  0421  17C2               	bsf	___fltol@f1+2,7
  2917  0422                     l1910:	
  2918  0422  30FF               	movlw	255
  2919  0423  05C0               	andwf	___fltol@f1,f
  2920  0424  30FF               	movlw	255
  2921  0425  05C1               	andwf	___fltol@f1+1,f
  2922  0426  30FF               	movlw	255
  2923  0427  05C2               	andwf	___fltol@f1+2,f
  2924  0428  3000               	movlw	0
  2925  0429  05C3               	andwf	___fltol@f1+3,f
  2926  042A                     l1912:	
  2927  042A  3096               	movlw	150
  2928  042B  02CA               	subwf	___fltol@exp1,f
  2929  042C                     l1914:	
  2930  042C  1FCA               	btfss	___fltol@exp1,7
  2931  042D  2C2F               	goto	u1721
  2932  042E  2C30               	goto	u1720
  2933  042F                     u1721:	
  2934  042F  2C4A               	goto	l1924
  2935  0430                     u1720:	
  2936  0430                     l1916:	
  2937  0430  084A               	movf	___fltol@exp1,w
  2938  0431  3A80               	xorlw	128
  2939  0432  3E97               	addlw	151
  2940  0433  1803               	skipnc
  2941  0434  2C36               	goto	u1731
  2942  0435  2C37               	goto	u1730
  2943  0436                     u1731:	
  2944  0436  2C38               	goto	l1922
  2945  0437                     u1730:	
  2946  0437  2C03               	goto	l1902
  2947  0438                     l1922:	
  2948  0438  3001               	movlw	1
  2949  0439                     u1745:	
  2950  0439  1003               	clrc
  2951  043A  0CC3               	rrf	___fltol@f1+3,f
  2952  043B  0CC2               	rrf	___fltol@f1+2,f
  2953  043C  0CC1               	rrf	___fltol@f1+1,f
  2954  043D  0CC0               	rrf	___fltol@f1,f
  2955  043E  3EFF               	addlw	-1
  2956  043F  1D03               	skipz
  2957  0440  2C39               	goto	u1745
  2958  0441  3001               	movlw	1
  2959  0442  00C4               	movwf	??___fltol
  2960  0443  0844               	movf	??___fltol,w
  2961  0444  07CA               	addwf	___fltol@exp1,f
  2962  0445  1D03               	btfss	3,2
  2963  0446  2C48               	goto	u1751
  2964  0447  2C49               	goto	u1750
  2965  0448                     u1751:	
  2966  0448  2C38               	goto	l1922
  2967  0449                     u1750:	
  2968  0449  2C61               	goto	l1932
  2969  044A                     l1924:	
  2970  044A  3020               	movlw	32
  2971  044B  024A               	subwf	___fltol@exp1,w
  2972  044C  1C03               	skipc
  2973  044D  2C4F               	goto	u1761
  2974  044E  2C50               	goto	u1760
  2975  044F                     u1761:	
  2976  044F  2C5C               	goto	l513
  2977  0450                     u1760:	
  2978  0450  2C03               	goto	l1902
  2979  0451                     l1930:	
  2980  0451  3001               	movlw	1
  2981  0452  00C4               	movwf	??___fltol
  2982  0453                     u1775:	
  2983  0453  1003               	clrc
  2984  0454  0DC0               	rlf	___fltol@f1,f
  2985  0455  0DC1               	rlf	___fltol@f1+1,f
  2986  0456  0DC2               	rlf	___fltol@f1+2,f
  2987  0457  0DC3               	rlf	___fltol@f1+3,f
  2988  0458  0BC4               	decfsz	??___fltol,f
  2989  0459  2C53               	goto	u1775
  2990  045A  3001               	movlw	1
  2991  045B  02CA               	subwf	___fltol@exp1,f
  2992  045C                     l513:	
  2993  045C  084A               	movf	___fltol@exp1,w
  2994  045D  1D03               	btfss	3,2
  2995  045E  2C60               	goto	u1781
  2996  045F  2C61               	goto	u1780
  2997  0460                     u1781:	
  2998  0460  2C51               	goto	l1930
  2999  0461                     u1780:	
  3000  0461                     l1932:	
  3001  0461  0849               	movf	___fltol@sign1,w
  3002  0462  1903               	btfsc	3,2
  3003  0463  2C65               	goto	u1791
  3004  0464  2C66               	goto	u1790
  3005  0465                     u1791:	
  3006  0465  2C71               	goto	l516
  3007  0466                     u1790:	
  3008  0466                     l1934:	
  3009  0466  09C0               	comf	___fltol@f1,f
  3010  0467  09C1               	comf	___fltol@f1+1,f
  3011  0468  09C2               	comf	___fltol@f1+2,f
  3012  0469  09C3               	comf	___fltol@f1+3,f
  3013  046A  0AC0               	incf	___fltol@f1,f
  3014  046B  1903               	skipnz
  3015  046C  0AC1               	incf	___fltol@f1+1,f
  3016  046D  1903               	skipnz
  3017  046E  0AC2               	incf	___fltol@f1+2,f
  3018  046F  1903               	skipnz
  3019  0470  0AC3               	incf	___fltol@f1+3,f
  3020  0471                     l516:	
  3021  0471                     l506:	
  3022  0471  0008               	return
  3023  0472                     __end_of___fltol:	
  3024                           
  3025                           	psect	text15
  3026  0015                     __ptext15:	
  3027 ;; *************** function ___fldiv *****************
  3028 ;; Defined at:
  3029 ;;		line 8 in file "C:\Program Files (x86)\Microchip\xc8\v2.10\pic\sources\c90\common\sprcdiv.c"
  3030 ;; Parameters:    Size  Location     Type
  3031 ;;  a               4    6[BANK0 ] long 
  3032 ;;  b               4   10[BANK0 ] long 
  3033 ;; Auto vars:     Size  Location     Type
  3034 ;;  grs             4   26[BANK0 ] unsigned long 
  3035 ;;  rem             4   19[BANK0 ] unsigned long 
  3036 ;;  new_exp         2   24[BANK0 ] int 
  3037 ;;  aexp            1   31[BANK0 ] unsigned char 
  3038 ;;  bexp            1   30[BANK0 ] unsigned char 
  3039 ;;  sign            1   23[BANK0 ] unsigned char 
  3040 ;; Return value:  Size  Location     Type
  3041 ;;                  4    6[BANK0 ] unsigned char 
  3042 ;; Registers used:
  3043 ;;		wreg, status,2, status,0, btemp+1
  3044 ;; Tracked objects:
  3045 ;;		On entry : 0/0
  3046 ;;		On exit  : 0/0
  3047 ;;		Unchanged: 0/0
  3048 ;; Data sizes:     COMMON   BANK0   BANK1   BANK3   BANK2
  3049 ;;      Params:         0       8       0       0       0
  3050 ;;      Locals:         0      13       0       0       0
  3051 ;;      Temps:          0       5       0       0       0
  3052 ;;      Totals:         0      26       0       0       0
  3053 ;;Total ram usage:       26 bytes
  3054 ;; Hardware stack levels used:    1
  3055 ;; Hardware stack levels required when called:    1
  3056 ;; This function calls:
  3057 ;;		Nothing
  3058 ;; This function is called by:
  3059 ;;		_main
  3060 ;; This function uses a non-reentrant model
  3061 ;;
  3062                           
  3063                           
  3064                           ;psect for function ___fldiv
  3065  0015                     ___fldiv:	
  3066  0015                     l1562:	
  3067                           ;incstack = 0
  3068                           ; Regs used in ___fldiv: [wreg+status,2+status,0+btemp+1]
  3069                           
  3070  0015  1283               	bcf	3,5	;RP0=0, select bank0
  3071  0016  1303               	bcf	3,6	;RP1=0, select bank0
  3072  0017  082D               	movf	___fldiv@b+3,w
  3073  0018  3980               	andlw	128
  3074  0019  00AE               	movwf	??___fldiv
  3075  001A  082E               	movf	??___fldiv,w
  3076  001B  00B7               	movwf	___fldiv@sign
  3077  001C                     l1564:	
  3078  001C  082D               	movf	___fldiv@b+3,w
  3079  001D  00AE               	movwf	??___fldiv
  3080  001E  072E               	addwf	??___fldiv,w
  3081  001F  00AF               	movwf	??___fldiv+1
  3082  0020  082F               	movf	??___fldiv+1,w
  3083  0021  00BE               	movwf	___fldiv@bexp
  3084  0022                     l1566:	
  3085  0022  1FAC               	btfss	___fldiv@b+2,7
  3086  0023  2825               	goto	u1151
  3087  0024  2826               	goto	u1150
  3088  0025                     u1151:	
  3089  0025  2827               	goto	l1570
  3090  0026                     u1150:	
  3091  0026                     l1568:	
  3092  0026  143E               	bsf	___fldiv@bexp,0
  3093  0027                     l1570:	
  3094  0027  083E               	movf	___fldiv@bexp,w
  3095  0028  1903               	btfsc	3,2
  3096  0029  282B               	goto	u1161
  3097  002A  282C               	goto	u1160
  3098  002B                     u1161:	
  3099  002B  283C               	goto	l1580
  3100  002C                     u1160:	
  3101  002C                     l1572:	
  3102  002C  0A3E               	incf	___fldiv@bexp,w
  3103  002D  1D03               	btfss	3,2
  3104  002E  2830               	goto	u1171
  3105  002F  2831               	goto	u1170
  3106  0030                     u1171:	
  3107  0030  2839               	goto	l1576
  3108  0031                     u1170:	
  3109  0031                     l1574:	
  3110  0031  3000               	movlw	0
  3111  0032  00AD               	movwf	___fldiv@b+3
  3112  0033  3000               	movlw	0
  3113  0034  00AC               	movwf	___fldiv@b+2
  3114  0035  3000               	movlw	0
  3115  0036  00AB               	movwf	___fldiv@b+1
  3116  0037  3000               	movlw	0
  3117  0038  00AA               	movwf	___fldiv@b
  3118  0039                     l1576:	
  3119  0039  17AC               	bsf	___fldiv@b+2,7
  3120  003A                     l1578:	
  3121  003A  01AD               	clrf	___fldiv@b+3
  3122  003B  2844               	goto	l1582
  3123  003C                     l1580:	
  3124  003C  3000               	movlw	0
  3125  003D  00AD               	movwf	___fldiv@b+3
  3126  003E  3000               	movlw	0
  3127  003F  00AC               	movwf	___fldiv@b+2
  3128  0040  3000               	movlw	0
  3129  0041  00AB               	movwf	___fldiv@b+1
  3130  0042  3000               	movlw	0
  3131  0043  00AA               	movwf	___fldiv@b
  3132  0044                     l1582:	
  3133  0044  0829               	movf	___fldiv@a+3,w
  3134  0045  3980               	andlw	128
  3135  0046  00AE               	movwf	??___fldiv
  3136  0047  082E               	movf	??___fldiv,w
  3137  0048  06B7               	xorwf	___fldiv@sign,f
  3138  0049                     l1584:	
  3139  0049  0829               	movf	___fldiv@a+3,w
  3140  004A  00AE               	movwf	??___fldiv
  3141  004B  072E               	addwf	??___fldiv,w
  3142  004C  00AF               	movwf	??___fldiv+1
  3143  004D  082F               	movf	??___fldiv+1,w
  3144  004E  00BF               	movwf	___fldiv@aexp
  3145  004F                     l1586:	
  3146  004F  1FA8               	btfss	___fldiv@a+2,7
  3147  0050  2852               	goto	u1181
  3148  0051  2853               	goto	u1180
  3149  0052                     u1181:	
  3150  0052  2854               	goto	l1590
  3151  0053                     u1180:	
  3152  0053                     l1588:	
  3153  0053  143F               	bsf	___fldiv@aexp,0
  3154  0054                     l1590:	
  3155  0054  083F               	movf	___fldiv@aexp,w
  3156  0055  1903               	btfsc	3,2
  3157  0056  2858               	goto	u1191
  3158  0057  2859               	goto	u1190
  3159  0058                     u1191:	
  3160  0058  2869               	goto	l1600
  3161  0059                     u1190:	
  3162  0059                     l1592:	
  3163  0059  0A3F               	incf	___fldiv@aexp,w
  3164  005A  1D03               	btfss	3,2
  3165  005B  285D               	goto	u1201
  3166  005C  285E               	goto	u1200
  3167  005D                     u1201:	
  3168  005D  2866               	goto	l1596
  3169  005E                     u1200:	
  3170  005E                     l1594:	
  3171  005E  3000               	movlw	0
  3172  005F  00A9               	movwf	___fldiv@a+3
  3173  0060  3000               	movlw	0
  3174  0061  00A8               	movwf	___fldiv@a+2
  3175  0062  3000               	movlw	0
  3176  0063  00A7               	movwf	___fldiv@a+1
  3177  0064  3000               	movlw	0
  3178  0065  00A6               	movwf	___fldiv@a
  3179  0066                     l1596:	
  3180  0066  17A8               	bsf	___fldiv@a+2,7
  3181  0067                     l1598:	
  3182  0067  01A9               	clrf	___fldiv@a+3
  3183  0068  2871               	goto	l669
  3184  0069                     l1600:	
  3185  0069  3000               	movlw	0
  3186  006A  00A9               	movwf	___fldiv@a+3
  3187  006B  3000               	movlw	0
  3188  006C  00A8               	movwf	___fldiv@a+2
  3189  006D  3000               	movlw	0
  3190  006E  00A7               	movwf	___fldiv@a+1
  3191  006F  3000               	movlw	0
  3192  0070  00A6               	movwf	___fldiv@a
  3193  0071                     l669:	
  3194  0071  0829               	movf	___fldiv@a+3,w
  3195  0072  0428               	iorwf	___fldiv@a+2,w
  3196  0073  0427               	iorwf	___fldiv@a+1,w
  3197  0074  0426               	iorwf	___fldiv@a,w
  3198  0075  1D03               	skipz
  3199  0076  2878               	goto	u1211
  3200  0077  2879               	goto	u1210
  3201  0078                     u1211:	
  3202  0078  2892               	goto	l1610
  3203  0079                     u1210:	
  3204  0079                     l1602:	
  3205  0079  3000               	movlw	0
  3206  007A  00AD               	movwf	___fldiv@b+3
  3207  007B  3000               	movlw	0
  3208  007C  00AC               	movwf	___fldiv@b+2
  3209  007D  3000               	movlw	0
  3210  007E  00AB               	movwf	___fldiv@b+1
  3211  007F  3000               	movlw	0
  3212  0080  00AA               	movwf	___fldiv@b
  3213  0081  3080               	movlw	128
  3214  0082  04AC               	iorwf	___fldiv@b+2,f
  3215  0083  307F               	movlw	127
  3216  0084  04AD               	iorwf	___fldiv@b+3,f
  3217  0085                     l1604:	
  3218  0085  0837               	movf	___fldiv@sign,w
  3219  0086  00AE               	movwf	??___fldiv
  3220  0087  082E               	movf	??___fldiv,w
  3221  0088  04AD               	iorwf	___fldiv@b+3,f
  3222  0089                     l1606:	
  3223  0089  082D               	movf	___fldiv@b+3,w
  3224  008A  00A9               	movwf	?___fldiv+3
  3225  008B  082C               	movf	___fldiv@b+2,w
  3226  008C  00A8               	movwf	?___fldiv+2
  3227  008D  082B               	movf	___fldiv@b+1,w
  3228  008E  00A7               	movwf	?___fldiv+1
  3229  008F  082A               	movf	___fldiv@b,w
  3230  0090  00A6               	movwf	?___fldiv
  3231  0091  29F1               	goto	l671
  3232  0092                     l1610:	
  3233  0092  083E               	movf	___fldiv@bexp,w
  3234  0093  1D03               	btfss	3,2
  3235  0094  2896               	goto	u1221
  3236  0095  2897               	goto	u1220
  3237  0096                     u1221:	
  3238  0096  28A0               	goto	l1616
  3239  0097                     u1220:	
  3240  0097                     l1612:	
  3241  0097  3000               	movlw	0
  3242  0098  00A9               	movwf	?___fldiv+3
  3243  0099  3000               	movlw	0
  3244  009A  00A8               	movwf	?___fldiv+2
  3245  009B  3000               	movlw	0
  3246  009C  00A7               	movwf	?___fldiv+1
  3247  009D  3000               	movlw	0
  3248  009E  00A6               	movwf	?___fldiv
  3249  009F  29F1               	goto	l671
  3250  00A0                     l1616:	
  3251  00A0  083E               	movf	___fldiv@bexp,w
  3252  00A1  00AE               	movwf	??___fldiv
  3253  00A2  01AF               	clrf	??___fldiv+1
  3254  00A3  082F               	movf	??___fldiv+1,w
  3255  00A4  00B1               	movwf	??___fldiv+3
  3256  00A5  083F               	movf	___fldiv@aexp,w
  3257  00A6  022E               	subwf	??___fldiv,w
  3258  00A7  00B0               	movwf	??___fldiv+2
  3259  00A8  1C03               	skipc
  3260  00A9  03B1               	decf	??___fldiv+3,f
  3261  00AA  0830               	movf	??___fldiv+2,w
  3262  00AB  3E7F               	addlw	127
  3263  00AC  00B8               	movwf	___fldiv@new_exp
  3264  00AD  0831               	movf	??___fldiv+3,w
  3265  00AE  1803               	skipnc
  3266  00AF  3E01               	addlw	1
  3267  00B0  3E00               	addlw	0
  3268  00B1  00B9               	movwf	___fldiv@new_exp+1
  3269  00B2                     l1618:	
  3270  00B2  082D               	movf	___fldiv@b+3,w
  3271  00B3  00B6               	movwf	___fldiv@rem+3
  3272  00B4  082C               	movf	___fldiv@b+2,w
  3273  00B5  00B5               	movwf	___fldiv@rem+2
  3274  00B6  082B               	movf	___fldiv@b+1,w
  3275  00B7  00B4               	movwf	___fldiv@rem+1
  3276  00B8  082A               	movf	___fldiv@b,w
  3277  00B9  00B3               	movwf	___fldiv@rem
  3278  00BA                     l1620:	
  3279  00BA  3000               	movlw	0
  3280  00BB  00AD               	movwf	___fldiv@b+3
  3281  00BC  3000               	movlw	0
  3282  00BD  00AC               	movwf	___fldiv@b+2
  3283  00BE  3000               	movlw	0
  3284  00BF  00AB               	movwf	___fldiv@b+1
  3285  00C0  3000               	movlw	0
  3286  00C1  00AA               	movwf	___fldiv@b
  3287  00C2                     l1622:	
  3288  00C2  3000               	movlw	0
  3289  00C3  00BD               	movwf	___fldiv@grs+3
  3290  00C4  3000               	movlw	0
  3291  00C5  00BC               	movwf	___fldiv@grs+2
  3292  00C6  3000               	movlw	0
  3293  00C7  00BB               	movwf	___fldiv@grs+1
  3294  00C8  3000               	movlw	0
  3295  00C9  00BA               	movwf	___fldiv@grs
  3296  00CA                     l1624:	
  3297  00CA  01BF               	clrf	___fldiv@aexp
  3298  00CB  2916               	goto	l1644
  3299  00CC                     l1626:	
  3300  00CC  083F               	movf	___fldiv@aexp,w
  3301  00CD  1903               	btfsc	3,2
  3302  00CE  28D0               	goto	u1231
  3303  00CF  28D1               	goto	u1230
  3304  00D0                     u1231:	
  3305  00D0  28F1               	goto	l1636
  3306  00D1                     u1230:	
  3307  00D1                     l1628:	
  3308  00D1  3001               	movlw	1
  3309  00D2  00AE               	movwf	??___fldiv
  3310  00D3                     u1245:	
  3311  00D3  1003               	clrc
  3312  00D4  0DB3               	rlf	___fldiv@rem,f
  3313  00D5  0DB4               	rlf	___fldiv@rem+1,f
  3314  00D6  0DB5               	rlf	___fldiv@rem+2,f
  3315  00D7  0DB6               	rlf	___fldiv@rem+3,f
  3316  00D8  0BAE               	decfsz	??___fldiv,f
  3317  00D9  28D3               	goto	u1245
  3318  00DA  3001               	movlw	1
  3319  00DB  00AE               	movwf	??___fldiv
  3320  00DC                     u1255:	
  3321  00DC  1003               	clrc
  3322  00DD  0DAA               	rlf	___fldiv@b,f
  3323  00DE  0DAB               	rlf	___fldiv@b+1,f
  3324  00DF  0DAC               	rlf	___fldiv@b+2,f
  3325  00E0  0DAD               	rlf	___fldiv@b+3,f
  3326  00E1  0BAE               	decfsz	??___fldiv,f
  3327  00E2  28DC               	goto	u1255
  3328  00E3                     l1630:	
  3329  00E3  1FBD               	btfss	___fldiv@grs+3,7
  3330  00E4  28E6               	goto	u1261
  3331  00E5  28E7               	goto	u1260
  3332  00E6                     u1261:	
  3333  00E6  28E8               	goto	l1634
  3334  00E7                     u1260:	
  3335  00E7                     l1632:	
  3336  00E7  142A               	bsf	___fldiv@b,0
  3337  00E8                     l1634:	
  3338  00E8  3001               	movlw	1
  3339  00E9  00AE               	movwf	??___fldiv
  3340  00EA                     u1275:	
  3341  00EA  1003               	clrc
  3342  00EB  0DBA               	rlf	___fldiv@grs,f
  3343  00EC  0DBB               	rlf	___fldiv@grs+1,f
  3344  00ED  0DBC               	rlf	___fldiv@grs+2,f
  3345  00EE  0DBD               	rlf	___fldiv@grs+3,f
  3346  00EF  0BAE               	decfsz	??___fldiv,f
  3347  00F0  28EA               	goto	u1275
  3348  00F1                     l1636:	
  3349  00F1  0829               	movf	___fldiv@a+3,w
  3350  00F2  0236               	subwf	___fldiv@rem+3,w
  3351  00F3  1D03               	skipz
  3352  00F4  28FF               	goto	u1285
  3353  00F5  0828               	movf	___fldiv@a+2,w
  3354  00F6  0235               	subwf	___fldiv@rem+2,w
  3355  00F7  1D03               	skipz
  3356  00F8  28FF               	goto	u1285
  3357  00F9  0827               	movf	___fldiv@a+1,w
  3358  00FA  0234               	subwf	___fldiv@rem+1,w
  3359  00FB  1D03               	skipz
  3360  00FC  28FF               	goto	u1285
  3361  00FD  0826               	movf	___fldiv@a,w
  3362  00FE  0233               	subwf	___fldiv@rem,w
  3363  00FF                     u1285:	
  3364  00FF  1C03               	skipc
  3365  0100  2902               	goto	u1281
  3366  0101  2903               	goto	u1280
  3367  0102                     u1281:	
  3368  0102  2912               	goto	l1642
  3369  0103                     u1280:	
  3370  0103                     l1638:	
  3371  0103  173D               	bsf	___fldiv@grs+3,6
  3372  0104                     l1640:	
  3373  0104  0826               	movf	___fldiv@a,w
  3374  0105  02B3               	subwf	___fldiv@rem,f
  3375  0106  0827               	movf	___fldiv@a+1,w
  3376  0107  1C03               	skipc
  3377  0108  0F27               	incfsz	___fldiv@a+1,w
  3378  0109  02B4               	subwf	___fldiv@rem+1,f
  3379  010A  0828               	movf	___fldiv@a+2,w
  3380  010B  1C03               	skipc
  3381  010C  0F28               	incfsz	___fldiv@a+2,w
  3382  010D  02B5               	subwf	___fldiv@rem+2,f
  3383  010E  0829               	movf	___fldiv@a+3,w
  3384  010F  1C03               	skipc
  3385  0110  0F29               	incfsz	___fldiv@a+3,w
  3386  0111  02B6               	subwf	___fldiv@rem+3,f
  3387  0112                     l1642:	
  3388  0112  3001               	movlw	1
  3389  0113  00AE               	movwf	??___fldiv
  3390  0114  082E               	movf	??___fldiv,w
  3391  0115  07BF               	addwf	___fldiv@aexp,f
  3392  0116                     l1644:	
  3393  0116  301A               	movlw	26
  3394  0117  023F               	subwf	___fldiv@aexp,w
  3395  0118  1C03               	skipc
  3396  0119  291B               	goto	u1291
  3397  011A  291C               	goto	u1290
  3398  011B                     u1291:	
  3399  011B  28CC               	goto	l1626
  3400  011C                     u1290:	
  3401  011C                     l1646:	
  3402  011C  0836               	movf	___fldiv@rem+3,w
  3403  011D  0435               	iorwf	___fldiv@rem+2,w
  3404  011E  0434               	iorwf	___fldiv@rem+1,w
  3405  011F  0433               	iorwf	___fldiv@rem,w
  3406  0120  1903               	skipnz
  3407  0121  2923               	goto	u1301
  3408  0122  2924               	goto	u1300
  3409  0123                     u1301:	
  3410  0123  2943               	goto	l1660
  3411  0124                     u1300:	
  3412  0124                     l1648:	
  3413  0124  143A               	bsf	___fldiv@grs,0
  3414  0125  2943               	goto	l1660
  3415  0126                     l1650:	
  3416  0126  3001               	movlw	1
  3417  0127  00AE               	movwf	??___fldiv
  3418  0128                     u1315:	
  3419  0128  1003               	clrc
  3420  0129  0DAA               	rlf	___fldiv@b,f
  3421  012A  0DAB               	rlf	___fldiv@b+1,f
  3422  012B  0DAC               	rlf	___fldiv@b+2,f
  3423  012C  0DAD               	rlf	___fldiv@b+3,f
  3424  012D  0BAE               	decfsz	??___fldiv,f
  3425  012E  2928               	goto	u1315
  3426  012F                     l1652:	
  3427  012F  1FBD               	btfss	___fldiv@grs+3,7
  3428  0130  2932               	goto	u1321
  3429  0131  2933               	goto	u1320
  3430  0132                     u1321:	
  3431  0132  2934               	goto	l1656
  3432  0133                     u1320:	
  3433  0133                     l1654:	
  3434  0133  142A               	bsf	___fldiv@b,0
  3435  0134                     l1656:	
  3436  0134  3001               	movlw	1
  3437  0135  00AE               	movwf	??___fldiv
  3438  0136                     u1335:	
  3439  0136  1003               	clrc
  3440  0137  0DBA               	rlf	___fldiv@grs,f
  3441  0138  0DBB               	rlf	___fldiv@grs+1,f
  3442  0139  0DBC               	rlf	___fldiv@grs+2,f
  3443  013A  0DBD               	rlf	___fldiv@grs+3,f
  3444  013B  0BAE               	decfsz	??___fldiv,f
  3445  013C  2936               	goto	u1335
  3446  013D                     l1658:	
  3447  013D  30FF               	movlw	255
  3448  013E  07B8               	addwf	___fldiv@new_exp,f
  3449  013F  1803               	skipnc
  3450  0140  0AB9               	incf	___fldiv@new_exp+1,f
  3451  0141  30FF               	movlw	255
  3452  0142  07B9               	addwf	___fldiv@new_exp+1,f
  3453  0143                     l1660:	
  3454  0143  1FAC               	btfss	___fldiv@b+2,7
  3455  0144  2946               	goto	u1341
  3456  0145  2947               	goto	u1340
  3457  0146                     u1341:	
  3458  0146  2926               	goto	l1650
  3459  0147                     u1340:	
  3460  0147                     l1662:	
  3461  0147  01BF               	clrf	___fldiv@aexp
  3462  0148                     l1664:	
  3463  0148  1FBD               	btfss	___fldiv@grs+3,7
  3464  0149  294B               	goto	u1351
  3465  014A  294C               	goto	u1350
  3466  014B                     u1351:	
  3467  014B  2968               	goto	l1672
  3468  014C                     u1350:	
  3469  014C                     l1666:	
  3470  014C  30FF               	movlw	255
  3471  014D  053A               	andwf	___fldiv@grs,w
  3472  014E  00AE               	movwf	??___fldiv
  3473  014F  30FF               	movlw	255
  3474  0150  053B               	andwf	___fldiv@grs+1,w
  3475  0151  00AF               	movwf	??___fldiv+1
  3476  0152  30FF               	movlw	255
  3477  0153  053C               	andwf	___fldiv@grs+2,w
  3478  0154  00B0               	movwf	??___fldiv+2
  3479  0155  307F               	movlw	127
  3480  0156  053D               	andwf	___fldiv@grs+3,w
  3481  0157  00B1               	movwf	??___fldiv+3
  3482  0158  0831               	movf	??___fldiv+3,w
  3483  0159  0430               	iorwf	??___fldiv+2,w
  3484  015A  042F               	iorwf	??___fldiv+1,w
  3485  015B  042E               	iorwf	??___fldiv,w
  3486  015C  1903               	skipnz
  3487  015D  295F               	goto	u1361
  3488  015E  2960               	goto	u1360
  3489  015F                     u1361:	
  3490  015F  2963               	goto	l685
  3491  0160                     u1360:	
  3492  0160                     l1668:	
  3493  0160  01BF               	clrf	___fldiv@aexp
  3494  0161  0ABF               	incf	___fldiv@aexp,f
  3495  0162  2968               	goto	l1672
  3496  0163                     l685:	
  3497  0163  1C2A               	btfss	___fldiv@b,0
  3498  0164  2966               	goto	u1371
  3499  0165  2967               	goto	u1370
  3500  0166                     u1371:	
  3501  0166  2968               	goto	l1672
  3502  0167                     u1370:	
  3503  0167  2960               	goto	l1668
  3504  0168                     l1672:	
  3505  0168  083F               	movf	___fldiv@aexp,w
  3506  0169  1903               	btfsc	3,2
  3507  016A  296C               	goto	u1381
  3508  016B  296D               	goto	u1380
  3509  016C                     u1381:	
  3510  016C  299E               	goto	l1682
  3511  016D                     u1380:	
  3512  016D                     l1674:	
  3513  016D  3001               	movlw	1
  3514  016E  07AA               	addwf	___fldiv@b,f
  3515  016F  3000               	movlw	0
  3516  0170  1803               	skipnc
  3517  0171  3001               	movlw	1
  3518  0172  07AB               	addwf	___fldiv@b+1,f
  3519  0173  3000               	movlw	0
  3520  0174  1803               	skipnc
  3521  0175  3001               	movlw	1
  3522  0176  07AC               	addwf	___fldiv@b+2,f
  3523  0177  3000               	movlw	0
  3524  0178  1803               	skipnc
  3525  0179  3001               	movlw	1
  3526  017A  07AD               	addwf	___fldiv@b+3,f
  3527  017B                     l1676:	
  3528  017B  1C2D               	btfss	___fldiv@b+3,0
  3529  017C  297E               	goto	u1391
  3530  017D  297F               	goto	u1390
  3531  017E                     u1391:	
  3532  017E  299E               	goto	l1682
  3533  017F                     u1390:	
  3534  017F                     l1678:	
  3535  017F  082A               	movf	___fldiv@b,w
  3536  0180  00AE               	movwf	??___fldiv
  3537  0181  082B               	movf	___fldiv@b+1,w
  3538  0182  00AF               	movwf	??___fldiv+1
  3539  0183  082C               	movf	___fldiv@b+2,w
  3540  0184  00B0               	movwf	??___fldiv+2
  3541  0185  082D               	movf	___fldiv@b+3,w
  3542  0186  00B1               	movwf	??___fldiv+3
  3543  0187  3001               	movlw	1
  3544  0188  00B2               	movwf	??___fldiv+4
  3545  0189                     u1405:	
  3546  0189  0D31               	rlf	??___fldiv+3,w
  3547  018A  0CB1               	rrf	??___fldiv+3,f
  3548  018B  0CB0               	rrf	??___fldiv+2,f
  3549  018C  0CAF               	rrf	??___fldiv+1,f
  3550  018D  0CAE               	rrf	??___fldiv,f
  3551  018E                     u1400:	
  3552  018E  0BB2               	decfsz	??___fldiv+4,f
  3553  018F  2989               	goto	u1405
  3554  0190  0831               	movf	??___fldiv+3,w
  3555  0191  00AD               	movwf	___fldiv@b+3
  3556  0192  0830               	movf	??___fldiv+2,w
  3557  0193  00AC               	movwf	___fldiv@b+2
  3558  0194  082F               	movf	??___fldiv+1,w
  3559  0195  00AB               	movwf	___fldiv@b+1
  3560  0196  082E               	movf	??___fldiv,w
  3561  0197  00AA               	movwf	___fldiv@b
  3562  0198                     l1680:	
  3563  0198  3001               	movlw	1
  3564  0199  07B8               	addwf	___fldiv@new_exp,f
  3565  019A  1803               	skipnc
  3566  019B  0AB9               	incf	___fldiv@new_exp+1,f
  3567  019C  3000               	movlw	0
  3568  019D  07B9               	addwf	___fldiv@new_exp+1,f
  3569  019E                     l1682:	
  3570  019E  0839               	movf	___fldiv@new_exp+1,w
  3571  019F  3A80               	xorlw	128
  3572  01A0  00FF               	movwf	btemp+1
  3573  01A1  3080               	movlw	128
  3574  01A2  027F               	subwf	btemp+1,w
  3575  01A3  1D03               	skipz
  3576  01A4  29A7               	goto	u1415
  3577  01A5  30FF               	movlw	255
  3578  01A6  0238               	subwf	___fldiv@new_exp,w
  3579  01A7                     u1415:	
  3580  01A7  1C03               	skipc
  3581  01A8  29AA               	goto	u1411
  3582  01A9  29AB               	goto	u1410
  3583  01AA                     u1411:	
  3584  01AA  29B9               	goto	l1686
  3585  01AB                     u1410:	
  3586  01AB                     l1684:	
  3587  01AB  30FF               	movlw	255
  3588  01AC  1283               	bcf	3,5	;RP0=0, select bank0
  3589  01AD  1303               	bcf	3,6	;RP1=0, select bank0
  3590  01AE  00B8               	movwf	___fldiv@new_exp
  3591  01AF  3000               	movlw	0
  3592  01B0  00B9               	movwf	___fldiv@new_exp+1
  3593  01B1  3000               	movlw	0
  3594  01B2  00AD               	movwf	___fldiv@b+3
  3595  01B3  3000               	movlw	0
  3596  01B4  00AC               	movwf	___fldiv@b+2
  3597  01B5  3000               	movlw	0
  3598  01B6  00AB               	movwf	___fldiv@b+1
  3599  01B7  3000               	movlw	0
  3600  01B8  00AA               	movwf	___fldiv@b
  3601  01B9                     l1686:	
  3602  01B9  1283               	bcf	3,5	;RP0=0, select bank0
  3603  01BA  1303               	bcf	3,6	;RP1=0, select bank0
  3604  01BB  0839               	movf	___fldiv@new_exp+1,w
  3605  01BC  3A80               	xorlw	128
  3606  01BD  00FF               	movwf	btemp+1
  3607  01BE  3080               	movlw	128
  3608  01BF  027F               	subwf	btemp+1,w
  3609  01C0  1D03               	skipz
  3610  01C1  29C4               	goto	u1425
  3611  01C2  3001               	movlw	1
  3612  01C3  0238               	subwf	___fldiv@new_exp,w
  3613  01C4                     u1425:	
  3614  01C4  1803               	skipnc
  3615  01C5  29C7               	goto	u1421
  3616  01C6  29C8               	goto	u1420
  3617  01C7                     u1421:	
  3618  01C7  29D5               	goto	l691
  3619  01C8                     u1420:	
  3620  01C8                     l1688:	
  3621  01C8  1283               	bcf	3,5	;RP0=0, select bank0
  3622  01C9  1303               	bcf	3,6	;RP1=0, select bank0
  3623  01CA  01B8               	clrf	___fldiv@new_exp
  3624  01CB  01B9               	clrf	___fldiv@new_exp+1
  3625  01CC                     l1690:	
  3626  01CC  3000               	movlw	0
  3627  01CD  00AD               	movwf	___fldiv@b+3
  3628  01CE  3000               	movlw	0
  3629  01CF  00AC               	movwf	___fldiv@b+2
  3630  01D0  3000               	movlw	0
  3631  01D1  00AB               	movwf	___fldiv@b+1
  3632  01D2  3000               	movlw	0
  3633  01D3  00AA               	movwf	___fldiv@b
  3634  01D4                     l1692:	
  3635  01D4  01B7               	clrf	___fldiv@sign
  3636  01D5                     l691:	
  3637  01D5  1283               	bcf	3,5	;RP0=0, select bank0
  3638  01D6  1303               	bcf	3,6	;RP1=0, select bank0
  3639  01D7  0838               	movf	___fldiv@new_exp,w
  3640  01D8  00AE               	movwf	??___fldiv
  3641  01D9  082E               	movf	??___fldiv,w
  3642  01DA  00BE               	movwf	___fldiv@bexp
  3643  01DB                     l1694:	
  3644  01DB  1C3E               	btfss	___fldiv@bexp,0
  3645  01DC  29DE               	goto	u1431
  3646  01DD  29DF               	goto	u1430
  3647  01DE                     u1431:	
  3648  01DE  29E1               	goto	l1698
  3649  01DF                     u1430:	
  3650  01DF                     l1696:	
  3651  01DF  17AC               	bsf	___fldiv@b+2,7
  3652  01E0  29E5               	goto	l693
  3653  01E1                     l1698:	
  3654  01E1  307F               	movlw	127
  3655  01E2  00AE               	movwf	??___fldiv
  3656  01E3  082E               	movf	??___fldiv,w
  3657  01E4  05AC               	andwf	___fldiv@b+2,f
  3658  01E5                     l693:	
  3659  01E5  083E               	movf	___fldiv@bexp,w
  3660  01E6  00AE               	movwf	??___fldiv
  3661  01E7  1003               	clrc
  3662  01E8  0C2E               	rrf	??___fldiv,w
  3663  01E9  00AF               	movwf	??___fldiv+1
  3664  01EA  082F               	movf	??___fldiv+1,w
  3665  01EB  00AD               	movwf	___fldiv@b+3
  3666  01EC  0837               	movf	___fldiv@sign,w
  3667  01ED  00AE               	movwf	??___fldiv
  3668  01EE  082E               	movf	??___fldiv,w
  3669  01EF  04AD               	iorwf	___fldiv@b+3,f
  3670  01F0  2889               	goto	l1606
  3671  01F1                     l671:	
  3672  01F1  0008               	return
  3673  01F2                     __end_of___fldiv:	
  3674                           
  3675                           	psect	text16
  3676  0550                     __ptext16:	
  3677 ;; *************** function ___awmod *****************
  3678 ;; Defined at:
  3679 ;;		line 5 in file "C:\Program Files (x86)\Microchip\xc8\v2.10\pic\sources\c90\common\awmod.c"
  3680 ;; Parameters:    Size  Location     Type
  3681 ;;  divisor         2    2[COMMON] int 
  3682 ;;  dividend        2    4[COMMON] int 
  3683 ;; Auto vars:     Size  Location     Type
  3684 ;;  sign            1    8[COMMON] unsigned char 
  3685 ;;  counter         1    7[COMMON] unsigned char 
  3686 ;; Return value:  Size  Location     Type
  3687 ;;                  2    2[COMMON] int 
  3688 ;; Registers used:
  3689 ;;		wreg, status,2, status,0
  3690 ;; Tracked objects:
  3691 ;;		On entry : 0/0
  3692 ;;		On exit  : 0/0
  3693 ;;		Unchanged: 0/0
  3694 ;; Data sizes:     COMMON   BANK0   BANK1   BANK3   BANK2
  3695 ;;      Params:         4       0       0       0       0
  3696 ;;      Locals:         2       0       0       0       0
  3697 ;;      Temps:          1       0       0       0       0
  3698 ;;      Totals:         7       0       0       0       0
  3699 ;;Total ram usage:        7 bytes
  3700 ;; Hardware stack levels used:    1
  3701 ;; Hardware stack levels required when called:    1
  3702 ;; This function calls:
  3703 ;;		Nothing
  3704 ;; This function is called by:
  3705 ;;		_main
  3706 ;; This function uses a non-reentrant model
  3707 ;;
  3708                           
  3709                           
  3710                           ;psect for function ___awmod
  3711  0550                     ___awmod:	
  3712  0550                     l1488:	
  3713                           ;incstack = 0
  3714                           ; Regs used in ___awmod: [wreg+status,2+status,0]
  3715                           
  3716  0550  01F8               	clrf	___awmod@sign
  3717  0551                     l1490:	
  3718  0551  1FF5               	btfss	___awmod@dividend+1,7
  3719  0552  2D54               	goto	u961
  3720  0553  2D55               	goto	u960
  3721  0554                     u961:	
  3722  0554  2D5C               	goto	l1496
  3723  0555                     u960:	
  3724  0555                     l1492:	
  3725  0555  09F4               	comf	___awmod@dividend,f
  3726  0556  09F5               	comf	___awmod@dividend+1,f
  3727  0557  0AF4               	incf	___awmod@dividend,f
  3728  0558  1903               	skipnz
  3729  0559  0AF5               	incf	___awmod@dividend+1,f
  3730  055A                     l1494:	
  3731  055A  01F8               	clrf	___awmod@sign
  3732  055B  0AF8               	incf	___awmod@sign,f
  3733  055C                     l1496:	
  3734  055C  1FF3               	btfss	___awmod@divisor+1,7
  3735  055D  2D5F               	goto	u971
  3736  055E  2D60               	goto	u970
  3737  055F                     u971:	
  3738  055F  2D65               	goto	l1500
  3739  0560                     u970:	
  3740  0560                     l1498:	
  3741  0560  09F2               	comf	___awmod@divisor,f
  3742  0561  09F3               	comf	___awmod@divisor+1,f
  3743  0562  0AF2               	incf	___awmod@divisor,f
  3744  0563  1903               	skipnz
  3745  0564  0AF3               	incf	___awmod@divisor+1,f
  3746  0565                     l1500:	
  3747  0565  0872               	movf	___awmod@divisor,w
  3748  0566  0473               	iorwf	___awmod@divisor+1,w
  3749  0567  1903               	btfsc	3,2
  3750  0568  2D6A               	goto	u981
  3751  0569  2D6B               	goto	u980
  3752  056A                     u981:	
  3753  056A  2D9A               	goto	l1518
  3754  056B                     u980:	
  3755  056B                     l1502:	
  3756  056B  01F7               	clrf	___awmod@counter
  3757  056C  0AF7               	incf	___awmod@counter,f
  3758  056D  2D79               	goto	l1508
  3759  056E                     l1504:	
  3760  056E  3001               	movlw	1
  3761  056F                     u995:	
  3762  056F  1003               	clrc
  3763  0570  0DF2               	rlf	___awmod@divisor,f
  3764  0571  0DF3               	rlf	___awmod@divisor+1,f
  3765  0572  3EFF               	addlw	-1
  3766  0573  1D03               	skipz
  3767  0574  2D6F               	goto	u995
  3768  0575                     l1506:	
  3769  0575  3001               	movlw	1
  3770  0576  00F6               	movwf	??___awmod
  3771  0577  0876               	movf	??___awmod,w
  3772  0578  07F7               	addwf	___awmod@counter,f
  3773  0579                     l1508:	
  3774  0579  1FF3               	btfss	___awmod@divisor+1,7
  3775  057A  2D7C               	goto	u1001
  3776  057B  2D7D               	goto	u1000
  3777  057C                     u1001:	
  3778  057C  2D6E               	goto	l1504
  3779  057D                     u1000:	
  3780  057D                     l1510:	
  3781  057D  0873               	movf	___awmod@divisor+1,w
  3782  057E  0275               	subwf	___awmod@dividend+1,w
  3783  057F  1D03               	skipz
  3784  0580  2D83               	goto	u1015
  3785  0581  0872               	movf	___awmod@divisor,w
  3786  0582  0274               	subwf	___awmod@dividend,w
  3787  0583                     u1015:	
  3788  0583  1C03               	skipc
  3789  0584  2D86               	goto	u1011
  3790  0585  2D87               	goto	u1010
  3791  0586                     u1011:	
  3792  0586  2D8D               	goto	l1514
  3793  0587                     u1010:	
  3794  0587                     l1512:	
  3795  0587  0872               	movf	___awmod@divisor,w
  3796  0588  02F4               	subwf	___awmod@dividend,f
  3797  0589  0873               	movf	___awmod@divisor+1,w
  3798  058A  1C03               	skipc
  3799  058B  03F5               	decf	___awmod@dividend+1,f
  3800  058C  02F5               	subwf	___awmod@dividend+1,f
  3801  058D                     l1514:	
  3802  058D  3001               	movlw	1
  3803  058E                     u1025:	
  3804  058E  1003               	clrc
  3805  058F  0CF3               	rrf	___awmod@divisor+1,f
  3806  0590  0CF2               	rrf	___awmod@divisor,f
  3807  0591  3EFF               	addlw	-1
  3808  0592  1D03               	skipz
  3809  0593  2D8E               	goto	u1025
  3810  0594                     l1516:	
  3811  0594  3001               	movlw	1
  3812  0595  02F7               	subwf	___awmod@counter,f
  3813  0596  1D03               	btfss	3,2
  3814  0597  2D99               	goto	u1031
  3815  0598  2D9A               	goto	u1030
  3816  0599                     u1031:	
  3817  0599  2D7D               	goto	l1510
  3818  059A                     u1030:	
  3819  059A                     l1518:	
  3820  059A  0878               	movf	___awmod@sign,w
  3821  059B  1903               	btfsc	3,2
  3822  059C  2D9E               	goto	u1041
  3823  059D  2D9F               	goto	u1040
  3824  059E                     u1041:	
  3825  059E  2DA4               	goto	l1522
  3826  059F                     u1040:	
  3827  059F                     l1520:	
  3828  059F  09F4               	comf	___awmod@dividend,f
  3829  05A0  09F5               	comf	___awmod@dividend+1,f
  3830  05A1  0AF4               	incf	___awmod@dividend,f
  3831  05A2  1903               	skipnz
  3832  05A3  0AF5               	incf	___awmod@dividend+1,f
  3833  05A4                     l1522:	
  3834  05A4  0875               	movf	___awmod@dividend+1,w
  3835  05A5  00F3               	movwf	?___awmod+1
  3836  05A6  0874               	movf	___awmod@dividend,w
  3837  05A7  00F2               	movwf	?___awmod
  3838  05A8                     l486:	
  3839  05A8  0008               	return
  3840  05A9                     __end_of___awmod:	
  3841                           
  3842                           	psect	text17
  3843  04E7                     __ptext17:	
  3844 ;; *************** function ___awdiv *****************
  3845 ;; Defined at:
  3846 ;;		line 5 in file "C:\Program Files (x86)\Microchip\xc8\v2.10\pic\sources\c90\common\awdiv.c"
  3847 ;; Parameters:    Size  Location     Type
  3848 ;;  divisor         2    2[COMMON] int 
  3849 ;;  dividend        2    4[COMMON] int 
  3850 ;; Auto vars:     Size  Location     Type
  3851 ;;  quotient        2    2[BANK0 ] int 
  3852 ;;  sign            1    1[BANK0 ] unsigned char 
  3853 ;;  counter         1    0[BANK0 ] unsigned char 
  3854 ;; Return value:  Size  Location     Type
  3855 ;;                  2    2[COMMON] int 
  3856 ;; Registers used:
  3857 ;;		wreg, status,2, status,0
  3858 ;; Tracked objects:
  3859 ;;		On entry : 0/0
  3860 ;;		On exit  : 0/0
  3861 ;;		Unchanged: 0/0
  3862 ;; Data sizes:     COMMON   BANK0   BANK1   BANK3   BANK2
  3863 ;;      Params:         4       0       0       0       0
  3864 ;;      Locals:         0       4       0       0       0
  3865 ;;      Temps:          1       0       0       0       0
  3866 ;;      Totals:         5       4       0       0       0
  3867 ;;Total ram usage:        9 bytes
  3868 ;; Hardware stack levels used:    1
  3869 ;; Hardware stack levels required when called:    1
  3870 ;; This function calls:
  3871 ;;		Nothing
  3872 ;; This function is called by:
  3873 ;;		_main
  3874 ;; This function uses a non-reentrant model
  3875 ;;
  3876                           
  3877                           
  3878                           ;psect for function ___awdiv
  3879  04E7                     ___awdiv:	
  3880  04E7                     l1856:	
  3881                           ;incstack = 0
  3882                           ; Regs used in ___awdiv: [wreg+status,2+status,0]
  3883                           
  3884  04E7  1283               	bcf	3,5	;RP0=0, select bank0
  3885  04E8  1303               	bcf	3,6	;RP1=0, select bank0
  3886  04E9  01A1               	clrf	___awdiv@sign
  3887  04EA                     l1858:	
  3888  04EA  1FF3               	btfss	___awdiv@divisor+1,7
  3889  04EB  2CED               	goto	u1601
  3890  04EC  2CEE               	goto	u1600
  3891  04ED                     u1601:	
  3892  04ED  2CF5               	goto	l1864
  3893  04EE                     u1600:	
  3894  04EE                     l1860:	
  3895  04EE  09F2               	comf	___awdiv@divisor,f
  3896  04EF  09F3               	comf	___awdiv@divisor+1,f
  3897  04F0  0AF2               	incf	___awdiv@divisor,f
  3898  04F1  1903               	skipnz
  3899  04F2  0AF3               	incf	___awdiv@divisor+1,f
  3900  04F3                     l1862:	
  3901  04F3  01A1               	clrf	___awdiv@sign
  3902  04F4  0AA1               	incf	___awdiv@sign,f
  3903  04F5                     l1864:	
  3904  04F5  1FF5               	btfss	___awdiv@dividend+1,7
  3905  04F6  2CF8               	goto	u1611
  3906  04F7  2CF9               	goto	u1610
  3907  04F8                     u1611:	
  3908  04F8  2D02               	goto	l1870
  3909  04F9                     u1610:	
  3910  04F9                     l1866:	
  3911  04F9  09F4               	comf	___awdiv@dividend,f
  3912  04FA  09F5               	comf	___awdiv@dividend+1,f
  3913  04FB  0AF4               	incf	___awdiv@dividend,f
  3914  04FC  1903               	skipnz
  3915  04FD  0AF5               	incf	___awdiv@dividend+1,f
  3916  04FE                     l1868:	
  3917  04FE  3001               	movlw	1
  3918  04FF  00F6               	movwf	??___awdiv
  3919  0500  0876               	movf	??___awdiv,w
  3920  0501  06A1               	xorwf	___awdiv@sign,f
  3921  0502                     l1870:	
  3922  0502  01A2               	clrf	___awdiv@quotient
  3923  0503  01A3               	clrf	___awdiv@quotient+1
  3924  0504                     l1872:	
  3925  0504  0872               	movf	___awdiv@divisor,w
  3926  0505  0473               	iorwf	___awdiv@divisor+1,w
  3927  0506  1903               	btfsc	3,2
  3928  0507  2D09               	goto	u1621
  3929  0508  2D0A               	goto	u1620
  3930  0509                     u1621:	
  3931  0509  2D41               	goto	l1892
  3932  050A                     u1620:	
  3933  050A                     l1874:	
  3934  050A  01A0               	clrf	___awdiv@counter
  3935  050B  0AA0               	incf	___awdiv@counter,f
  3936  050C  2D18               	goto	l1880
  3937  050D                     l1876:	
  3938  050D  3001               	movlw	1
  3939  050E                     u1635:	
  3940  050E  1003               	clrc
  3941  050F  0DF2               	rlf	___awdiv@divisor,f
  3942  0510  0DF3               	rlf	___awdiv@divisor+1,f
  3943  0511  3EFF               	addlw	-1
  3944  0512  1D03               	skipz
  3945  0513  2D0E               	goto	u1635
  3946  0514                     l1878:	
  3947  0514  3001               	movlw	1
  3948  0515  00F6               	movwf	??___awdiv
  3949  0516  0876               	movf	??___awdiv,w
  3950  0517  07A0               	addwf	___awdiv@counter,f
  3951  0518                     l1880:	
  3952  0518  1FF3               	btfss	___awdiv@divisor+1,7
  3953  0519  2D1B               	goto	u1641
  3954  051A  2D1C               	goto	u1640
  3955  051B                     u1641:	
  3956  051B  2D0D               	goto	l1876
  3957  051C                     u1640:	
  3958  051C                     l1882:	
  3959  051C  3001               	movlw	1
  3960  051D                     u1655:	
  3961  051D  1003               	clrc
  3962  051E  0DA2               	rlf	___awdiv@quotient,f
  3963  051F  0DA3               	rlf	___awdiv@quotient+1,f
  3964  0520  3EFF               	addlw	-1
  3965  0521  1D03               	skipz
  3966  0522  2D1D               	goto	u1655
  3967  0523  0873               	movf	___awdiv@divisor+1,w
  3968  0524  0275               	subwf	___awdiv@dividend+1,w
  3969  0525  1D03               	skipz
  3970  0526  2D29               	goto	u1665
  3971  0527  0872               	movf	___awdiv@divisor,w
  3972  0528  0274               	subwf	___awdiv@dividend,w
  3973  0529                     u1665:	
  3974  0529  1C03               	skipc
  3975  052A  2D2C               	goto	u1661
  3976  052B  2D2D               	goto	u1660
  3977  052C                     u1661:	
  3978  052C  2D34               	goto	l1888
  3979  052D                     u1660:	
  3980  052D                     l1884:	
  3981  052D  0872               	movf	___awdiv@divisor,w
  3982  052E  02F4               	subwf	___awdiv@dividend,f
  3983  052F  0873               	movf	___awdiv@divisor+1,w
  3984  0530  1C03               	skipc
  3985  0531  03F5               	decf	___awdiv@dividend+1,f
  3986  0532  02F5               	subwf	___awdiv@dividend+1,f
  3987  0533                     l1886:	
  3988  0533  1422               	bsf	___awdiv@quotient,0
  3989  0534                     l1888:	
  3990  0534  3001               	movlw	1
  3991  0535                     u1675:	
  3992  0535  1003               	clrc
  3993  0536  0CF3               	rrf	___awdiv@divisor+1,f
  3994  0537  0CF2               	rrf	___awdiv@divisor,f
  3995  0538  3EFF               	addlw	-1
  3996  0539  1D03               	skipz
  3997  053A  2D35               	goto	u1675
  3998  053B                     l1890:	
  3999  053B  3001               	movlw	1
  4000  053C  02A0               	subwf	___awdiv@counter,f
  4001  053D  1D03               	btfss	3,2
  4002  053E  2D40               	goto	u1681
  4003  053F  2D41               	goto	u1680
  4004  0540                     u1681:	
  4005  0540  2D1C               	goto	l1882
  4006  0541                     u1680:	
  4007  0541                     l1892:	
  4008  0541  0821               	movf	___awdiv@sign,w
  4009  0542  1903               	btfsc	3,2
  4010  0543  2D45               	goto	u1691
  4011  0544  2D46               	goto	u1690
  4012  0545                     u1691:	
  4013  0545  2D4B               	goto	l1896
  4014  0546                     u1690:	
  4015  0546                     l1894:	
  4016  0546  09A2               	comf	___awdiv@quotient,f
  4017  0547  09A3               	comf	___awdiv@quotient+1,f
  4018  0548  0AA2               	incf	___awdiv@quotient,f
  4019  0549  1903               	skipnz
  4020  054A  0AA3               	incf	___awdiv@quotient+1,f
  4021  054B                     l1896:	
  4022  054B  0823               	movf	___awdiv@quotient+1,w
  4023  054C  00F3               	movwf	?___awdiv+1
  4024  054D  0822               	movf	___awdiv@quotient,w
  4025  054E  00F2               	movwf	?___awdiv
  4026  054F                     l473:	
  4027  054F  0008               	return
  4028  0550                     __end_of___awdiv:	
  4029                           
  4030                           	psect	text18
  4031  06DE                     __ptext18:	
  4032 ;; *************** function _ISR *****************
  4033 ;; Defined at:
  4034 ;;		line 47 in file "ultrasonico.c"
  4035 ;; Parameters:    Size  Location     Type
  4036 ;;		None
  4037 ;; Auto vars:     Size  Location     Type
  4038 ;;		None
  4039 ;; Return value:  Size  Location     Type
  4040 ;;                  1    wreg      void 
  4041 ;; Registers used:
  4042 ;;		None
  4043 ;; Tracked objects:
  4044 ;;		On entry : 0/0
  4045 ;;		On exit  : 0/0
  4046 ;;		Unchanged: 0/0
  4047 ;; Data sizes:     COMMON   BANK0   BANK1   BANK3   BANK2
  4048 ;;      Params:         0       0       0       0       0
  4049 ;;      Locals:         0       0       0       0       0
  4050 ;;      Temps:          2       0       0       0       0
  4051 ;;      Totals:         2       0       0       0       0
  4052 ;;Total ram usage:        2 bytes
  4053 ;; Hardware stack levels used:    1
  4054 ;; This function calls:
  4055 ;;		Nothing
  4056 ;; This function is called by:
  4057 ;;		Interrupt level 1
  4058 ;; This function uses a non-reentrant model
  4059 ;;
  4060                           
  4061                           
  4062                           ;psect for function _ISR
  4063  06DE                     _ISR:	
  4064  06DE                     i1l49:	
  4065  06DE  0871               	movf	??_ISR+1,w
  4066  06DF  008A               	movwf	10
  4067  06E0  0E70               	swapf	??_ISR^(0+4294967168),w
  4068  06E1  0083               	movwf	3
  4069  06E2  0EFE               	swapf	btemp,f
  4070  06E3  0E7E               	swapf	btemp,w
  4071  06E4  0009               	retfie
  4072  06E5                     __end_of_ISR:	
  4073  007E                     btemp	set	126	;btemp
  4074  007E                     wtemp0	set	126
  4075                           
  4076                           	psect	intentry
  4077  0004                     __pintentry:	
  4078                           ;incstack = 0
  4079                           ; Regs used in _ISR: []
  4080                           
  4081  0004                     interrupt_function:	
  4082  007E                     saved_w	set	btemp
  4083  0004  00FE               	movwf	btemp
  4084  0005  0E03               	swapf	3,w
  4085  0006  00F0               	movwf	??_ISR
  4086  0007  080A               	movf	10,w
  4087  0008  00F1               	movwf	??_ISR+1
  4088  0009  120A  118A  2EDE   	ljmp	_ISR


Data Sizes:
    Strings     6
    Constant    0
    Data        0
    BSS         2
    Persistent  0
    Stack       0

Auto Spaces:
    Space          Size  Autos    Used
    COMMON           14     10      12
    BANK0            80     44      44
    BANK1            80      0       0
    BANK3            96      0       0
    BANK2            96      0       0

Pointer List with Targets:

    lcd8_dispString@value	PTR unsigned char  size(1) Largest target is 3
		 -> STR_2(CODE[3]), STR_1(CODE[3]), 


Critical Paths under _main in COMMON

    _main->___xxtofl
    _lcd8_setCursor->_lcd8_cmd
    _lcd8_init->_lcd8_cmd
    _lcd8_cmd->_delay_1ms
    _lcd8_dispString->_lcd8_write
    _lcd8_dispChar->_lcd8_write
    _lcd8_write->_delay_1ms
    ___fltol->___xxtofl
    ___fldiv->___xxtofl

Critical Paths under _ISR in COMMON

    None.

Critical Paths under _main in BANK0

    _main->___fltol
    ___fltol->___fldiv
    ___fldiv->___xxtofl

Critical Paths under _ISR in BANK0

    None.

Critical Paths under _main in BANK1

    None.

Critical Paths under _ISR in BANK1

    None.

Critical Paths under _main in BANK3

    None.

Critical Paths under _ISR in BANK3

    None.

Critical Paths under _main in BANK2

    None.

Critical Paths under _ISR in BANK2

    None.

Call Graph Tables:

 ---------------------------------------------------------------------------------
 (Depth) Function   	        Calls       Base Space   Used Autos Params    Refs
 ---------------------------------------------------------------------------------
 (0) _main                                                 1     1      0    4834
                                             43 BANK0      1     1      0
                            ___awdiv
                            ___awmod
                            ___fldiv
                            ___fltol
                           ___xxtofl
                          _delay_1ms
                      _lcd8_dispChar
                    _lcd8_dispString
                          _lcd8_init
                     _lcd8_setCursor
                            _oscInit
                              _setup
                          _tmr1_Init
                     _tmr1_Interrupt
                     _tmr1_Prescaler
 ---------------------------------------------------------------------------------
 (1) _tmr1_Prescaler                                       3     3      0      15
                                              2 COMMON     3     3      0
 ---------------------------------------------------------------------------------
 (1) _tmr1_Interrupt                                       1     1      0      15
                                              2 COMMON     1     1      0
 ---------------------------------------------------------------------------------
 (1) _tmr1_Init                                            0     0      0       0
 ---------------------------------------------------------------------------------
 (1) _setup                                                0     0      0       0
 ---------------------------------------------------------------------------------
 (1) _oscInit                                              3     3      0      20
                                              2 COMMON     3     3      0
 ---------------------------------------------------------------------------------
 (1) _lcd8_setCursor                                       2     1      1     513
                                              5 COMMON     2     1      1
                           _lcd8_cmd
 ---------------------------------------------------------------------------------
 (1) _lcd8_init                                            2     2      0      45
                                              5 COMMON     2     2      0
                           _lcd8_cmd
 ---------------------------------------------------------------------------------
 (2) _lcd8_cmd                                             1     1      0      45
                                              4 COMMON     1     1      0
                          _delay_1ms
 ---------------------------------------------------------------------------------
 (1) _lcd8_dispString                                      3     3      0     315
                                              6 COMMON     3     3      0
                         _lcd8_write
 ---------------------------------------------------------------------------------
 (1) _lcd8_dispChar                                        1     1      0     226
                                              6 COMMON     1     1      0
                         _lcd8_write
 ---------------------------------------------------------------------------------
 (2) _lcd8_write                                           2     0      2     204
                                              4 COMMON     2     0      2
                          _delay_1ms
 ---------------------------------------------------------------------------------
 (3) _delay_1ms                                            2     2      0      30
                                              2 COMMON     2     2      0
 ---------------------------------------------------------------------------------
 (1) ___xxtofl                                            14    10      4     398
                                              2 COMMON     8     4      4
                                              0 BANK0      6     6      0
 ---------------------------------------------------------------------------------
 (1) ___fltol                                             11     7      4     427
                                             32 BANK0     11     7      4
                            ___fldiv (ARG)
                           ___xxtofl (ARG)
 ---------------------------------------------------------------------------------
 (1) ___fldiv                                             26    18      8    1273
                                              6 BANK0     26    18      8
                           ___xxtofl (ARG)
 ---------------------------------------------------------------------------------
 (1) ___awmod                                              7     3      4     752
                                              2 COMMON     7     3      4
 ---------------------------------------------------------------------------------
 (1) ___awdiv                                              9     5      4     805
                                              2 COMMON     5     1      4
                                              0 BANK0      4     4      0
 ---------------------------------------------------------------------------------
 Estimated maximum stack depth 3
 ---------------------------------------------------------------------------------
 (Depth) Function   	        Calls       Base Space   Used Autos Params    Refs
 ---------------------------------------------------------------------------------
 (4) _ISR                                                  2     2      0       0
                                              0 COMMON     2     2      0
 ---------------------------------------------------------------------------------
 Estimated maximum stack depth 4
 ---------------------------------------------------------------------------------

 Call Graph Graphs:

 _main (ROOT)
   ___awdiv
   ___awmod
   ___fldiv
     ___xxtofl (ARG)
   ___fltol
     ___fldiv (ARG)
       ___xxtofl (ARG)
     ___xxtofl (ARG)
   ___xxtofl
   _delay_1ms
   _lcd8_dispChar
     _lcd8_write
       _delay_1ms
   _lcd8_dispString
     _lcd8_write
       _delay_1ms
   _lcd8_init
     _lcd8_cmd
       _delay_1ms
   _lcd8_setCursor
     _lcd8_cmd
       _delay_1ms
   _oscInit
   _setup
   _tmr1_Init
   _tmr1_Interrupt
   _tmr1_Prescaler

 _ISR (ROOT)

 Address spaces:
Name               Size   Autos  Total    Cost      Usage
BITCOMMON            E      0       0       0        0.0%
EEDATA             100      0       0       0        0.0%
NULL                 0      0       0       0        0.0%
CODE                 0      0       0       0        0.0%
COMMON               E      A       C       1       85.7%
BITSFR0              0      0       0       1        0.0%
SFR0                 0      0       0       1        0.0%
BITSFR1              0      0       0       2        0.0%
SFR1                 0      0       0       2        0.0%
STACK                0      0       0       2        0.0%
ABS                  0      0      38       3        0.0%
BITBANK0            50      0       0       4        0.0%
BITSFR3              0      0       0       4        0.0%
SFR3                 0      0       0       4        0.0%
BANK0               50     2C      2C       5       55.0%
BITSFR2              0      0       0       5        0.0%
SFR2                 0      0       0       5        0.0%
BITBANK1            50      0       0       6        0.0%
BANK1               50      0       0       7        0.0%
BITBANK3            60      0       0       8        0.0%
BANK3               60      0       0       9        0.0%
BITBANK2            60      0       0      10        0.0%
BANK2               60      0       0      11        0.0%
DATA                 0      0      38      12        0.0%


Microchip Technology PIC Macro Assembler V2.10 build 88905656 
Symbol Table                                                                                   Thu Mar 05 15:59:35 2020

            ___fldiv@aexp 003F              ___fldiv@bexp 003E                         pc 0002  
            ___fldiv@sign 0037               __CFG_CP$OFF 0000                        l60 022B  
                      l55 0222                        l57 0226                        l66 0696  
                      l58 0227                        u10 0682                        u11 0681  
                      u15 067E              ___awdiv@sign 0021                        fsr 0004  
                     l120 0488                       l121 0492                       l122 049C  
                     l211 06A7                       l123 04A6                       l220 0650  
                     l124 04B0                       l125 04BA                       l117 0474  
                     l214 06B7                       l126 04E6                       l223 06C5  
                     l119 047E                       l208 05FE                       l234 0682  
                     l229 066C                       l190 060B                       l183 06EA  
                     l191 0610                       l192 062B                       l513 045C  
                     l506 0471                       l195 06DD                       l187 0601  
                     l516 0471                       l189 0606                       l473 054F  
                     l486 05A8                       l910 06DA                       l902 0615  
                     l671 01F1                       l760 03BF                       l832 066F  
                     l840 069D                       l761 03CB                       l753 03A3  
                     l834 0675                       l826 066D                       l842 069E  
                     l691 01D5                       l747 035E                       l844 069F  
                     l836 0698                       l860 0683                       l908 06D3  
                     l693 01E5                       l685 0163                       l669 0071  
                     l749 03F5                       l846 06A4                       l838 069C  
                     l862 068B                       l880 05C6                       l864 0473  
                     l890 05EC                       l882 05CD                       l874 05A9  
                     l892 05F2                       l884 05DA                       l876 05B2  
                     l868 04C4                       l894 05F8                       l886 05E0  
                     l878 05B8                       l888 05E6                       l896 06E5  
                     l898 0600              __CFG_CPD$OFF 0000                       _ISR 06DE  
                     u830 0657                       u831 0656                       u840 0665  
                     u841 0664                       u850 0650                       u851 064F  
                     u960 0555                       u961 0554                       u970 0560  
                     u971 055F                       u980 056B                       u981 056A  
                     u995 056F                       fsr0 0004              ___awmod@sign 0078  
            __CFG_LVP$OFF 0000                      ?_ISR 0070              ___fltol@exp1 004A  
                    l2000 032B                      l2002 0330                      l1500 0565  
                    l1420 06AE                      l2044 061D                      l1510 057D  
                    l1502 056B                      l1422 06AF                      l1414 06A8  
                    l1430 065F                      l2046 04CC                      l1520 059F  
                    l1512 0587                      l1504 056E                      l1600 0069  
                    l1424 06B4                      l1416 06AC                      l1440 0644  
                    l1432 0665                      l1522 05A4                      l1514 058D  
                    l1506 0575                      l1602 0079                      l1610 0092  
                    l1418 06AD                      l1442 06B9                      l1434 062D  
                    l1426 0652                      l1516 0594                      l1508 0579  
                    l1620 00BA                      l1612 0097                      l1604 0085  
                    l1436 062E                      l1428 0657                      l1518 059A  
                    l1630 00E3                      l1622 00C2                      l1606 0089  
                    l1710 0356                      l1438 0640                      l1640 0104  
                    l1632 00E7                      l1624 00CA                      l1616 00A0  
                    l1720 0381                      l1712 0366                      l1704 033D  
                    l1490 0551                      l1650 0126                      l1642 0112  
                    l1634 00E8                      l1626 00CC                      l1618 00B2  
                    l1570 0027                      l1562 0015                      l1730 03B5  
                    l1722 0388                      l1706 0342                      l1492 0555  
                    l1652 012F                      l1660 0143                      l1628 00D1  
                    l1636 00F1                      l1644 0116                      l1572 002C  
                    l1580 003C                      l1564 001C                      l1900 03F6  
                    l1740 03E8                      l1732 03B9                      l1724 038C  
                    l1716 036F                      l1708 0346                      l1494 055A  
                    l1662 0147                      l1654 0133                      l1646 011C  
                    l1638 0103                      l1590 0054                      l1582 0044  
                    l1574 0031                      l1566 0022                      l1910 0422  
                    l1902 0403                      l1742 03EC                      l1734 03C3  
                    l1726 039A                      l1718 0374                      l1496 055C  
                    l1488 0550                      l1680 0198                      l1672 0168  
                    l1664 0148                      l1656 0134                      l1648 0124  
                    l1592 0059                      l1584 0049                      l1576 0039  
                    l1568 0026                      l1912 042A                      l1744 03ED  
                    l1736 03CD                      l1728 03AA                      l1498 0560  
                    l1690 01CC                      l1674 016D                      l1682 019E  
                    l1666 014C                      l1658 013D                      l1594 005E  
                    l1586 004F                      l1578 003A                      l1930 0451  
                    l1922 0438                      l1914 042C                      l1906 040C  
                    l1738 03E3                      l1860 04EE                      l1692 01D4  
                    l1684 01AB                      l1676 017B                      l1668 0160  
                    l1596 0066                      l1588 0053                      l1932 0461  
                    l1916 0430                      l1924 044A                      l1908 0421  
                    l1940 01FD                      l1870 0502                      l1862 04F3  
                    l1694 01DB                      l1686 01B9                      l1678 017F  
                    l1598 0067                      l1934 0466                      l1950 0216  
                    l1942 0202                      l1880 0518                      l1872 0504  
                    l1864 04F5                      l1856 04E7                      l1696 01DF  
                    l1688 01C8                      l1960 0230                      l1952 0217  
                    l1944 0207                      l1936 01F2                      l1890 053B  
                    l1882 051C                      l1874 050A                      l1866 04F9  
                    l1858 04EA                      l1698 01E1                      l1970 0286  
                    l1962 026B                      l1954 0218                      l1946 020D  
                    l1938 01F7                      l1884 052D                      l1876 050D  
                    l1892 0541                      l1868 04FE                      l1980 02B4  
                    l1972 028B                      l1964 0273                      l1956 021F  
                    l1948 0213                      l1894 0546                      l1886 0533  
                    l1878 0514                      l1990 02EE                      l1982 02C0  
                    l1974 0297                      l1966 027B                      l1958 022C  
                    l1896 054B                      l1888 0534                      l1992 02F6  
                    l1984 02C5                      l1976 029C                      l1968 0280  
                    l1994 02FB                      l1986 02D6                      l1978 02AF  
                    l1996 030C                      l1988 02E9                      l1998 031F  
                    STR_1 06CC                      STR_2 06CF                      u1000 057D  
                    u1001 057C                      u1010 0587                      u1011 0586  
                    u1030 059A                      u1031 0599                      u1015 0583  
                    u1040 059F                      u1200 005E                      u1041 059E  
                    u1025 058E                      u1201 005D                      u1210 0079  
                    u1211 0078                      u1300 0124                      u1220 0097  
                    u1301 0123                      u1221 0096                      u1230 00D1  
                    u1150 0026                      u1231 00D0                      u1151 0025  
                    u1400 018E                      u1320 0133                      u1160 002C  
                    u1321 0132                      u1161 002B                      u1410 01AB  
                    u1170 0031                      u1411 01AA                      u1315 0128  
                    u1171 0030                      u1420 01C8                      u1340 0147  
                    u1260 00E7                      u1180 0053                      u1500 03A9  
                    u1421 01C7                      u1405 0189                      u1341 0146  
                    u1261 00E6                      u1245 00D3                      u1181 0052  
                    u1501 03A8                      u1430 01DF                      u1350 014C  
                    u1190 0059                      u1431 01DE                      u1415 01A7  
                    u1351 014B                      u1335 0136                      u1255 00DC  
                    u1191 0058                      u1600 04EE                      u1360 0160  
                    u1280 0103                      u1520 03B9                      u1440 0342  
                    u1601 04ED                      u1425 01C4                      u1361 015F  
                    u1281 0102                      u1521 03B8                      u1441 0341  
                    u1610 04F9                      u1370 0167                      u1290 011C  
                    u1530 03BF                      u1450 0346                      u1611 04F8  
                    u1371 0166                      u1291 011B                      u1275 00EA  
                    u1531 03BE                      u1515 03AE                      u1451 0345  
                    u1620 050A                      u1380 016D                      u1700 0403  
                    u1540 03C3                      u1460 0366                      u1621 0509  
                    u1381 016C                      u1285 00FF                      u1701 0402  
                    u1541 03C2                      u1461 0365                      u1390 017F  
                    u1710 041A                      u1550 03D8                      u1391 017E  
                    u1640 051C                      u1720 0430                      u1560 03E8  
                    u1480 0387                      u1800 0226                      u1641 051B  
                    u1721 042F                      u1561 03E7                      u1481 0386  
                    u1801 0225                      u1730 0437                      u1570 03EC  
                    u1810 022B                      u1635 050E                      u1731 0436  
                    u1715 0415                      u1571 03EB                      u1555 03D3  
                    u1475 0379                      u1811 022A                      u1660 052D  
                    u1661 052C                      u1750 0449                      u1655 051D  
                    u1751 0448                      u1495 039B                      u1680 0541  
                    u1760 0450                      u1681 0540                      u1665 0529  
                    u1761 044F                      u1745 0439                      u1690 0546  
                    u1691 0545                      u1675 0535                      u1827 021C  
                    u1780 0461                      u1781 0460                      u1837 05AD  
                    u1790 0466                      u1791 0465                      u1775 0453  
                    u1847 05BC                      u1857 05C8                      u1867 05D5  
                    i1l49 06DE              __CFG_WRT$OFF 0000                      _main 01F2  
                    btemp 007E                      start 000C             __CFG_IESO$OFF 0000  
         ___fldiv@new_exp 0038      lcd8_dispString@value 0078     __end_of_lcd8_dispChar 06C6  
                   ??_ISR 0070             ___fltol@sign1 0049                     ?_main 0070  
         __end_of___fldiv 01F2           __end_of___awdiv 0550             __CFG_WDTE$OFF 0000  
         __end_of___awmod 05A9           __end_of___fltol 0472                     _ANSEL 0188  
         ___awdiv@divisor 0072            _tmr1_Interrupt 06D2           ___awdiv@counter 0020  
                   _RCREG 001A                     _TMR1H 000F                     _TMR1L 000E  
                   _SPBRG 0099                     _PORTA 0005                     _TRISA 0085  
                   _TRISE 0089                     _TXREG 0019            __CFG_FCMEN$OFF 0000  
                   _setup 0683           __end_of_oscInit 04E7            _tmr1_Prescaler 05FF  
          __CFG_BOREN$OFF 0000                     pclath 000A            _lcd8_setCursor 0651  
                   status 0003                     wtemp0 007E            __CFG_MCLRE$OFF 0000  
         __initialization 000F              __end_of_main 033A      lcd8_dispChar@val_num 0076  
         _lcd8_dispString 062C    __end_of_tmr1_Interrupt 06DE                    ??_main 004B  
  __end_of_tmr1_Prescaler 062C    __end_of_lcd8_setCursor 066D          ___awdiv@dividend 0074  
                  ?_setup 0070                    _ANSELH 0189                    _TMR1ON 0080  
        __end_of___xxtofl 03F6          __end_of_lcd8_cmd 06A8            __CFG_PWRTE$OFF 0000  
               ??___fldiv 002E                 ??___awdiv 0076                 ??___awmod 0076  
               ??___fltol 0044          ___awdiv@quotient 0022           ___awmod@divisor 0072  
         ?_tmr1_Interrupt 0070           ___awmod@counter 0077                 ??_oscInit 0072  
                  saved_w 007E           ?_tmr1_Prescaler 0070           ?_lcd8_setCursor 0075  
            ___xxtofl@arg 0022              ___xxtofl@exp 0021              ___xxtofl@val 0072  
 __end_of__initialization 0011                ___fltol@f1 0040   __end_of_lcd8_dispString 0651  
          __pcstackCOMMON 0070        __size_of_lcd8_init 0056             __end_of_setup 0697  
      __size_of_delay_1ms 0016               oscInit@freq 0074                   ??_setup 0072  
              _lcd8_write 06A8        lcd8_setCursor@fila 0076                __pmaintext 01F2  
      __size_of_tmr1_Init 0006                __pintentry 0004    tmr1_Interrupt@tmr1_Int 0072  
               ?___xxtofl 0072                 ?_lcd8_cmd 0070                __stringtab 06C6  
       __end_of_lcd8_init 05FF         __end_of_delay_1ms 0683          ?_lcd8_dispString 0070  
                 ___fldiv 0015                   ___awdiv 04E7                   ___awmod 0550  
                 ___fltol 03F6                   __ptext1 05FF                   __ptext2 06D2  
                 __ptext3 06E5                   __ptext4 0683                   __ptext5 0472  
                 __ptext6 0651                   __ptext7 05A9                   __ptext8 0697  
                 __ptext9 062C              __size_of_ISR 0007                 _T1CONbits 0010  
              ??___xxtofl 0076                delay_1ms@i 0072                ??_lcd8_cmd 0074  
        ___awmod@dividend 0074                   _oscInit 0472             lcd8_write@dat 0074  
  __size_of_lcd8_dispChar 000E         __end_of_tmr1_Init 06EB      end_of_initialization 0011  
             ?_lcd8_write 0074          ??_tmr1_Interrupt 0072                 _RCSTAbits 0018  
               _PORTBbits 0006                 _PORTEbits 0009          ??_tmr1_Prescaler 0072  
        ??_lcd8_setCursor 0076             ___xxtofl@sign 0020                 _TRISBbits 0086  
               _TRISCbits 0087               ___fldiv@grs 003A               ___fldiv@rem 0033  
               _TXSTAbits 0098             _lcd8_dispChar 06B8               _BAUDCTLbits 0187  
     __size_of_lcd8_write 0010       start_initialization 000F               __end_of_ISR 06E5  
__CFG_FOSC$INTRC_NOCLKOUT 0000            ?_lcd8_dispChar 0070                 ___fldiv@a 0026  
               ___fldiv@b 002A               __pbssCOMMON 007A                 ___latbits 0002  
           __pcstackBANK0 0020         __size_of___xxtofl 00BC         __size_of_lcd8_cmd 0011  
               _lcd8_init 05A9     lcd8_setCursor@columna 0075                 _delay_1ms 066D  
                ?___fldiv 0026                  ?___awdiv 0072                  ?___awmod 0072  
                ?___fltol 0040   tmr1_Prescaler@prescaler 0074                 __pstrings 06C6  
               _distancia 007A                  ?_oscInit 0070            __size_of_setup 0014  
       interrupt_function 0004                 _tmr1_Init 06E5              ??_lcd8_write 0076  
         ??_lcd8_dispChar 0076                  _PIE1bits 008C                ?_lcd8_init 0070  
              ?_delay_1ms 0070                  _PIR1bits 000C                _ADCON0bits 001F  
             __stringbase 06CB                _ADCON1bits 009F  __size_of_lcd8_dispString 0025  
      __end_of_lcd8_write 06B8                ?_tmr1_Init 0070          __size_of___fldiv 01DD  
        __size_of___awdiv 0069          __size_of___awmod 0059          __size_of___fltol 007C  
      __end_of__stringtab 06CC               lcd8_cmd@cmd 0074                  ___xxtofl 033A  
                _lcd8_cmd 0697          __size_of_oscInit 0075                  __ptext10 06B8  
                __ptext11 06A8                  __ptext12 066D                  __ptext13 033A  
                __ptext14 03F6                  __ptext15 0015                  __ptext16 0550  
                __ptext17 04E7                  __ptext18 06DE         __CFG_BOR4V$BOR40V 0000  
           __size_of_main 0148               ??_lcd8_init 0075               ??_delay_1ms 0072  
 __size_of_tmr1_Interrupt 000C         ??_lcd8_dispString 0076                  intlevel1 0000  
 __size_of_tmr1_Prescaler 002D   __size_of_lcd8_setCursor 001C               ??_tmr1_Init 0072  
               stringcode 06C6                _OSCCONbits 008F                  stringdir 06C6  
                stringtab 06C6  
