

Microchip MPLAB XC8 Assembler V2.10 build 88905656 
                                                                                               Sun Mar 08 19:40:34 2020

Microchip MPLAB XC8 C Compiler v2.10 (Free license) build 20190730164152 Og1 
     1                           	processor	16F887
     2                           	opt	pw 120
     3                           	opt	flic
     4                           	psect	cinit,global,class=CODE,merge=1,delta=2
     5                           	psect	bssCOMMON,global,class=COMMON,space=1,delta=1
     6                           	psect	cstackCOMMON,global,class=COMMON,space=1,delta=1
     7                           	psect	cstackBANK0,global,class=BANK0,space=1,delta=1
     8                           	psect	maintext,global,class=CODE,split=1,delta=2
     9                           	psect	text1,local,class=CODE,merge=1,delta=2
    10                           	psect	text2,local,class=CODE,merge=1,delta=2
    11                           	psect	text3,local,class=CODE,merge=1,delta=2
    12                           	psect	text4,local,class=CODE,merge=1,delta=2
    13                           	psect	text5,local,class=CODE,merge=1,delta=2
    14                           	psect	text6,local,class=CODE,merge=1,delta=2
    15                           	psect	text7,local,class=CODE,merge=1,delta=2
    16                           	psect	text8,local,class=CODE,merge=1,delta=2
    17                           	psect	text9,local,class=CODE,merge=1,delta=2
    18                           	psect	text10,local,class=CODE,merge=1,delta=2
    19                           	psect	intentry,global,class=CODE,delta=2
    20                           	dabs	1,0x7E,2
    21  0000                     
    22                           ; Version 2.10
    23                           ; Generated 31/07/2019 GMT
    24                           ; 
    25                           ; Copyright © 2019, Microchip Technology Inc. and its subsidiaries ("Microchip")
    26                           ; All rights reserved.
    27                           ; 
    28                           ; This software is developed by Microchip Technology Inc. and its subsidiaries ("Microch
      +                          ip").
    29                           ; 
    30                           ; Redistribution and use in source and binary forms, with or without modification, are
    31                           ; permitted provided that the following conditions are met:
    32                           ; 
    33                           ;     1. Redistributions of source code must retain the above copyright notice, this lis
      +                          t of
    34                           ;        conditions and the following disclaimer.
    35                           ; 
    36                           ;     2. Redistributions in binary form must reproduce the above copyright notice, this 
      +                          list
    37                           ;        of conditions and the following disclaimer in the documentation and/or other
    38                           ;        materials provided with the distribution.
    39                           ; 
    40                           ;     3. Microchip's name may not be used to endorse or promote products derived from th
      +                          is
    41                           ;        software without specific prior written permission.
    42                           ; 
    43                           ; THIS SOFTWARE IS PROVIDED BY MICROCHIP "AS IS" AND ANY EXPRESS OR IMPLIED WARRANTIES,
    44                           ; INCLUDING, BUT NOT LIMITED TO, THE IMPLIED WARRANTIES OF MERCHANTABILITY AND FITNESS F
      +                          OR
    45                           ; PURPOSE ARE DISCLAIMED.  IN NO EVENT SHALL MICROCHIP BE LIABLE FOR ANY DIRECT, INDIREC
      +                          T,
    46                           ; INCIDENTAL, SPECIAL, EXEMPLARY, OR CONSEQUENTIAL DAMAGES (INCLUDING BUT NOT LIMITED TO
    47                           ; PROCUREMENT OF SUBSTITUTE GOODS OR SERVICES; LOSS OF USE, DATA OR PROFITS; OR BUSINESS
    48                           ; INTERRUPTION) HOWSOEVER CAUSED AND ON ANY THEORY OF LIABILITY, WHETHER IN CONTRACT, ST
      +                          RICT
    49                           ; LIABILITY, OR TORT (INCLUDING NEGLIGENCE OR OTHERWISE) ARISING IN ANY WAY OUT OF THE U
      +                          SE OF
    50                           ; THIS SOFTWARE, EVEN IF ADVISED OF THE POSSIBILITY OF SUCH DAMAGE.
    51                           ; 
    52                           ; 
    53                           ; Code-generator required, PIC16F887 Definitions
    54                           ; 
    55                           ; SFR Addresses
    56  0000                     	;# 
    57  0001                     	;# 
    58  0002                     	;# 
    59  0003                     	;# 
    60  0004                     	;# 
    61  0005                     	;# 
    62  0006                     	;# 
    63  0007                     	;# 
    64  0008                     	;# 
    65  0009                     	;# 
    66  000A                     	;# 
    67  000B                     	;# 
    68  000C                     	;# 
    69  000D                     	;# 
    70  000E                     	;# 
    71  000E                     	;# 
    72  000F                     	;# 
    73  0010                     	;# 
    74  0011                     	;# 
    75  0012                     	;# 
    76  0013                     	;# 
    77  0014                     	;# 
    78  0015                     	;# 
    79  0015                     	;# 
    80  0016                     	;# 
    81  0017                     	;# 
    82  0018                     	;# 
    83  0019                     	;# 
    84  001A                     	;# 
    85  001B                     	;# 
    86  001B                     	;# 
    87  001C                     	;# 
    88  001D                     	;# 
    89  001E                     	;# 
    90  001F                     	;# 
    91  0081                     	;# 
    92  0085                     	;# 
    93  0086                     	;# 
    94  0087                     	;# 
    95  0088                     	;# 
    96  0089                     	;# 
    97  008C                     	;# 
    98  008D                     	;# 
    99  008E                     	;# 
   100  008F                     	;# 
   101  0090                     	;# 
   102  0091                     	;# 
   103  0092                     	;# 
   104  0093                     	;# 
   105  0093                     	;# 
   106  0093                     	;# 
   107  0094                     	;# 
   108  0095                     	;# 
   109  0096                     	;# 
   110  0097                     	;# 
   111  0098                     	;# 
   112  0099                     	;# 
   113  009A                     	;# 
   114  009B                     	;# 
   115  009C                     	;# 
   116  009D                     	;# 
   117  009E                     	;# 
   118  009F                     	;# 
   119  0105                     	;# 
   120  0107                     	;# 
   121  0108                     	;# 
   122  0109                     	;# 
   123  010C                     	;# 
   124  010C                     	;# 
   125  010D                     	;# 
   126  010E                     	;# 
   127  010F                     	;# 
   128  0185                     	;# 
   129  0187                     	;# 
   130  0188                     	;# 
   131  0189                     	;# 
   132  018C                     	;# 
   133  018D                     	;# 
   134  0000                     	;# 
   135  0001                     	;# 
   136  0002                     	;# 
   137  0003                     	;# 
   138  0004                     	;# 
   139  0005                     	;# 
   140  0006                     	;# 
   141  0007                     	;# 
   142  0008                     	;# 
   143  0009                     	;# 
   144  000A                     	;# 
   145  000B                     	;# 
   146  000C                     	;# 
   147  000D                     	;# 
   148  000E                     	;# 
   149  000E                     	;# 
   150  000F                     	;# 
   151  0010                     	;# 
   152  0011                     	;# 
   153  0012                     	;# 
   154  0013                     	;# 
   155  0014                     	;# 
   156  0015                     	;# 
   157  0015                     	;# 
   158  0016                     	;# 
   159  0017                     	;# 
   160  0018                     	;# 
   161  0019                     	;# 
   162  001A                     	;# 
   163  001B                     	;# 
   164  001B                     	;# 
   165  001C                     	;# 
   166  001D                     	;# 
   167  001E                     	;# 
   168  001F                     	;# 
   169  0081                     	;# 
   170  0085                     	;# 
   171  0086                     	;# 
   172  0087                     	;# 
   173  0088                     	;# 
   174  0089                     	;# 
   175  008C                     	;# 
   176  008D                     	;# 
   177  008E                     	;# 
   178  008F                     	;# 
   179  0090                     	;# 
   180  0091                     	;# 
   181  0092                     	;# 
   182  0093                     	;# 
   183  0093                     	;# 
   184  0093                     	;# 
   185  0094                     	;# 
   186  0095                     	;# 
   187  0096                     	;# 
   188  0097                     	;# 
   189  0098                     	;# 
   190  0099                     	;# 
   191  009A                     	;# 
   192  009B                     	;# 
   193  009C                     	;# 
   194  009D                     	;# 
   195  009E                     	;# 
   196  009F                     	;# 
   197  0105                     	;# 
   198  0107                     	;# 
   199  0108                     	;# 
   200  0109                     	;# 
   201  010C                     	;# 
   202  010C                     	;# 
   203  010D                     	;# 
   204  010E                     	;# 
   205  010F                     	;# 
   206  0185                     	;# 
   207  0187                     	;# 
   208  0188                     	;# 
   209  0189                     	;# 
   210  018C                     	;# 
   211  018D                     	;# 
   212  0000                     	;# 
   213  0001                     	;# 
   214  0002                     	;# 
   215  0003                     	;# 
   216  0004                     	;# 
   217  0005                     	;# 
   218  0006                     	;# 
   219  0007                     	;# 
   220  0008                     	;# 
   221  0009                     	;# 
   222  000A                     	;# 
   223  000B                     	;# 
   224  000C                     	;# 
   225  000D                     	;# 
   226  000E                     	;# 
   227  000E                     	;# 
   228  000F                     	;# 
   229  0010                     	;# 
   230  0011                     	;# 
   231  0012                     	;# 
   232  0013                     	;# 
   233  0014                     	;# 
   234  0015                     	;# 
   235  0015                     	;# 
   236  0016                     	;# 
   237  0017                     	;# 
   238  0018                     	;# 
   239  0019                     	;# 
   240  001A                     	;# 
   241  001B                     	;# 
   242  001B                     	;# 
   243  001C                     	;# 
   244  001D                     	;# 
   245  001E                     	;# 
   246  001F                     	;# 
   247  0081                     	;# 
   248  0085                     	;# 
   249  0086                     	;# 
   250  0087                     	;# 
   251  0088                     	;# 
   252  0089                     	;# 
   253  008C                     	;# 
   254  008D                     	;# 
   255  008E                     	;# 
   256  008F                     	;# 
   257  0090                     	;# 
   258  0091                     	;# 
   259  0092                     	;# 
   260  0093                     	;# 
   261  0093                     	;# 
   262  0093                     	;# 
   263  0094                     	;# 
   264  0095                     	;# 
   265  0096                     	;# 
   266  0097                     	;# 
   267  0098                     	;# 
   268  0099                     	;# 
   269  009A                     	;# 
   270  009B                     	;# 
   271  009C                     	;# 
   272  009D                     	;# 
   273  009E                     	;# 
   274  009F                     	;# 
   275  0105                     	;# 
   276  0107                     	;# 
   277  0108                     	;# 
   278  0109                     	;# 
   279  010C                     	;# 
   280  010C                     	;# 
   281  010D                     	;# 
   282  010E                     	;# 
   283  010F                     	;# 
   284  0185                     	;# 
   285  0187                     	;# 
   286  0188                     	;# 
   287  0189                     	;# 
   288  018C                     	;# 
   289  018D                     	;# 
   290  0000                     	;# 
   291  0001                     	;# 
   292  0002                     	;# 
   293  0003                     	;# 
   294  0004                     	;# 
   295  0005                     	;# 
   296  0006                     	;# 
   297  0007                     	;# 
   298  0008                     	;# 
   299  0009                     	;# 
   300  000A                     	;# 
   301  000B                     	;# 
   302  000C                     	;# 
   303  000D                     	;# 
   304  000E                     	;# 
   305  000E                     	;# 
   306  000F                     	;# 
   307  0010                     	;# 
   308  0011                     	;# 
   309  0012                     	;# 
   310  0013                     	;# 
   311  0014                     	;# 
   312  0015                     	;# 
   313  0015                     	;# 
   314  0016                     	;# 
   315  0017                     	;# 
   316  0018                     	;# 
   317  0019                     	;# 
   318  001A                     	;# 
   319  001B                     	;# 
   320  001B                     	;# 
   321  001C                     	;# 
   322  001D                     	;# 
   323  001E                     	;# 
   324  001F                     	;# 
   325  0081                     	;# 
   326  0085                     	;# 
   327  0086                     	;# 
   328  0087                     	;# 
   329  0088                     	;# 
   330  0089                     	;# 
   331  008C                     	;# 
   332  008D                     	;# 
   333  008E                     	;# 
   334  008F                     	;# 
   335  0090                     	;# 
   336  0091                     	;# 
   337  0092                     	;# 
   338  0093                     	;# 
   339  0093                     	;# 
   340  0093                     	;# 
   341  0094                     	;# 
   342  0095                     	;# 
   343  0096                     	;# 
   344  0097                     	;# 
   345  0098                     	;# 
   346  0099                     	;# 
   347  009A                     	;# 
   348  009B                     	;# 
   349  009C                     	;# 
   350  009D                     	;# 
   351  009E                     	;# 
   352  009F                     	;# 
   353  0105                     	;# 
   354  0107                     	;# 
   355  0108                     	;# 
   356  0109                     	;# 
   357  010C                     	;# 
   358  010C                     	;# 
   359  010D                     	;# 
   360  010E                     	;# 
   361  010F                     	;# 
   362  0185                     	;# 
   363  0187                     	;# 
   364  0188                     	;# 
   365  0189                     	;# 
   366  018C                     	;# 
   367  018D                     	;# 
   368  0000                     	;# 
   369  0001                     	;# 
   370  0002                     	;# 
   371  0003                     	;# 
   372  0004                     	;# 
   373  0005                     	;# 
   374  0006                     	;# 
   375  0007                     	;# 
   376  0008                     	;# 
   377  0009                     	;# 
   378  000A                     	;# 
   379  000B                     	;# 
   380  000C                     	;# 
   381  000D                     	;# 
   382  000E                     	;# 
   383  000E                     	;# 
   384  000F                     	;# 
   385  0010                     	;# 
   386  0011                     	;# 
   387  0012                     	;# 
   388  0013                     	;# 
   389  0014                     	;# 
   390  0015                     	;# 
   391  0015                     	;# 
   392  0016                     	;# 
   393  0017                     	;# 
   394  0018                     	;# 
   395  0019                     	;# 
   396  001A                     	;# 
   397  001B                     	;# 
   398  001B                     	;# 
   399  001C                     	;# 
   400  001D                     	;# 
   401  001E                     	;# 
   402  001F                     	;# 
   403  0081                     	;# 
   404  0085                     	;# 
   405  0086                     	;# 
   406  0087                     	;# 
   407  0088                     	;# 
   408  0089                     	;# 
   409  008C                     	;# 
   410  008D                     	;# 
   411  008E                     	;# 
   412  008F                     	;# 
   413  0090                     	;# 
   414  0091                     	;# 
   415  0092                     	;# 
   416  0093                     	;# 
   417  0093                     	;# 
   418  0093                     	;# 
   419  0094                     	;# 
   420  0095                     	;# 
   421  0096                     	;# 
   422  0097                     	;# 
   423  0098                     	;# 
   424  0099                     	;# 
   425  009A                     	;# 
   426  009B                     	;# 
   427  009C                     	;# 
   428  009D                     	;# 
   429  009E                     	;# 
   430  009F                     	;# 
   431  0105                     	;# 
   432  0107                     	;# 
   433  0108                     	;# 
   434  0109                     	;# 
   435  010C                     	;# 
   436  010C                     	;# 
   437  010D                     	;# 
   438  010E                     	;# 
   439  010F                     	;# 
   440  0185                     	;# 
   441  0187                     	;# 
   442  0188                     	;# 
   443  0189                     	;# 
   444  018C                     	;# 
   445  018D                     	;# 
   446  0000                     	;# 
   447  0001                     	;# 
   448  0002                     	;# 
   449  0003                     	;# 
   450  0004                     	;# 
   451  0005                     	;# 
   452  0006                     	;# 
   453  0007                     	;# 
   454  0008                     	;# 
   455  0009                     	;# 
   456  000A                     	;# 
   457  000B                     	;# 
   458  000C                     	;# 
   459  000D                     	;# 
   460  000E                     	;# 
   461  000E                     	;# 
   462  000F                     	;# 
   463  0010                     	;# 
   464  0011                     	;# 
   465  0012                     	;# 
   466  0013                     	;# 
   467  0014                     	;# 
   468  0015                     	;# 
   469  0015                     	;# 
   470  0016                     	;# 
   471  0017                     	;# 
   472  0018                     	;# 
   473  0019                     	;# 
   474  001A                     	;# 
   475  001B                     	;# 
   476  001B                     	;# 
   477  001C                     	;# 
   478  001D                     	;# 
   479  001E                     	;# 
   480  001F                     	;# 
   481  0081                     	;# 
   482  0085                     	;# 
   483  0086                     	;# 
   484  0087                     	;# 
   485  0088                     	;# 
   486  0089                     	;# 
   487  008C                     	;# 
   488  008D                     	;# 
   489  008E                     	;# 
   490  008F                     	;# 
   491  0090                     	;# 
   492  0091                     	;# 
   493  0092                     	;# 
   494  0093                     	;# 
   495  0093                     	;# 
   496  0093                     	;# 
   497  0094                     	;# 
   498  0095                     	;# 
   499  0096                     	;# 
   500  0097                     	;# 
   501  0098                     	;# 
   502  0099                     	;# 
   503  009A                     	;# 
   504  009B                     	;# 
   505  009C                     	;# 
   506  009D                     	;# 
   507  009E                     	;# 
   508  009F                     	;# 
   509  0105                     	;# 
   510  0107                     	;# 
   511  0108                     	;# 
   512  0109                     	;# 
   513  010C                     	;# 
   514  010C                     	;# 
   515  010D                     	;# 
   516  010E                     	;# 
   517  010F                     	;# 
   518  0185                     	;# 
   519  0187                     	;# 
   520  0188                     	;# 
   521  0189                     	;# 
   522  018C                     	;# 
   523  018D                     	;# 
   524  0000                     	;# 
   525  0001                     	;# 
   526  0002                     	;# 
   527  0003                     	;# 
   528  0004                     	;# 
   529  0005                     	;# 
   530  0006                     	;# 
   531  0007                     	;# 
   532  0008                     	;# 
   533  0009                     	;# 
   534  000A                     	;# 
   535  000B                     	;# 
   536  000C                     	;# 
   537  000D                     	;# 
   538  000E                     	;# 
   539  000E                     	;# 
   540  000F                     	;# 
   541  0010                     	;# 
   542  0011                     	;# 
   543  0012                     	;# 
   544  0013                     	;# 
   545  0014                     	;# 
   546  0015                     	;# 
   547  0015                     	;# 
   548  0016                     	;# 
   549  0017                     	;# 
   550  0018                     	;# 
   551  0019                     	;# 
   552  001A                     	;# 
   553  001B                     	;# 
   554  001B                     	;# 
   555  001C                     	;# 
   556  001D                     	;# 
   557  001E                     	;# 
   558  001F                     	;# 
   559  0081                     	;# 
   560  0085                     	;# 
   561  0086                     	;# 
   562  0087                     	;# 
   563  0088                     	;# 
   564  0089                     	;# 
   565  008C                     	;# 
   566  008D                     	;# 
   567  008E                     	;# 
   568  008F                     	;# 
   569  0090                     	;# 
   570  0091                     	;# 
   571  0092                     	;# 
   572  0093                     	;# 
   573  0093                     	;# 
   574  0093                     	;# 
   575  0094                     	;# 
   576  0095                     	;# 
   577  0096                     	;# 
   578  0097                     	;# 
   579  0098                     	;# 
   580  0099                     	;# 
   581  009A                     	;# 
   582  009B                     	;# 
   583  009C                     	;# 
   584  009D                     	;# 
   585  009E                     	;# 
   586  009F                     	;# 
   587  0105                     	;# 
   588  0107                     	;# 
   589  0108                     	;# 
   590  0109                     	;# 
   591  010C                     	;# 
   592  010C                     	;# 
   593  010D                     	;# 
   594  010E                     	;# 
   595  010F                     	;# 
   596  0185                     	;# 
   597  0187                     	;# 
   598  0188                     	;# 
   599  0189                     	;# 
   600  018C                     	;# 
   601  018D                     	;# 
   602  0014                     _SSPCON	set	20
   603  0009                     _PORTEbits	set	9
   604  001F                     _ADCON0bits	set	31
   605  0005                     _PORTA	set	5
   606  000B                     _INTCONbits	set	11
   607  0010                     _T1CONbits	set	16
   608  0006                     _PORTBbits	set	6
   609  000E                     _TMR1L	set	14
   610  000F                     _TMR1H	set	15
   611  0013                     _SSPBUF	set	19
   612  0014                     _SSPCONbits	set	20
   613  000C                     _PIR1bits	set	12
   614  0091                     _SSPCON2bits	set	145
   615  0087                     _TRISCbits	set	135
   616  0094                     _SSPSTAT	set	148
   617  0093                     _SSPADD	set	147
   618  0091                     _SSPCON2	set	145
   619  008F                     _OSCCONbits	set	143
   620  008C                     _PIE1bits	set	140
   621  009F                     _ADCON1bits	set	159
   622  0089                     _TRISE	set	137
   623  0085                     _TRISA	set	133
   624  0086                     _TRISBbits	set	134
   625  0094                     _SSPSTATbits	set	148
   626  048C                     _ACKEN	set	1164
   627  0189                     _ANSELH	set	393
   628  0188                     _ANSEL	set	392
   629                           
   630                           ; #config settings
   631  0000                     
   632                           	psect	cinit
   633  000F                     start_initialization:	
   634  000F                     __initialization:	
   635                           
   636                           ; Clear objects allocated to COMMON
   637  000F  01F7               	clrf	__pbssCOMMON& (0+127)
   638  0010  01F8               	clrf	(__pbssCOMMON+1)& (0+127)
   639  0011  01F9               	clrf	(__pbssCOMMON+2)& (0+127)
   640  0012  01FA               	clrf	(__pbssCOMMON+3)& (0+127)
   641  0013                     end_of_initialization:	
   642                           ;End of C runtime variable initialization code
   643                           
   644  0013                     __end_of__initialization:	
   645  0013  0183               	clrf	3
   646  0014  120A  118A  2947   	ljmp	_main	;jump to C main() function
   647                           
   648                           	psect	bssCOMMON
   649  0077                     __pbssCOMMON:	
   650  0077                     _distancia:	
   651  0077                     	ds	2
   652  0079                     _z:	
   653  0079                     	ds	1
   654  007A                     _x:	
   655  007A                     	ds	1
   656                           
   657                           	psect	cstackCOMMON
   658  0070                     __pcstackCOMMON:	
   659  0070                     ?_setup:	
   660  0070                     ?_oscInit:	
   661                           ; 1 bytes @ 0x0
   662                           
   663  0070                     ?_lcd8_init:	
   664                           ; 1 bytes @ 0x0
   665                           
   666  0070                     ?_tmr1_Init:	
   667                           ; 1 bytes @ 0x0
   668                           
   669  0070                     ?_tmr1_Prescaler:	
   670                           ; 1 bytes @ 0x0
   671                           
   672  0070                     ?_tmr1_Interrupt:	
   673                           ; 1 bytes @ 0x0
   674                           
   675  0070                     ?_lcd8_cmd:	
   676                           ; 1 bytes @ 0x0
   677                           
   678  0070                     ?_delay_1ms:	
   679                           ; 1 bytes @ 0x0
   680                           
   681  0070                     ?_ISR:	
   682                           ; 1 bytes @ 0x0
   683                           
   684  0070                     ??_ISR:	
   685                           ; 1 bytes @ 0x0
   686                           
   687  0070                     ?_main:	
   688                           ; 1 bytes @ 0x0
   689                           
   690                           
   691                           ; 1 bytes @ 0x0
   692  0070                     	ds	3
   693  0073                     ??_setup:	
   694  0073                     ??_oscInit:	
   695                           ; 1 bytes @ 0x3
   696                           
   697  0073                     ??_tmr1_Init:	
   698                           ; 1 bytes @ 0x3
   699                           
   700  0073                     ??_tmr1_Prescaler:	
   701                           ; 1 bytes @ 0x3
   702                           
   703  0073                     ??_tmr1_Interrupt:	
   704                           ; 1 bytes @ 0x3
   705                           
   706  0073                     ?_i2c_slave_init:	
   707                           ; 1 bytes @ 0x3
   708                           
   709  0073                     ??_delay_1ms:	
   710                           ; 1 bytes @ 0x3
   711                           
   712  0073                     tmr1_Interrupt@tmr1_Int:	
   713                           ; 1 bytes @ 0x3
   714                           
   715  0073                     delay_1ms@i:	
   716                           ; 1 bytes @ 0x3
   717                           
   718  0073                     i2c_slave_init@address:	
   719                           ; 2 bytes @ 0x3
   720                           
   721                           
   722                           ; 2 bytes @ 0x3
   723  0073                     	ds	2
   724  0075                     ??_i2c_slave_init:	
   725  0075                     ??_lcd8_cmd:	
   726                           ; 1 bytes @ 0x5
   727                           
   728  0075                     oscInit@freq:	
   729                           ; 1 bytes @ 0x5
   730                           
   731  0075                     tmr1_Prescaler@prescaler:	
   732                           ; 1 bytes @ 0x5
   733                           
   734  0075                     lcd8_cmd@cmd:	
   735                           ; 1 bytes @ 0x5
   736                           
   737                           
   738                           ; 1 bytes @ 0x5
   739  0075                     	ds	1
   740  0076                     ??_main:	
   741                           
   742                           ; 1 bytes @ 0x6
   743  0076                     	ds	1
   744                           
   745                           	psect	cstackBANK0
   746  0020                     __pcstackBANK0:	
   747  0020                     ??_lcd8_init:	
   748                           
   749                           ; 1 bytes @ 0x0
   750  0020                     	ds	2
   751                           
   752                           	psect	maintext
   753  0147                     __pmaintext:	
   754 ;;
   755 ;;Main: autosize = 0, tempsize = 1, incstack = 0, save=0
   756 ;;
   757 ;; *************** function _main *****************
   758 ;; Defined at:
   759 ;;		line 77 in file "ultrasonico.c"
   760 ;; Parameters:    Size  Location     Type
   761 ;;		None
   762 ;; Auto vars:     Size  Location     Type
   763 ;;		None
   764 ;; Return value:  Size  Location     Type
   765 ;;                  1    wreg      void 
   766 ;; Registers used:
   767 ;;		wreg, fsr0l, fsr0h, status,2, status,0, btemp+1, pclath, cstack
   768 ;; Tracked objects:
   769 ;;		On entry : B00/0
   770 ;;		On exit  : 0/0
   771 ;;		Unchanged: 0/0
   772 ;; Data sizes:     COMMON   BANK0   BANK1   BANK3   BANK2
   773 ;;      Params:         0       0       0       0       0
   774 ;;      Locals:         0       0       0       0       0
   775 ;;      Temps:          1       0       0       0       0
   776 ;;      Totals:         1       0       0       0       0
   777 ;;Total ram usage:        1 bytes
   778 ;; Hardware stack levels required when called:    4
   779 ;; This function calls:
   780 ;;		_i2c_slave_init
   781 ;;		_lcd8_init
   782 ;;		_oscInit
   783 ;;		_setup
   784 ;;		_tmr1_Init
   785 ;;		_tmr1_Interrupt
   786 ;;		_tmr1_Prescaler
   787 ;; This function is called by:
   788 ;;		Startup code after reset
   789 ;; This function uses a non-reentrant model
   790 ;;
   791                           
   792                           
   793                           ;psect for function _main
   794  0147                     _main:	
   795  0147                     l1253:	
   796                           ;incstack = 0
   797                           ; Regs used in _main: [wreg-fsr0h+status,2+status,0+btemp+1+pclath+cstack]
   798                           
   799                           
   800                           ;ultrasonico.c: 78:     setup();
   801  0147  120A  118A  21ED  120A  118A  	fcall	_setup
   802  014C                     l1255:	
   803                           
   804                           ;ultrasonico.c: 79:     oscInit(1);
   805  014C  3001               	movlw	1
   806  014D  120A  118A  2017  120A  118A  	fcall	_oscInit
   807  0152                     l1257:	
   808                           
   809                           ;ultrasonico.c: 80:     lcd8_init();
   810  0152  120A  118A  20EA  120A  118A  	fcall	_lcd8_init
   811  0157                     l1259:	
   812                           
   813                           ;ultrasonico.c: 81:     tmr1_Init();
   814  0157  120A  118A  221E  120A  118A  	fcall	_tmr1_Init
   815  015C                     l1261:	
   816                           
   817                           ;ultrasonico.c: 82:     tmr1_Prescaler(1);
   818  015C  3001               	movlw	1
   819  015D  120A  118A  2191  120A  118A  	fcall	_tmr1_Prescaler
   820  0162                     l1263:	
   821                           
   822                           ;ultrasonico.c: 83:     tmr1_Interrupt(0);
   823  0162  3000               	movlw	0
   824  0163  120A  118A  2212  120A  118A  	fcall	_tmr1_Interrupt
   825  0168                     l1265:	
   826                           
   827                           ;ultrasonico.c: 84:     i2c_slave_init(0x10);
   828  0168  3010               	movlw	16
   829  0169  00F3               	movwf	i2c_slave_init@address
   830  016A  3000               	movlw	0
   831  016B  00F4               	movwf	i2c_slave_init@address+1
   832  016C  120A  118A  21BE  120A  118A  	fcall	_i2c_slave_init
   833  0171                     l1267:	
   834                           
   835                           ;ultrasonico.c: 87:         TMR1H = 0;
   836  0171  1283               	bcf	3,5	;RP0=0, select bank0
   837  0172  1303               	bcf	3,6	;RP1=0, select bank0
   838  0173  018F               	clrf	15	;volatile
   839  0174                     l1269:	
   840                           
   841                           ;ultrasonico.c: 88:         TMR1L = 0;
   842  0174  018E               	clrf	14	;volatile
   843  0175                     l1271:	
   844                           
   845                           ;ultrasonico.c: 89:         PORTBbits.RB0 = 1;
   846  0175  1406               	bsf	6,0	;volatile
   847  0176                     l1273:	
   848                           
   849                           ;ultrasonico.c: 90:         _delay((unsigned long)((10)*(4000000/4000000.0)));
   850  0176  3003               	movlw	3
   851  0177  00F6               	movwf	??_main
   852  0178                     u257:	
   853  0178  0BF6               	decfsz	??_main,f
   854  0179  2978               	goto	u257
   855  017A                     l1275:	
   856                           
   857                           ;ultrasonico.c: 91:         PORTBbits.RB0 = 0;
   858  017A  1283               	bcf	3,5	;RP0=0, select bank0
   859  017B  1303               	bcf	3,6	;RP1=0, select bank0
   860  017C  1006               	bcf	6,0	;volatile
   861  017D                     l76:	
   862                           ;ultrasonico.c: 92:         while(!PORTBbits.RB1);
   863                           
   864  017D  1C86               	btfss	6,1	;volatile
   865  017E  2980               	goto	u231
   866  017F  2981               	goto	u230
   867  0180                     u231:	
   868  0180  297D               	goto	l76
   869  0181                     u230:	
   870  0181                     l78:	
   871                           
   872                           ;ultrasonico.c: 93:         T1CONbits.TMR1ON = 1;
   873  0181  1410               	bsf	16,0	;volatile
   874  0182                     l79:	
   875                           ;ultrasonico.c: 94:         while(PORTBbits.RB1);
   876                           
   877  0182  1886               	btfsc	6,1	;volatile
   878  0183  2985               	goto	u241
   879  0184  2986               	goto	u240
   880  0185                     u241:	
   881  0185  2982               	goto	l79
   882  0186                     u240:	
   883  0186                     l81:	
   884                           
   885                           ;ultrasonico.c: 95:         T1CONbits.TMR1ON = 0;
   886  0186  1010               	bcf	16,0	;volatile
   887                           
   888                           ;ultrasonico.c: 97:         (INTCONbits.GIE = 0);
   889  0187  138B               	bcf	11,7	;volatile
   890  0188                     l1277:	
   891                           
   892                           ;ultrasonico.c: 98:         distancia = (TMR1L | (TMR1H<<8));
   893  0188  080F               	movf	15,w	;volatile
   894  0189  00F8               	movwf	_distancia+1
   895  018A  080E               	movf	14,w	;volatile
   896  018B  00F7               	movwf	_distancia
   897  018C                     l1279:	
   898                           
   899                           ;ultrasonico.c: 99:         (INTCONbits.GIE = 1);
   900  018C  178B               	bsf	11,7	;volatile
   901  018D  2971               	goto	l1267
   902  018E  120A  118A  280C   	ljmp	start
   903  0191                     __end_of_main:	
   904                           
   905                           	psect	text1
   906  0191                     __ptext1:	
   907 ;; *************** function _tmr1_Prescaler *****************
   908 ;; Defined at:
   909 ;;		line 22 in file "TMR1.c"
   910 ;; Parameters:    Size  Location     Type
   911 ;;  prescaler       1    wreg     unsigned char 
   912 ;; Auto vars:     Size  Location     Type
   913 ;;  prescaler       1    5[COMMON] unsigned char 
   914 ;; Return value:  Size  Location     Type
   915 ;;                  1    wreg      void 
   916 ;; Registers used:
   917 ;;		wreg, fsr0l, fsr0h, status,2, status,0
   918 ;; Tracked objects:
   919 ;;		On entry : 0/0
   920 ;;		On exit  : 0/0
   921 ;;		Unchanged: 0/0
   922 ;; Data sizes:     COMMON   BANK0   BANK1   BANK3   BANK2
   923 ;;      Params:         0       0       0       0       0
   924 ;;      Locals:         1       0       0       0       0
   925 ;;      Temps:          2       0       0       0       0
   926 ;;      Totals:         3       0       0       0       0
   927 ;;Total ram usage:        3 bytes
   928 ;; Hardware stack levels used:    1
   929 ;; Hardware stack levels required when called:    1
   930 ;; This function calls:
   931 ;;		Nothing
   932 ;; This function is called by:
   933 ;;		_main
   934 ;; This function uses a non-reentrant model
   935 ;;
   936                           
   937                           
   938                           ;psect for function _tmr1_Prescaler
   939  0191                     _tmr1_Prescaler:	
   940                           
   941                           ;incstack = 0
   942                           ; Regs used in _tmr1_Prescaler: [wreg-fsr0h+status,2+status,0]
   943                           ;tmr1_Prescaler@prescaler stored from wreg
   944  0191  00F5               	movwf	tmr1_Prescaler@prescaler
   945  0192                     l911:	
   946                           
   947                           ;TMR1.c: 23:     switch(prescaler){
   948  0192  29A7               	goto	l915
   949  0193                     l160:	
   950                           ;TMR1.c: 24:         case 0:
   951                           
   952                           
   953                           ;TMR1.c: 25:             T1CONbits.T1CKPS1 = 0;
   954  0193  1283               	bcf	3,5	;RP0=0, select bank0
   955  0194  1303               	bcf	3,6	;RP1=0, select bank0
   956  0195  1290               	bcf	16,5	;volatile
   957                           
   958                           ;TMR1.c: 26:             T1CONbits.T1CKPS0 = 0;
   959  0196  1210               	bcf	16,4	;volatile
   960                           
   961                           ;TMR1.c: 27:             break;
   962  0197  29BD               	goto	l165
   963  0198                     l162:	
   964                           ;TMR1.c: 28:         case 1:
   965                           
   966                           
   967                           ;TMR1.c: 29:             T1CONbits.T1CKPS1 = 0;
   968  0198  1283               	bcf	3,5	;RP0=0, select bank0
   969  0199  1303               	bcf	3,6	;RP1=0, select bank0
   970  019A  1290               	bcf	16,5	;volatile
   971                           
   972                           ;TMR1.c: 30:             T1CONbits.T1CKPS0 = 1;
   973  019B  1610               	bsf	16,4	;volatile
   974                           
   975                           ;TMR1.c: 31:             break;
   976  019C  29BD               	goto	l165
   977  019D                     l163:	
   978                           ;TMR1.c: 32:         case 2:
   979                           
   980                           
   981                           ;TMR1.c: 33:             T1CONbits.T1CKPS1 = 1;
   982  019D  1283               	bcf	3,5	;RP0=0, select bank0
   983  019E  1303               	bcf	3,6	;RP1=0, select bank0
   984  019F  1690               	bsf	16,5	;volatile
   985                           
   986                           ;TMR1.c: 34:             T1CONbits.T1CKPS0 = 0;
   987  01A0  1210               	bcf	16,4	;volatile
   988                           
   989                           ;TMR1.c: 35:             break;
   990  01A1  29BD               	goto	l165
   991  01A2                     l164:	
   992                           ;TMR1.c: 36:         case 3:
   993                           
   994                           
   995                           ;TMR1.c: 37:             T1CONbits.T1CKPS1 = 1;
   996  01A2  1283               	bcf	3,5	;RP0=0, select bank0
   997  01A3  1303               	bcf	3,6	;RP1=0, select bank0
   998  01A4  1690               	bsf	16,5	;volatile
   999                           
  1000                           ;TMR1.c: 38:             T1CONbits.T1CKPS0 = 1;
  1001  01A5  1610               	bsf	16,4	;volatile
  1002                           
  1003                           ;TMR1.c: 39:             break;
  1004  01A6  29BD               	goto	l165
  1005  01A7                     l915:	
  1006  01A7  0875               	movf	tmr1_Prescaler@prescaler,w
  1007  01A8  00F3               	movwf	??_tmr1_Prescaler
  1008  01A9  01F4               	clrf	??_tmr1_Prescaler+1
  1009                           
  1010                           ; Switch on 2 bytes has been partitioned into a top level switch of size 1, and 1 sub-sw
      +                          itches
  1011                           ; Switch size 1, requested type "simple"
  1012                           ; Number of cases is 1, Range of values is 0 to 0
  1013                           ; switch strategies available:
  1014                           ; Name         Instructions Cycles
  1015                           ; simple_byte            4     3 (average)
  1016                           ; direct_byte           11     8 (fixed)
  1017                           ; jumptable            260     6 (fixed)
  1018                           ;	Chosen strategy is simple_byte
  1019  01AA  0874               	movf	??_tmr1_Prescaler+1,w
  1020  01AB  3A00               	xorlw	0	; case 0
  1021  01AC  1903               	skipnz
  1022  01AD  29AF               	goto	l1321
  1023  01AE  29BD               	goto	l165
  1024  01AF                     l1321:	
  1025                           
  1026                           ; Switch size 1, requested type "simple"
  1027                           ; Number of cases is 4, Range of values is 0 to 3
  1028                           ; switch strategies available:
  1029                           ; Name         Instructions Cycles
  1030                           ; simple_byte           13     7 (average)
  1031                           ; direct_byte           20     8 (fixed)
  1032                           ; jumptable            260     6 (fixed)
  1033                           ;	Chosen strategy is simple_byte
  1034  01AF  0873               	movf	??_tmr1_Prescaler,w
  1035  01B0  3A00               	xorlw	0	; case 0
  1036  01B1  1903               	skipnz
  1037  01B2  2993               	goto	l160
  1038  01B3  3A01               	xorlw	1	; case 1
  1039  01B4  1903               	skipnz
  1040  01B5  2998               	goto	l162
  1041  01B6  3A03               	xorlw	3	; case 2
  1042  01B7  1903               	skipnz
  1043  01B8  299D               	goto	l163
  1044  01B9  3A01               	xorlw	1	; case 3
  1045  01BA  1903               	skipnz
  1046  01BB  29A2               	goto	l164
  1047  01BC  29BD               	goto	l165
  1048  01BD                     l165:	
  1049  01BD  0008               	return
  1050  01BE                     __end_of_tmr1_Prescaler:	
  1051                           
  1052                           	psect	text2
  1053  0212                     __ptext2:	
  1054 ;; *************** function _tmr1_Interrupt *****************
  1055 ;; Defined at:
  1056 ;;		line 43 in file "TMR1.c"
  1057 ;; Parameters:    Size  Location     Type
  1058 ;;  tmr1_Int        1    wreg     unsigned char 
  1059 ;; Auto vars:     Size  Location     Type
  1060 ;;  tmr1_Int        1    3[COMMON] unsigned char 
  1061 ;; Return value:  Size  Location     Type
  1062 ;;                  1    wreg      void 
  1063 ;; Registers used:
  1064 ;;		wreg, status,0
  1065 ;; Tracked objects:
  1066 ;;		On entry : 0/0
  1067 ;;		On exit  : 0/0
  1068 ;;		Unchanged: 0/0
  1069 ;; Data sizes:     COMMON   BANK0   BANK1   BANK3   BANK2
  1070 ;;      Params:         0       0       0       0       0
  1071 ;;      Locals:         1       0       0       0       0
  1072 ;;      Temps:          0       0       0       0       0
  1073 ;;      Totals:         1       0       0       0       0
  1074 ;;Total ram usage:        1 bytes
  1075 ;; Hardware stack levels used:    1
  1076 ;; Hardware stack levels required when called:    1
  1077 ;; This function calls:
  1078 ;;		Nothing
  1079 ;; This function is called by:
  1080 ;;		_main
  1081 ;; This function uses a non-reentrant model
  1082 ;;
  1083                           
  1084                           
  1085                           ;psect for function _tmr1_Interrupt
  1086  0212                     _tmr1_Interrupt:	
  1087                           
  1088                           ;incstack = 0
  1089                           ; Regs used in _tmr1_Interrupt: [wreg+status,0]
  1090                           ;tmr1_Interrupt@tmr1_Int stored from wreg
  1091  0212  00F3               	movwf	tmr1_Interrupt@tmr1_Int
  1092  0213                     l921:	
  1093                           
  1094                           ;TMR1.c: 44:     PIE1bits.TMR1IE = tmr1_Int;
  1095  0213  0C73               	rrf	tmr1_Interrupt@tmr1_Int,w
  1096  0214  1683               	bsf	3,5	;RP0=1, select bank1
  1097  0215  1303               	bcf	3,6	;RP1=0, select bank1
  1098  0216  1C03               	skipc
  1099  0217  100C               	bcf	12,0	;volatile
  1100  0218  1803               	skipnc
  1101  0219  140C               	bsf	12,0	;volatile
  1102  021A                     l923:	
  1103                           
  1104                           ;TMR1.c: 45:     PIR1bits.TMR1IF = 0;
  1105  021A  1283               	bcf	3,5	;RP0=0, select bank0
  1106  021B  1303               	bcf	3,6	;RP1=0, select bank0
  1107  021C  100C               	bcf	12,0	;volatile
  1108  021D                     l168:	
  1109  021D  0008               	return
  1110  021E                     __end_of_tmr1_Interrupt:	
  1111                           
  1112                           	psect	text3
  1113  021E                     __ptext3:	
  1114 ;; *************** function _tmr1_Init *****************
  1115 ;; Defined at:
  1116 ;;		line 16 in file "TMR1.c"
  1117 ;; Parameters:    Size  Location     Type
  1118 ;;		None
  1119 ;; Auto vars:     Size  Location     Type
  1120 ;;		None
  1121 ;; Return value:  Size  Location     Type
  1122 ;;                  1    wreg      void 
  1123 ;; Registers used:
  1124 ;;		None
  1125 ;; Tracked objects:
  1126 ;;		On entry : 0/0
  1127 ;;		On exit  : 0/0
  1128 ;;		Unchanged: 0/0
  1129 ;; Data sizes:     COMMON   BANK0   BANK1   BANK3   BANK2
  1130 ;;      Params:         0       0       0       0       0
  1131 ;;      Locals:         0       0       0       0       0
  1132 ;;      Temps:          0       0       0       0       0
  1133 ;;      Totals:         0       0       0       0       0
  1134 ;;Total ram usage:        0 bytes
  1135 ;; Hardware stack levels used:    1
  1136 ;; Hardware stack levels required when called:    1
  1137 ;; This function calls:
  1138 ;;		Nothing
  1139 ;; This function is called by:
  1140 ;;		_main
  1141 ;; This function uses a non-reentrant model
  1142 ;;
  1143                           
  1144                           
  1145                           ;psect for function _tmr1_Init
  1146  021E                     _tmr1_Init:	
  1147  021E                     l909:	
  1148                           ;incstack = 0
  1149                           ; Regs used in _tmr1_Init: []
  1150                           
  1151                           
  1152                           ;TMR1.c: 17:     T1CONbits.T1OSCEN = 0;
  1153  021E  1283               	bcf	3,5	;RP0=0, select bank0
  1154  021F  1303               	bcf	3,6	;RP1=0, select bank0
  1155  0220  1190               	bcf	16,3	;volatile
  1156                           
  1157                           ;TMR1.c: 18:     T1CONbits.TMR1CS = 0;
  1158  0221  1090               	bcf	16,1	;volatile
  1159                           
  1160                           ;TMR1.c: 19:     T1CONbits.TMR1ON = 1;
  1161  0222  1410               	bsf	16,0	;volatile
  1162  0223                     l156:	
  1163  0223  0008               	return
  1164  0224                     __end_of_tmr1_Init:	
  1165                           
  1166                           	psect	text4
  1167  01ED                     __ptext4:	
  1168 ;; *************** function _setup *****************
  1169 ;; Defined at:
  1170 ;;		line 124 in file "ultrasonico.c"
  1171 ;; Parameters:    Size  Location     Type
  1172 ;;		None
  1173 ;; Auto vars:     Size  Location     Type
  1174 ;;		None
  1175 ;; Return value:  Size  Location     Type
  1176 ;;                  1    wreg      void 
  1177 ;; Registers used:
  1178 ;;		status,2
  1179 ;; Tracked objects:
  1180 ;;		On entry : 0/0
  1181 ;;		On exit  : 0/0
  1182 ;;		Unchanged: 0/0
  1183 ;; Data sizes:     COMMON   BANK0   BANK1   BANK3   BANK2
  1184 ;;      Params:         0       0       0       0       0
  1185 ;;      Locals:         0       0       0       0       0
  1186 ;;      Temps:          0       0       0       0       0
  1187 ;;      Totals:         0       0       0       0       0
  1188 ;;Total ram usage:        0 bytes
  1189 ;; Hardware stack levels used:    1
  1190 ;; Hardware stack levels required when called:    1
  1191 ;; This function calls:
  1192 ;;		Nothing
  1193 ;; This function is called by:
  1194 ;;		_main
  1195 ;; This function uses a non-reentrant model
  1196 ;;
  1197                           
  1198                           
  1199                           ;psect for function _setup
  1200  01ED                     _setup:	
  1201  01ED                     l873:	
  1202                           ;incstack = 0
  1203                           ; Regs used in _setup: [status,2]
  1204                           
  1205                           
  1206                           ;ultrasonico.c: 125:     PORTBbits.RB0 = 0;
  1207  01ED  1283               	bcf	3,5	;RP0=0, select bank0
  1208  01EE  1303               	bcf	3,6	;RP1=0, select bank0
  1209  01EF  1006               	bcf	6,0	;volatile
  1210                           
  1211                           ;ultrasonico.c: 126:     PORTBbits.RB1 = 0;
  1212  01F0  1086               	bcf	6,1	;volatile
  1213                           
  1214                           ;ultrasonico.c: 127:     TRISBbits.TRISB0 = 0;
  1215  01F1  1683               	bsf	3,5	;RP0=1, select bank1
  1216  01F2  1303               	bcf	3,6	;RP1=0, select bank1
  1217  01F3  1006               	bcf	6,0	;volatile
  1218                           
  1219                           ;ultrasonico.c: 128:     TRISBbits.TRISB1 = 1;
  1220  01F4  1486               	bsf	6,1	;volatile
  1221  01F5                     l875:	
  1222                           
  1223                           ;ultrasonico.c: 129:     TRISA = 0x00;
  1224  01F5  0185               	clrf	5	;volatile
  1225                           
  1226                           ;ultrasonico.c: 130:     PORTA = 0x00;
  1227  01F6  1283               	bcf	3,5	;RP0=0, select bank0
  1228  01F7  1303               	bcf	3,6	;RP1=0, select bank0
  1229  01F8  0185               	clrf	5	;volatile
  1230                           
  1231                           ;ultrasonico.c: 131:     ANSEL = 0;
  1232  01F9  1683               	bsf	3,5	;RP0=1, select bank3
  1233  01FA  1703               	bsf	3,6	;RP1=1, select bank3
  1234  01FB  0188               	clrf	8	;volatile
  1235                           
  1236                           ;ultrasonico.c: 132:     ANSELH = 0;
  1237  01FC  0189               	clrf	9	;volatile
  1238                           
  1239                           ;ultrasonico.c: 133:     TRISE = 0;
  1240  01FD  1683               	bsf	3,5	;RP0=1, select bank1
  1241  01FE  1303               	bcf	3,6	;RP1=0, select bank1
  1242  01FF  0189               	clrf	9	;volatile
  1243  0200                     l87:	
  1244  0200  0008               	return
  1245  0201                     __end_of_setup:	
  1246                           
  1247                           	psect	text5
  1248  0017                     __ptext5:	
  1249 ;; *************** function _oscInit *****************
  1250 ;; Defined at:
  1251 ;;		line 11 in file "OSCCON.c"
  1252 ;; Parameters:    Size  Location     Type
  1253 ;;  freq            1    wreg     unsigned char 
  1254 ;; Auto vars:     Size  Location     Type
  1255 ;;  freq            1    5[COMMON] unsigned char 
  1256 ;; Return value:  Size  Location     Type
  1257 ;;                  1    wreg      unsigned char 
  1258 ;; Registers used:
  1259 ;;		wreg, fsr0l, fsr0h, status,2, status,0
  1260 ;; Tracked objects:
  1261 ;;		On entry : 0/0
  1262 ;;		On exit  : 0/0
  1263 ;;		Unchanged: 0/0
  1264 ;; Data sizes:     COMMON   BANK0   BANK1   BANK3   BANK2
  1265 ;;      Params:         0       0       0       0       0
  1266 ;;      Locals:         1       0       0       0       0
  1267 ;;      Temps:          2       0       0       0       0
  1268 ;;      Totals:         3       0       0       0       0
  1269 ;;Total ram usage:        3 bytes
  1270 ;; Hardware stack levels used:    1
  1271 ;; Hardware stack levels required when called:    1
  1272 ;; This function calls:
  1273 ;;		Nothing
  1274 ;; This function is called by:
  1275 ;;		_main
  1276 ;; This function uses a non-reentrant model
  1277 ;;
  1278                           
  1279                           
  1280                           ;psect for function _oscInit
  1281  0017                     _oscInit:	
  1282                           
  1283                           ;incstack = 0
  1284                           ; Regs used in _oscInit: [wreg-fsr0h+status,2+status,0]
  1285                           ;oscInit@freq stored from wreg
  1286  0017  00F5               	movwf	oscInit@freq
  1287  0018                     l877:	
  1288                           
  1289                           ;OSCCON.c: 12:     switch(freq){
  1290  0018  2869               	goto	l881
  1291  0019                     l138:	
  1292                           ;OSCCON.c: 13:         case 0:
  1293                           
  1294                           
  1295                           ;OSCCON.c: 14:             OSCCONbits.IRCF2 = 1;
  1296  0019  1683               	bsf	3,5	;RP0=1, select bank1
  1297  001A  1303               	bcf	3,6	;RP1=0, select bank1
  1298  001B  170F               	bsf	15,6	;volatile
  1299                           
  1300                           ;OSCCON.c: 15:             OSCCONbits.IRCF1 = 1;
  1301  001C  168F               	bsf	15,5	;volatile
  1302                           
  1303                           ;OSCCON.c: 16:             OSCCONbits.IRCF0 = 1;
  1304  001D  160F               	bsf	15,4	;volatile
  1305                           
  1306                           ;OSCCON.c: 17:             OSCCONbits.OSTS = 0;
  1307  001E  118F               	bcf	15,3	;volatile
  1308                           
  1309                           ;OSCCON.c: 18:             OSCCONbits.HTS = 1;
  1310  001F  150F               	bsf	15,2	;volatile
  1311                           
  1312                           ;OSCCON.c: 19:             OSCCONbits.LTS = 0;
  1313  0020  108F               	bcf	15,1	;volatile
  1314                           
  1315                           ;OSCCON.c: 20:             OSCCONbits.SCS = 1;
  1316  0021  140F               	bsf	15,0	;volatile
  1317                           
  1318                           ;OSCCON.c: 21:             break;
  1319  0022  288B               	goto	l147
  1320  0023                     l140:	
  1321                           ;OSCCON.c: 22:         case 1:
  1322                           
  1323                           
  1324                           ;OSCCON.c: 23:             OSCCONbits.IRCF2 = 1;
  1325  0023  1683               	bsf	3,5	;RP0=1, select bank1
  1326  0024  1303               	bcf	3,6	;RP1=0, select bank1
  1327  0025  170F               	bsf	15,6	;volatile
  1328                           
  1329                           ;OSCCON.c: 24:             OSCCONbits.IRCF1 = 1;
  1330  0026  168F               	bsf	15,5	;volatile
  1331                           
  1332                           ;OSCCON.c: 25:             OSCCONbits.IRCF0 = 0;
  1333  0027  120F               	bcf	15,4	;volatile
  1334                           
  1335                           ;OSCCON.c: 26:             OSCCONbits.OSTS = 0;
  1336  0028  118F               	bcf	15,3	;volatile
  1337                           
  1338                           ;OSCCON.c: 27:             OSCCONbits.HTS = 1;
  1339  0029  150F               	bsf	15,2	;volatile
  1340                           
  1341                           ;OSCCON.c: 28:             OSCCONbits.LTS = 0;
  1342  002A  108F               	bcf	15,1	;volatile
  1343                           
  1344                           ;OSCCON.c: 29:             OSCCONbits.SCS = 1;
  1345  002B  140F               	bsf	15,0	;volatile
  1346                           
  1347                           ;OSCCON.c: 30:             break;
  1348  002C  288B               	goto	l147
  1349  002D                     l141:	
  1350                           ;OSCCON.c: 31:         case 2:
  1351                           
  1352                           
  1353                           ;OSCCON.c: 32:             OSCCONbits.IRCF2 = 1;
  1354  002D  1683               	bsf	3,5	;RP0=1, select bank1
  1355  002E  1303               	bcf	3,6	;RP1=0, select bank1
  1356  002F  170F               	bsf	15,6	;volatile
  1357                           
  1358                           ;OSCCON.c: 33:             OSCCONbits.IRCF1 = 0;
  1359  0030  128F               	bcf	15,5	;volatile
  1360                           
  1361                           ;OSCCON.c: 34:             OSCCONbits.IRCF0 = 1;
  1362  0031  160F               	bsf	15,4	;volatile
  1363                           
  1364                           ;OSCCON.c: 35:             OSCCONbits.OSTS = 0;
  1365  0032  118F               	bcf	15,3	;volatile
  1366                           
  1367                           ;OSCCON.c: 36:             OSCCONbits.HTS = 1;
  1368  0033  150F               	bsf	15,2	;volatile
  1369                           
  1370                           ;OSCCON.c: 37:             OSCCONbits.LTS = 0;
  1371  0034  108F               	bcf	15,1	;volatile
  1372                           
  1373                           ;OSCCON.c: 38:             OSCCONbits.SCS = 1;
  1374  0035  140F               	bsf	15,0	;volatile
  1375                           
  1376                           ;OSCCON.c: 39:             break;
  1377  0036  288B               	goto	l147
  1378  0037                     l142:	
  1379                           ;OSCCON.c: 40:         case 3:
  1380                           
  1381                           
  1382                           ;OSCCON.c: 41:             OSCCONbits.IRCF2 = 1;
  1383  0037  1683               	bsf	3,5	;RP0=1, select bank1
  1384  0038  1303               	bcf	3,6	;RP1=0, select bank1
  1385  0039  170F               	bsf	15,6	;volatile
  1386                           
  1387                           ;OSCCON.c: 42:             OSCCONbits.IRCF1 = 0;
  1388  003A  128F               	bcf	15,5	;volatile
  1389                           
  1390                           ;OSCCON.c: 43:             OSCCONbits.IRCF0 = 0;
  1391  003B  120F               	bcf	15,4	;volatile
  1392                           
  1393                           ;OSCCON.c: 44:             OSCCONbits.OSTS = 0;
  1394  003C  118F               	bcf	15,3	;volatile
  1395                           
  1396                           ;OSCCON.c: 45:             OSCCONbits.HTS = 1;
  1397  003D  150F               	bsf	15,2	;volatile
  1398                           
  1399                           ;OSCCON.c: 46:             OSCCONbits.LTS = 0;
  1400  003E  108F               	bcf	15,1	;volatile
  1401                           
  1402                           ;OSCCON.c: 47:             OSCCONbits.SCS = 1;
  1403  003F  140F               	bsf	15,0	;volatile
  1404                           
  1405                           ;OSCCON.c: 48:             break;
  1406  0040  288B               	goto	l147
  1407  0041                     l143:	
  1408                           ;OSCCON.c: 49:         case 4:
  1409                           
  1410                           
  1411                           ;OSCCON.c: 50:             OSCCONbits.IRCF2 = 0;
  1412  0041  1683               	bsf	3,5	;RP0=1, select bank1
  1413  0042  1303               	bcf	3,6	;RP1=0, select bank1
  1414  0043  130F               	bcf	15,6	;volatile
  1415                           
  1416                           ;OSCCON.c: 51:             OSCCONbits.IRCF1 = 1;
  1417  0044  168F               	bsf	15,5	;volatile
  1418                           
  1419                           ;OSCCON.c: 52:             OSCCONbits.IRCF0 = 1;
  1420  0045  160F               	bsf	15,4	;volatile
  1421                           
  1422                           ;OSCCON.c: 53:             OSCCONbits.OSTS = 0;
  1423  0046  118F               	bcf	15,3	;volatile
  1424                           
  1425                           ;OSCCON.c: 54:             OSCCONbits.HTS = 1;
  1426  0047  150F               	bsf	15,2	;volatile
  1427                           
  1428                           ;OSCCON.c: 55:             OSCCONbits.LTS = 0;
  1429  0048  108F               	bcf	15,1	;volatile
  1430                           
  1431                           ;OSCCON.c: 56:             OSCCONbits.SCS = 1;
  1432  0049  140F               	bsf	15,0	;volatile
  1433                           
  1434                           ;OSCCON.c: 57:             break;
  1435  004A  288B               	goto	l147
  1436  004B                     l144:	
  1437                           ;OSCCON.c: 58:         case 5:
  1438                           
  1439                           
  1440                           ;OSCCON.c: 59:             OSCCONbits.IRCF2 = 0;
  1441  004B  1683               	bsf	3,5	;RP0=1, select bank1
  1442  004C  1303               	bcf	3,6	;RP1=0, select bank1
  1443  004D  130F               	bcf	15,6	;volatile
  1444                           
  1445                           ;OSCCON.c: 60:             OSCCONbits.IRCF1 = 1;
  1446  004E  168F               	bsf	15,5	;volatile
  1447                           
  1448                           ;OSCCON.c: 61:             OSCCONbits.IRCF0 = 0;
  1449  004F  120F               	bcf	15,4	;volatile
  1450                           
  1451                           ;OSCCON.c: 62:             OSCCONbits.OSTS = 0;
  1452  0050  118F               	bcf	15,3	;volatile
  1453                           
  1454                           ;OSCCON.c: 63:             OSCCONbits.HTS = 1;
  1455  0051  150F               	bsf	15,2	;volatile
  1456                           
  1457                           ;OSCCON.c: 64:             OSCCONbits.LTS = 0;
  1458  0052  108F               	bcf	15,1	;volatile
  1459                           
  1460                           ;OSCCON.c: 65:             OSCCONbits.SCS = 1;
  1461  0053  140F               	bsf	15,0	;volatile
  1462                           
  1463                           ;OSCCON.c: 66:             break;
  1464  0054  288B               	goto	l147
  1465  0055                     l145:	
  1466                           ;OSCCON.c: 67:         case 6:
  1467                           
  1468                           
  1469                           ;OSCCON.c: 68:             OSCCONbits.IRCF2 = 0;
  1470  0055  1683               	bsf	3,5	;RP0=1, select bank1
  1471  0056  1303               	bcf	3,6	;RP1=0, select bank1
  1472  0057  130F               	bcf	15,6	;volatile
  1473                           
  1474                           ;OSCCON.c: 69:             OSCCONbits.IRCF1 = 0;
  1475  0058  128F               	bcf	15,5	;volatile
  1476                           
  1477                           ;OSCCON.c: 70:             OSCCONbits.IRCF0 = 1;
  1478  0059  160F               	bsf	15,4	;volatile
  1479                           
  1480                           ;OSCCON.c: 71:             OSCCONbits.OSTS = 0;
  1481  005A  118F               	bcf	15,3	;volatile
  1482                           
  1483                           ;OSCCON.c: 72:             OSCCONbits.HTS = 1;
  1484  005B  150F               	bsf	15,2	;volatile
  1485                           
  1486                           ;OSCCON.c: 73:             OSCCONbits.LTS = 0;
  1487  005C  108F               	bcf	15,1	;volatile
  1488                           
  1489                           ;OSCCON.c: 74:             OSCCONbits.SCS = 1;
  1490  005D  140F               	bsf	15,0	;volatile
  1491                           
  1492                           ;OSCCON.c: 75:             break;
  1493  005E  288B               	goto	l147
  1494  005F                     l146:	
  1495                           ;OSCCON.c: 76:         case 7:
  1496                           
  1497                           
  1498                           ;OSCCON.c: 77:             OSCCONbits.IRCF2 = 0;
  1499  005F  1683               	bsf	3,5	;RP0=1, select bank1
  1500  0060  1303               	bcf	3,6	;RP1=0, select bank1
  1501  0061  130F               	bcf	15,6	;volatile
  1502                           
  1503                           ;OSCCON.c: 78:             OSCCONbits.IRCF1 = 0;
  1504  0062  128F               	bcf	15,5	;volatile
  1505                           
  1506                           ;OSCCON.c: 79:             OSCCONbits.IRCF0 = 0;
  1507  0063  120F               	bcf	15,4	;volatile
  1508                           
  1509                           ;OSCCON.c: 80:             OSCCONbits.OSTS = 0;
  1510  0064  118F               	bcf	15,3	;volatile
  1511                           
  1512                           ;OSCCON.c: 81:             OSCCONbits.HTS = 0;
  1513  0065  110F               	bcf	15,2	;volatile
  1514                           
  1515                           ;OSCCON.c: 82:             OSCCONbits.LTS = 1;
  1516  0066  148F               	bsf	15,1	;volatile
  1517                           
  1518                           ;OSCCON.c: 83:             OSCCONbits.SCS = 1;
  1519  0067  140F               	bsf	15,0	;volatile
  1520                           
  1521                           ;OSCCON.c: 84:             break;
  1522  0068  288B               	goto	l147
  1523  0069                     l881:	
  1524  0069  0875               	movf	oscInit@freq,w
  1525  006A  00F3               	movwf	??_oscInit
  1526  006B  01F4               	clrf	??_oscInit+1
  1527                           
  1528                           ; Switch on 2 bytes has been partitioned into a top level switch of size 1, and 1 sub-sw
      +                          itches
  1529                           ; Switch size 1, requested type "simple"
  1530                           ; Number of cases is 1, Range of values is 0 to 0
  1531                           ; switch strategies available:
  1532                           ; Name         Instructions Cycles
  1533                           ; simple_byte            4     3 (average)
  1534                           ; direct_byte           11     8 (fixed)
  1535                           ; jumptable            260     6 (fixed)
  1536                           ;	Chosen strategy is simple_byte
  1537  006C  0874               	movf	??_oscInit+1,w
  1538  006D  3A00               	xorlw	0	; case 0
  1539  006E  1903               	skipnz
  1540  006F  2871               	goto	l1323
  1541  0070  288B               	goto	l147
  1542  0071                     l1323:	
  1543                           
  1544                           ; Switch size 1, requested type "simple"
  1545                           ; Number of cases is 8, Range of values is 0 to 7
  1546                           ; switch strategies available:
  1547                           ; Name         Instructions Cycles
  1548                           ; simple_byte           25    13 (average)
  1549                           ; direct_byte           32     8 (fixed)
  1550                           ; jumptable            260     6 (fixed)
  1551                           ;	Chosen strategy is simple_byte
  1552  0071  0873               	movf	??_oscInit,w
  1553  0072  3A00               	xorlw	0	; case 0
  1554  0073  1903               	skipnz
  1555  0074  2819               	goto	l138
  1556  0075  3A01               	xorlw	1	; case 1
  1557  0076  1903               	skipnz
  1558  0077  2823               	goto	l140
  1559  0078  3A03               	xorlw	3	; case 2
  1560  0079  1903               	skipnz
  1561  007A  282D               	goto	l141
  1562  007B  3A01               	xorlw	1	; case 3
  1563  007C  1903               	skipnz
  1564  007D  2837               	goto	l142
  1565  007E  3A07               	xorlw	7	; case 4
  1566  007F  1903               	skipnz
  1567  0080  2841               	goto	l143
  1568  0081  3A01               	xorlw	1	; case 5
  1569  0082  1903               	skipnz
  1570  0083  284B               	goto	l144
  1571  0084  3A03               	xorlw	3	; case 6
  1572  0085  1903               	skipnz
  1573  0086  2855               	goto	l145
  1574  0087  3A01               	xorlw	1	; case 7
  1575  0088  1903               	skipnz
  1576  0089  285F               	goto	l146
  1577  008A  288B               	goto	l147
  1578  008B                     l147:	
  1579  008B  0008               	return
  1580  008C                     __end_of_oscInit:	
  1581                           
  1582                           	psect	text6
  1583  00EA                     __ptext6:	
  1584 ;; *************** function _lcd8_init *****************
  1585 ;; Defined at:
  1586 ;;		line 18 in file "LCD.c"
  1587 ;; Parameters:    Size  Location     Type
  1588 ;;		None
  1589 ;; Auto vars:     Size  Location     Type
  1590 ;;		None
  1591 ;; Return value:  Size  Location     Type
  1592 ;;                  1    wreg      void 
  1593 ;; Registers used:
  1594 ;;		wreg, status,2, status,0, btemp+1, pclath, cstack
  1595 ;; Tracked objects:
  1596 ;;		On entry : 0/0
  1597 ;;		On exit  : 0/0
  1598 ;;		Unchanged: 0/0
  1599 ;; Data sizes:     COMMON   BANK0   BANK1   BANK3   BANK2
  1600 ;;      Params:         0       0       0       0       0
  1601 ;;      Locals:         0       0       0       0       0
  1602 ;;      Temps:          0       2       0       0       0
  1603 ;;      Totals:         0       2       0       0       0
  1604 ;;Total ram usage:        2 bytes
  1605 ;; Hardware stack levels used:    1
  1606 ;; Hardware stack levels required when called:    3
  1607 ;; This function calls:
  1608 ;;		_lcd8_cmd
  1609 ;; This function is called by:
  1610 ;;		_main
  1611 ;; This function uses a non-reentrant model
  1612 ;;
  1613                           
  1614                           
  1615                           ;psect for function _lcd8_init
  1616  00EA                     _lcd8_init:	
  1617  00EA                     l1231:	
  1618                           ;incstack = 0
  1619                           ; Regs used in _lcd8_init: [wreg+status,2+status,0+btemp+1+pclath+cstack]
  1620                           
  1621                           
  1622                           ;LCD.c: 19:     _delay((unsigned long)((20)*(4000000/4000.0)));
  1623  00EA  301A               	movlw	26
  1624  00EB  1283               	bcf	3,5	;RP0=0, select bank0
  1625  00EC  1303               	bcf	3,6	;RP1=0, select bank0
  1626  00ED  00A1               	movwf	??_lcd8_init+1
  1627  00EE  30F7               	movlw	247
  1628  00EF  00A0               	movwf	??_lcd8_init
  1629  00F0                     u267:	
  1630  00F0  0BA0               	decfsz	??_lcd8_init,f
  1631  00F1  28F0               	goto	u267
  1632  00F2  0BA1               	decfsz	??_lcd8_init+1,f
  1633  00F3  28F0               	goto	u267
  1634  00F4  28F5               	nop2
  1635  00F5                     l1233:	
  1636                           
  1637                           ;LCD.c: 20:     lcd8_cmd(0x30);
  1638  00F5  3030               	movlw	48
  1639  00F6  120A  118A  2201  120A  118A  	fcall	_lcd8_cmd
  1640  00FB                     l1235:	
  1641                           
  1642                           ;LCD.c: 21:     _delay((unsigned long)((5)*(4000000/4000.0)));
  1643  00FB  3007               	movlw	7
  1644  00FC  1283               	bcf	3,5	;RP0=0, select bank0
  1645  00FD  1303               	bcf	3,6	;RP1=0, select bank0
  1646  00FE  00A1               	movwf	??_lcd8_init+1
  1647  00FF  307C               	movlw	124
  1648  0100  00A0               	movwf	??_lcd8_init
  1649  0101                     u277:	
  1650  0101  0BA0               	decfsz	??_lcd8_init,f
  1651  0102  2901               	goto	u277
  1652  0103  0BA1               	decfsz	??_lcd8_init+1,f
  1653  0104  2901               	goto	u277
  1654  0105  0000               	nop
  1655                           
  1656                           ;LCD.c: 22:     lcd8_cmd(0x30);
  1657  0106  3030               	movlw	48
  1658  0107  120A  118A  2201  120A  118A  	fcall	_lcd8_cmd
  1659  010C                     l1237:	
  1660                           
  1661                           ;LCD.c: 23:     _delay((unsigned long)((1)*(4000000/4000.0)));
  1662  010C  30C7               	movlw	199
  1663  010D  1283               	bcf	3,5	;RP0=0, select bank0
  1664  010E  1303               	bcf	3,6	;RP1=0, select bank0
  1665  010F  00A0               	movwf	??_lcd8_init
  1666  0110                     u287:	
  1667  0110  2911               	nop2
  1668  0111  0BA0               	decfsz	??_lcd8_init,f
  1669  0112  2910               	goto	u287
  1670  0113  2914               	nop2
  1671  0114                     l1239:	
  1672                           
  1673                           ;LCD.c: 24:     lcd8_cmd(0x30);
  1674  0114  3030               	movlw	48
  1675  0115  120A  118A  2201  120A  118A  	fcall	_lcd8_cmd
  1676                           
  1677                           ;LCD.c: 25:     _delay((unsigned long)((1)*(4000000/4000.0)));
  1678  011A  30C7               	movlw	199
  1679  011B  1283               	bcf	3,5	;RP0=0, select bank0
  1680  011C  1303               	bcf	3,6	;RP1=0, select bank0
  1681  011D  00A0               	movwf	??_lcd8_init
  1682  011E                     u297:	
  1683  011E  291F               	nop2
  1684  011F  0BA0               	decfsz	??_lcd8_init,f
  1685  0120  291E               	goto	u297
  1686  0121  2922               	nop2
  1687  0122                     l1241:	
  1688                           
  1689                           ;LCD.c: 26:     lcd8_cmd(0x38);
  1690  0122  3038               	movlw	56
  1691  0123  120A  118A  2201  120A  118A  	fcall	_lcd8_cmd
  1692  0128                     l1243:	
  1693                           
  1694                           ;LCD.c: 27:     lcd8_cmd(0x10);
  1695  0128  3010               	movlw	16
  1696  0129  120A  118A  2201  120A  118A  	fcall	_lcd8_cmd
  1697  012E                     l1245:	
  1698                           
  1699                           ;LCD.c: 28:     lcd8_cmd(0x01);
  1700  012E  3001               	movlw	1
  1701  012F  120A  118A  2201  120A  118A  	fcall	_lcd8_cmd
  1702  0134                     l1247:	
  1703                           
  1704                           ;LCD.c: 29:     lcd8_cmd(0x06);
  1705  0134  3006               	movlw	6
  1706  0135  120A  118A  2201  120A  118A  	fcall	_lcd8_cmd
  1707  013A                     l1249:	
  1708                           
  1709                           ;LCD.c: 30:     lcd8_cmd(0x0C);
  1710  013A  300C               	movlw	12
  1711  013B  120A  118A  2201  120A  118A  	fcall	_lcd8_cmd
  1712  0140                     l1251:	
  1713                           
  1714                           ;LCD.c: 31:     lcd8_cmd(0x80);
  1715  0140  3080               	movlw	128
  1716  0141  120A  118A  2201  120A  118A  	fcall	_lcd8_cmd
  1717  0146                     l181:	
  1718  0146  0008               	return
  1719  0147                     __end_of_lcd8_init:	
  1720                           
  1721                           	psect	text7
  1722  0201                     __ptext7:	
  1723 ;; *************** function _lcd8_cmd *****************
  1724 ;; Defined at:
  1725 ;;		line 34 in file "LCD.c"
  1726 ;; Parameters:    Size  Location     Type
  1727 ;;  cmd             1    wreg     unsigned char 
  1728 ;; Auto vars:     Size  Location     Type
  1729 ;;  cmd             1    5[COMMON] unsigned char 
  1730 ;; Return value:  Size  Location     Type
  1731 ;;                  1    wreg      void 
  1732 ;; Registers used:
  1733 ;;		wreg, status,2, status,0, btemp+1, pclath, cstack
  1734 ;; Tracked objects:
  1735 ;;		On entry : 0/0
  1736 ;;		On exit  : 0/0
  1737 ;;		Unchanged: 0/0
  1738 ;; Data sizes:     COMMON   BANK0   BANK1   BANK3   BANK2
  1739 ;;      Params:         0       0       0       0       0
  1740 ;;      Locals:         1       0       0       0       0
  1741 ;;      Temps:          0       0       0       0       0
  1742 ;;      Totals:         1       0       0       0       0
  1743 ;;Total ram usage:        1 bytes
  1744 ;; Hardware stack levels used:    1
  1745 ;; Hardware stack levels required when called:    2
  1746 ;; This function calls:
  1747 ;;		_delay_1ms
  1748 ;; This function is called by:
  1749 ;;		_lcd8_init
  1750 ;;		_lcd8_setCursor
  1751 ;; This function uses a non-reentrant model
  1752 ;;
  1753                           
  1754                           
  1755                           ;psect for function _lcd8_cmd
  1756  0201                     _lcd8_cmd:	
  1757                           
  1758                           ;incstack = 0
  1759                           ; Regs used in _lcd8_cmd: [wreg+status,2+status,0+btemp+1+pclath+cstack]
  1760                           ;lcd8_cmd@cmd stored from wreg
  1761  0201  00F5               	movwf	lcd8_cmd@cmd
  1762  0202                     l861:	
  1763                           
  1764                           ;LCD.c: 35:     PORTA = cmd;
  1765  0202  0875               	movf	lcd8_cmd@cmd,w
  1766  0203  1283               	bcf	3,5	;RP0=0, select bank0
  1767  0204  1303               	bcf	3,6	;RP1=0, select bank0
  1768  0205  0085               	movwf	5	;volatile
  1769  0206                     l863:	
  1770                           
  1771                           ;LCD.c: 36:     PORTEbits.RE0 = 0;
  1772  0206  1009               	bcf	9,0	;volatile
  1773  0207                     l865:	
  1774                           
  1775                           ;LCD.c: 37:     PORTEbits.RE1 = 0;
  1776  0207  1089               	bcf	9,1	;volatile
  1777  0208                     l867:	
  1778                           
  1779                           ;LCD.c: 38:     PORTEbits.RE2 = 1;
  1780  0208  1509               	bsf	9,2	;volatile
  1781  0209                     l869:	
  1782                           
  1783                           ;LCD.c: 39:     delay_1ms();
  1784  0209  120A  118A  21D7  120A  118A  	fcall	_delay_1ms
  1785  020E                     l871:	
  1786                           
  1787                           ;LCD.c: 40:     PORTEbits.RE2 = 0;
  1788  020E  1283               	bcf	3,5	;RP0=0, select bank0
  1789  020F  1303               	bcf	3,6	;RP1=0, select bank0
  1790  0210  1109               	bcf	9,2	;volatile
  1791  0211                     l184:	
  1792  0211  0008               	return
  1793  0212                     __end_of_lcd8_cmd:	
  1794                           
  1795                           	psect	text8
  1796  01D7                     __ptext8:	
  1797 ;; *************** function _delay_1ms *****************
  1798 ;; Defined at:
  1799 ;;		line 71 in file "LCD.c"
  1800 ;; Parameters:    Size  Location     Type
  1801 ;;		None
  1802 ;; Auto vars:     Size  Location     Type
  1803 ;;  i               2    3[COMMON] int 
  1804 ;; Return value:  Size  Location     Type
  1805 ;;                  1    wreg      void 
  1806 ;; Registers used:
  1807 ;;		wreg, status,2, btemp+1
  1808 ;; Tracked objects:
  1809 ;;		On entry : 0/0
  1810 ;;		On exit  : 0/0
  1811 ;;		Unchanged: 0/0
  1812 ;; Data sizes:     COMMON   BANK0   BANK1   BANK3   BANK2
  1813 ;;      Params:         0       0       0       0       0
  1814 ;;      Locals:         2       0       0       0       0
  1815 ;;      Temps:          0       0       0       0       0
  1816 ;;      Totals:         2       0       0       0       0
  1817 ;;Total ram usage:        2 bytes
  1818 ;; Hardware stack levels used:    1
  1819 ;; Hardware stack levels required when called:    1
  1820 ;; This function calls:
  1821 ;;		Nothing
  1822 ;; This function is called by:
  1823 ;;		_lcd8_cmd
  1824 ;;		_lcd8_write
  1825 ;; This function uses a non-reentrant model
  1826 ;;
  1827                           
  1828                           
  1829                           ;psect for function _delay_1ms
  1830  01D7                     _delay_1ms:	
  1831  01D7                     l851:	
  1832                           ;incstack = 0
  1833                           ; Regs used in _delay_1ms: [wreg+status,2+btemp+1]
  1834                           
  1835                           
  1836                           ;LCD.c: 72:     for (int i = 0; i < 50; i++);
  1837  01D7  01F3               	clrf	delay_1ms@i
  1838  01D8  01F4               	clrf	delay_1ms@i+1
  1839  01D9                     l857:	
  1840  01D9  3001               	movlw	1
  1841  01DA  07F3               	addwf	delay_1ms@i,f
  1842  01DB  1803               	skipnc
  1843  01DC  0AF4               	incf	delay_1ms@i+1,f
  1844  01DD  3000               	movlw	0
  1845  01DE  07F4               	addwf	delay_1ms@i+1,f
  1846  01DF                     l859:	
  1847  01DF  0874               	movf	delay_1ms@i+1,w
  1848  01E0  3A80               	xorlw	128
  1849  01E1  00FF               	movwf	btemp+1
  1850  01E2  3080               	movlw	128
  1851  01E3  027F               	subwf	btemp+1,w
  1852  01E4  1D03               	skipz
  1853  01E5  29E8               	goto	u15
  1854  01E6  3032               	movlw	50
  1855  01E7  0273               	subwf	delay_1ms@i,w
  1856  01E8                     u15:	
  1857  01E8  1C03               	skipc
  1858  01E9  29EB               	goto	u11
  1859  01EA  29EC               	goto	u10
  1860  01EB                     u11:	
  1861  01EB  29D9               	goto	l857
  1862  01EC                     u10:	
  1863  01EC                     l207:	
  1864  01EC  0008               	return
  1865  01ED                     __end_of_delay_1ms:	
  1866                           
  1867                           	psect	text9
  1868  01BE                     __ptext9:	
  1869 ;; *************** function _i2c_slave_init *****************
  1870 ;; Defined at:
  1871 ;;		line 62 in file "I2C.c"
  1872 ;; Parameters:    Size  Location     Type
  1873 ;;  address         2    3[COMMON] short 
  1874 ;; Auto vars:     Size  Location     Type
  1875 ;;		None
  1876 ;; Return value:  Size  Location     Type
  1877 ;;                  1    wreg      void 
  1878 ;; Registers used:
  1879 ;;		wreg
  1880 ;; Tracked objects:
  1881 ;;		On entry : 0/0
  1882 ;;		On exit  : 0/0
  1883 ;;		Unchanged: 0/0
  1884 ;; Data sizes:     COMMON   BANK0   BANK1   BANK3   BANK2
  1885 ;;      Params:         2       0       0       0       0
  1886 ;;      Locals:         0       0       0       0       0
  1887 ;;      Temps:          0       0       0       0       0
  1888 ;;      Totals:         2       0       0       0       0
  1889 ;;Total ram usage:        2 bytes
  1890 ;; Hardware stack levels used:    1
  1891 ;; Hardware stack levels required when called:    1
  1892 ;; This function calls:
  1893 ;;		Nothing
  1894 ;; This function is called by:
  1895 ;;		_main
  1896 ;; This function uses a non-reentrant model
  1897 ;;
  1898                           
  1899                           
  1900                           ;psect for function _i2c_slave_init
  1901  01BE                     _i2c_slave_init:	
  1902  01BE                     l1149:	
  1903                           ;incstack = 0
  1904                           ; Regs used in _i2c_slave_init: [wreg]
  1905                           
  1906                           
  1907                           ;I2C.c: 63:     SSPSTAT = 0x80;
  1908  01BE  3080               	movlw	128
  1909  01BF  1683               	bsf	3,5	;RP0=1, select bank1
  1910  01C0  1303               	bcf	3,6	;RP1=0, select bank1
  1911  01C1  0094               	movwf	20	;volatile
  1912                           
  1913                           ;I2C.c: 64:     SSPADD = address;
  1914  01C2  0873               	movf	i2c_slave_init@address,w
  1915  01C3  0093               	movwf	19	;volatile
  1916                           
  1917                           ;I2C.c: 65:     SSPCON = 0x36;
  1918  01C4  3036               	movlw	54
  1919  01C5  1283               	bcf	3,5	;RP0=0, select bank0
  1920  01C6  1303               	bcf	3,6	;RP1=0, select bank0
  1921  01C7  0094               	movwf	20	;volatile
  1922                           
  1923                           ;I2C.c: 66:     SSPCON2 = 0x01;
  1924  01C8  3001               	movlw	1
  1925  01C9  1683               	bsf	3,5	;RP0=1, select bank1
  1926  01CA  1303               	bcf	3,6	;RP1=0, select bank1
  1927  01CB  0091               	movwf	17	;volatile
  1928  01CC                     l1151:	
  1929                           
  1930                           ;I2C.c: 67:     TRISCbits.TRISC3 = 1;
  1931  01CC  1587               	bsf	7,3	;volatile
  1932  01CD                     l1153:	
  1933                           
  1934                           ;I2C.c: 68:     TRISCbits.TRISC4 = 1;
  1935  01CD  1607               	bsf	7,4	;volatile
  1936  01CE                     l1155:	
  1937                           
  1938                           ;I2C.c: 69:     INTCONbits.GIE = 1;
  1939  01CE  178B               	bsf	11,7	;volatile
  1940  01CF                     l1157:	
  1941                           
  1942                           ;I2C.c: 70:     INTCONbits.PEIE = 1;
  1943  01CF  170B               	bsf	11,6	;volatile
  1944  01D0                     l1159:	
  1945                           
  1946                           ;I2C.c: 71:     PIR1bits.SSPIF = 0;
  1947  01D0  1283               	bcf	3,5	;RP0=0, select bank0
  1948  01D1  1303               	bcf	3,6	;RP1=0, select bank0
  1949  01D2  118C               	bcf	12,3	;volatile
  1950  01D3                     l1161:	
  1951                           
  1952                           ;I2C.c: 72:     PIE1bits.SSPIE = 1;
  1953  01D3  1683               	bsf	3,5	;RP0=1, select bank1
  1954  01D4  1303               	bcf	3,6	;RP1=0, select bank1
  1955  01D5  158C               	bsf	12,3	;volatile
  1956  01D6                     l259:	
  1957  01D6  0008               	return
  1958  01D7                     __end_of_i2c_slave_init:	
  1959                           
  1960                           	psect	text10
  1961  008C                     __ptext10:	
  1962 ;; *************** function _ISR *****************
  1963 ;; Defined at:
  1964 ;;		line 49 in file "ultrasonico.c"
  1965 ;; Parameters:    Size  Location     Type
  1966 ;;		None
  1967 ;; Auto vars:     Size  Location     Type
  1968 ;;		None
  1969 ;; Return value:  Size  Location     Type
  1970 ;;                  1    wreg      void 
  1971 ;; Registers used:
  1972 ;;		wreg
  1973 ;; Tracked objects:
  1974 ;;		On entry : 0/0
  1975 ;;		On exit  : 0/0
  1976 ;;		Unchanged: 0/0
  1977 ;; Data sizes:     COMMON   BANK0   BANK1   BANK3   BANK2
  1978 ;;      Params:         0       0       0       0       0
  1979 ;;      Locals:         0       0       0       0       0
  1980 ;;      Temps:          3       0       0       0       0
  1981 ;;      Totals:         3       0       0       0       0
  1982 ;;Total ram usage:        3 bytes
  1983 ;; Hardware stack levels used:    1
  1984 ;; This function calls:
  1985 ;;		Nothing
  1986 ;; This function is called by:
  1987 ;;		Interrupt level 1
  1988 ;; This function uses a non-reentrant model
  1989 ;;
  1990                           
  1991                           
  1992                           ;psect for function _ISR
  1993  008C                     _ISR:	
  1994  008C                     i1l955:	
  1995                           
  1996                           ;ultrasonico.c: 51:     if (PIR1bits.SSPIF == 1){
  1997  008C  1283               	bcf	3,5	;RP0=0, select bank0
  1998  008D  1303               	bcf	3,6	;RP1=0, select bank0
  1999  008E  1D8C               	btfss	12,3	;volatile
  2000  008F  2891               	goto	u4_21
  2001  0090  2892               	goto	u4_20
  2002  0091                     u4_21:	
  2003  0091  28E3               	goto	i1l70
  2004  0092                     u4_20:	
  2005  0092                     i1l957:	
  2006                           
  2007                           ;ultrasonico.c: 52:             SSPCONbits.CKP = 0;
  2008  0092  1214               	bcf	20,4	;volatile
  2009                           
  2010                           ;ultrasonico.c: 53:             if (SSPCONbits.WCOL == 1 || SSPCONbits.SSPOV == 1){
  2011  0093  1B94               	btfsc	20,7	;volatile
  2012  0094  2896               	goto	u5_21
  2013  0095  2897               	goto	u5_20
  2014  0096                     u5_21:	
  2015  0096  289B               	goto	i1l961
  2016  0097                     u5_20:	
  2017  0097                     i1l959:	
  2018  0097  1F14               	btfss	20,6	;volatile
  2019  0098  289A               	goto	u6_21
  2020  0099  289B               	goto	u6_20
  2021  009A                     u6_21:	
  2022  009A  28A2               	goto	i1l969
  2023  009B                     u6_20:	
  2024  009B                     i1l961:	
  2025                           
  2026                           ;ultrasonico.c: 54:                 x = SSPBUF;
  2027  009B  0813               	movf	19,w	;volatile
  2028  009C  00F0               	movwf	??_ISR
  2029  009D  0870               	movf	??_ISR,w
  2030  009E  00FA               	movwf	_x
  2031  009F                     i1l963:	
  2032                           
  2033                           ;ultrasonico.c: 55:                 SSPCONbits.WCOL = 0;
  2034  009F  1394               	bcf	20,7	;volatile
  2035  00A0                     i1l965:	
  2036                           
  2037                           ;ultrasonico.c: 56:                 SSPCONbits.SSPOV = 0;
  2038  00A0  1314               	bcf	20,6	;volatile
  2039  00A1                     i1l967:	
  2040                           
  2041                           ;ultrasonico.c: 57:                 SSPCONbits.CKP = 1;
  2042  00A1  1614               	bsf	20,4	;volatile
  2043  00A2                     i1l969:	
  2044                           
  2045                           ;ultrasonico.c: 59:             if(!SSPSTATbits.D_nA && !SSPSTATbits.R_nW){
  2046  00A2  1683               	bsf	3,5	;RP0=1, select bank1
  2047  00A3  1303               	bcf	3,6	;RP1=0, select bank1
  2048  00A4  1A94               	btfsc	20,5	;volatile
  2049  00A5  28A7               	goto	u7_21
  2050  00A6  28A8               	goto	u7_20
  2051  00A7                     u7_21:	
  2052  00A7  28C0               	goto	i1l61
  2053  00A8                     u7_20:	
  2054  00A8                     i1l971:	
  2055  00A8  1914               	btfsc	20,2	;volatile
  2056  00A9  28AB               	goto	u8_21
  2057  00AA  28AC               	goto	u8_20
  2058  00AB                     u8_21:	
  2059  00AB  28C0               	goto	i1l61
  2060  00AC                     u8_20:	
  2061  00AC                     i1l973:	
  2062                           
  2063                           ;ultrasonico.c: 60:                 x = SSPBUF;
  2064  00AC  1283               	bcf	3,5	;RP0=0, select bank0
  2065  00AD  1303               	bcf	3,6	;RP1=0, select bank0
  2066  00AE  0813               	movf	19,w	;volatile
  2067  00AF  00F0               	movwf	??_ISR
  2068  00B0  0870               	movf	??_ISR,w
  2069  00B1  00FA               	movwf	_x
  2070  00B2                     i1l62:	
  2071                           ;ultrasonico.c: 61:                 while(!SSPSTATbits.BF);
  2072                           
  2073  00B2  1683               	bsf	3,5	;RP0=1, select bank1
  2074  00B3  1303               	bcf	3,6	;RP1=0, select bank1
  2075  00B4  1C14               	btfss	20,0	;volatile
  2076  00B5  28B7               	goto	u9_21
  2077  00B6  28B8               	goto	u9_20
  2078  00B7                     u9_21:	
  2079  00B7  28B2               	goto	i1l62
  2080  00B8                     u9_20:	
  2081  00B8                     i1l975:	
  2082                           
  2083                           ;ultrasonico.c: 62:                 z = SSPBUF;
  2084  00B8  1283               	bcf	3,5	;RP0=0, select bank0
  2085  00B9  1303               	bcf	3,6	;RP1=0, select bank0
  2086  00BA  0813               	movf	19,w	;volatile
  2087  00BB  00F0               	movwf	??_ISR
  2088  00BC  0870               	movf	??_ISR,w
  2089  00BD  00F9               	movwf	_z
  2090  00BE                     i1l977:	
  2091                           
  2092                           ;ultrasonico.c: 63:                 SSPCONbits.CKP = 1;
  2093  00BE  1614               	bsf	20,4	;volatile
  2094                           
  2095                           ;ultrasonico.c: 64:             }
  2096  00BF  28E1               	goto	i1l65
  2097  00C0                     i1l61:	
  2098                           ;ultrasonico.c: 65:             else if (!SSPSTATbits.D_nA && SSPSTATbits.R_nW){
  2099                           
  2100  00C0  1A94               	btfsc	20,5	;volatile
  2101  00C1  28C3               	goto	u10_21
  2102  00C2  28C4               	goto	u10_20
  2103  00C3                     u10_21:	
  2104  00C3  28E1               	goto	i1l65
  2105  00C4                     u10_20:	
  2106  00C4                     i1l979:	
  2107  00C4  1D14               	btfss	20,2	;volatile
  2108  00C5  28C7               	goto	u11_21
  2109  00C6  28C8               	goto	u11_20
  2110  00C7                     u11_21:	
  2111  00C7  28E1               	goto	i1l65
  2112  00C8                     u11_20:	
  2113  00C8                     i1l981:	
  2114                           
  2115                           ;ultrasonico.c: 66:                 x = SSPBUF;
  2116  00C8  1283               	bcf	3,5	;RP0=0, select bank0
  2117  00C9  1303               	bcf	3,6	;RP1=0, select bank0
  2118  00CA  0813               	movf	19,w	;volatile
  2119  00CB  00F0               	movwf	??_ISR
  2120  00CC  0870               	movf	??_ISR,w
  2121  00CD  00FA               	movwf	_x
  2122  00CE                     i1l983:	
  2123                           
  2124                           ;ultrasonico.c: 67:                 SSPSTATbits.BF = 0;
  2125  00CE  1683               	bsf	3,5	;RP0=1, select bank1
  2126  00CF  1303               	bcf	3,6	;RP1=0, select bank1
  2127  00D0  1014               	bcf	20,0	;volatile
  2128                           
  2129                           ;ultrasonico.c: 68:                 SSPBUF = distancia;
  2130  00D1  0877               	movf	_distancia,w
  2131  00D2  1283               	bcf	3,5	;RP0=0, select bank0
  2132  00D3  1303               	bcf	3,6	;RP1=0, select bank0
  2133  00D4  0093               	movwf	19	;volatile
  2134  00D5                     i1l985:	
  2135                           
  2136                           ;ultrasonico.c: 69:                 SSPCONbits.CKP = 1;
  2137  00D5  1614               	bsf	20,4	;volatile
  2138                           
  2139                           ;ultrasonico.c: 70:                 _delay((unsigned long)((300)*(4000000/4000000.0)));
  2140  00D6  3063               	movlw	99
  2141  00D7  00F0               	movwf	??_ISR
  2142  00D8                     u30_27:	
  2143  00D8  0BF0               	decfsz	??_ISR,f
  2144  00D9  28D8               	goto	u30_27
  2145  00DA  28DB               	nop2
  2146  00DB                     i1l67:	
  2147                           ;ultrasonico.c: 71:                 while(SSPSTATbits.BF);
  2148                           
  2149  00DB  1683               	bsf	3,5	;RP0=1, select bank1
  2150  00DC  1303               	bcf	3,6	;RP1=0, select bank1
  2151  00DD  1814               	btfsc	20,0	;volatile
  2152  00DE  28E0               	goto	u12_21
  2153  00DF  28E1               	goto	u12_20
  2154  00E0                     u12_21:	
  2155  00E0  28DB               	goto	i1l67
  2156  00E1                     u12_20:	
  2157  00E1                     i1l65:	
  2158                           
  2159                           ;ultrasonico.c: 73:             PIR1bits.SSPIF = 0;
  2160  00E1  1283               	bcf	3,5	;RP0=0, select bank0
  2161  00E2  118C               	bcf	12,3	;volatile
  2162  00E3                     i1l70:	
  2163  00E3  0872               	movf	??_ISR+2,w
  2164  00E4  008A               	movwf	10
  2165  00E5  0E71               	swapf	(??_ISR+1)^(0+4294967168),w
  2166  00E6  0083               	movwf	3
  2167  00E7  0EFE               	swapf	btemp,f
  2168  00E8  0E7E               	swapf	btemp,w
  2169  00E9  0009               	retfie
  2170  00EA                     __end_of_ISR:	
  2171  007E                     btemp	set	126	;btemp
  2172  007E                     wtemp0	set	126
  2173                           
  2174                           	psect	intentry
  2175  0004                     __pintentry:	
  2176                           ;incstack = 0
  2177                           ; Regs used in _ISR: [wreg]
  2178                           
  2179  0004                     interrupt_function:	
  2180  007E                     saved_w	set	btemp
  2181  0004  00FE               	movwf	btemp
  2182  0005  0E03               	swapf	3,w
  2183  0006  00F1               	movwf	??_ISR+1
  2184  0007  080A               	movf	10,w
  2185  0008  00F2               	movwf	??_ISR+2
  2186  0009  120A  118A  288C   	ljmp	_ISR


Data Sizes:
    Strings     0
    Constant    0
    Data        0
    BSS         4
    Persistent  0
    Stack       0

Auto Spaces:
    Space          Size  Autos    Used
    COMMON           14      7      11
    BANK0            80      2       2
    BANK1            80      0       0
    BANK3            96      0       0
    BANK2            96      0       0

Pointer List with Targets:

    None.

Critical Paths under _main in COMMON

    _main->_oscInit
    _main->_tmr1_Prescaler
    _lcd8_init->_lcd8_cmd
    _lcd8_cmd->_delay_1ms

Critical Paths under _ISR in COMMON

    None.

Critical Paths under _main in BANK0

    _main->_lcd8_init

Critical Paths under _ISR in BANK0

    None.

Critical Paths under _main in BANK1

    None.

Critical Paths under _ISR in BANK1

    None.

Critical Paths under _main in BANK3

    None.

Critical Paths under _ISR in BANK3

    None.

Critical Paths under _main in BANK2

    None.

Critical Paths under _ISR in BANK2

    None.

Call Graph Tables:

 ---------------------------------------------------------------------------------
 (Depth) Function   	        Calls       Base Space   Used Autos Params    Refs
 ---------------------------------------------------------------------------------
 (0) _main                                                 1     1      0     193
                                              6 COMMON     1     1      0
                     _i2c_slave_init
                          _lcd8_init
                            _oscInit
                              _setup
                          _tmr1_Init
                     _tmr1_Interrupt
                     _tmr1_Prescaler
 ---------------------------------------------------------------------------------
 (1) _tmr1_Prescaler                                       3     3      0      15
                                              3 COMMON     3     3      0
 ---------------------------------------------------------------------------------
 (1) _tmr1_Interrupt                                       1     1      0      15
                                              3 COMMON     1     1      0
 ---------------------------------------------------------------------------------
 (1) _tmr1_Init                                            0     0      0       0
 ---------------------------------------------------------------------------------
 (1) _setup                                                0     0      0       0
 ---------------------------------------------------------------------------------
 (1) _oscInit                                              3     3      0      20
                                              3 COMMON     3     3      0
 ---------------------------------------------------------------------------------
 (1) _lcd8_init                                            2     2      0      45
                                              0 BANK0      2     2      0
                           _lcd8_cmd
 ---------------------------------------------------------------------------------
 (2) _lcd8_cmd                                             1     1      0      45
                                              5 COMMON     1     1      0
                          _delay_1ms
 ---------------------------------------------------------------------------------
 (3) _delay_1ms                                            2     2      0      30
                                              3 COMMON     2     2      0
 ---------------------------------------------------------------------------------
 (1) _i2c_slave_init                                       2     0      2      98
                                              3 COMMON     2     0      2
 ---------------------------------------------------------------------------------
 Estimated maximum stack depth 3
 ---------------------------------------------------------------------------------
 (Depth) Function   	        Calls       Base Space   Used Autos Params    Refs
 ---------------------------------------------------------------------------------
 (4) _ISR                                                  3     3      0       0
                                              0 COMMON     3     3      0
 ---------------------------------------------------------------------------------
 Estimated maximum stack depth 4
 ---------------------------------------------------------------------------------

 Call Graph Graphs:

 _main (ROOT)
   _i2c_slave_init
   _lcd8_init
     _lcd8_cmd
       _delay_1ms
   _oscInit
   _setup
   _tmr1_Init
   _tmr1_Interrupt
   _tmr1_Prescaler

 _ISR (ROOT)

 Address spaces:
Name               Size   Autos  Total    Cost      Usage
BITCOMMON            E      0       0       0        0.0%
EEDATA             100      0       0       0        0.0%
NULL                 0      0       0       0        0.0%
CODE                 0      0       0       0        0.0%
COMMON               E      7       B       1       78.6%
BITSFR0              0      0       0       1        0.0%
SFR0                 0      0       0       1        0.0%
BITSFR1              0      0       0       2        0.0%
SFR1                 0      0       0       2        0.0%
STACK                0      0       0       2        0.0%
ABS                  0      0       D       3        0.0%
BITBANK0            50      0       0       4        0.0%
BITSFR3              0      0       0       4        0.0%
SFR3                 0      0       0       4        0.0%
BANK0               50      2       2       5        2.5%
BITSFR2              0      0       0       5        0.0%
SFR2                 0      0       0       5        0.0%
BITBANK1            50      0       0       6        0.0%
BANK1               50      0       0       7        0.0%
BITBANK3            60      0       0       8        0.0%
BANK3               60      0       0       9        0.0%
BITBANK2            60      0       0      10        0.0%
BANK2               60      0       0      11        0.0%
DATA                 0      0       D      12        0.0%


Microchip Technology PIC Macro Assembler V2.10 build 88905656 
Symbol Table                                                                                   Sun Mar 08 19:40:34 2020

                       _x 007A                         _z 0079               __CFG_CP$OFF 0000  
             _SSPSTATbits 0094                        l81 0186                        l76 017D  
                      l78 0181                        l87 0200                        l79 0182  
                      u10 01EC                        u11 01EB                        u15 01E8  
                     l140 0023                       l141 002D                       l142 0037  
                     l207 01EC                       l143 0041                       l144 004B  
                     l160 0193                       l145 0055                       l146 005F  
                     l138 0019                       l162 0198                       l147 008B  
                     l163 019D                       l156 0223                       l164 01A2  
                     l181 0146                       l165 01BD                       l184 0211  
                     l168 021D                       l259 01D6                       l911 0192  
                     l921 0213                       l851 01D7                       l923 021A  
                     l915 01A7                       l861 0202                       l909 021E  
                     l871 020E                       l863 0206                       l857 01D9  
                     l865 0207                       l881 0069                       l873 01ED  
                     l859 01DF                       l867 0208                       l875 01F5  
                     l869 0209                       l877 0018                       u230 0181  
                     u231 0180                       u240 0186                       u241 0185  
                     u257 0178              __CFG_CPD$OFF 0000                       u267 00F0  
                     _ISR 008C                       u277 0101                       u287 0110  
                     u297 011E              __CFG_LVP$OFF 0000                      ?_ISR 0070  
                    l1151 01CC                      l1231 00EA                      l1161 01D3  
                    l1153 01CD                      l1241 0122                      l1233 00F5  
                    l1321 01AF                      l1155 01CE                      l1251 0140  
                    l1243 0128                      l1235 00FB                      l1323 0071  
                    l1157 01CF                      l1149 01BE                      l1245 012E  
                    l1237 010C                      l1261 015C                      l1253 0147  
                    l1159 01D0                      l1247 0134                      l1239 0114  
                    l1271 0175                      l1263 0162                      l1255 014C  
                    l1249 013A                      l1273 0176                      l1265 0168  
                    l1257 0152                      l1275 017A                      l1267 0171  
                    l1259 0157                      l1277 0188                      l1269 0174  
                    l1279 018C                      i1l61 00C0                      i1l62 00B2  
                    i1l70 00E3                      i1l65 00E1                      i1l67 00DB  
                    u4_20 0092                      u4_21 0091                      u5_20 0097  
                    u5_21 0096                      u6_20 009B                      u6_21 009A  
                    u7_20 00A8                      u7_21 00A7                      u8_20 00AC  
                    u8_21 00AB                      u9_20 00B8                      u9_21 00B7  
            __CFG_WRT$OFF 0000                      _main 0147                      btemp 007E  
                    start 000C             __CFG_IESO$OFF 0000                     ??_ISR 0070  
                   ?_main 0070                     _ACKEN 048C             __CFG_WDTE$OFF 0000  
                   _ANSEL 0188            _tmr1_Interrupt 0212                     i1l961 009B  
                   i1l971 00A8                     i1l963 009F                     i1l955 008C  
                   i1l981 00C8                     i1l973 00AC                     i1l965 00A0  
                   i1l957 0092                     i1l983 00CE                     i1l975 00B8  
                   i1l967 00A1                     i1l959 0097                     i1l985 00D5  
                   i1l977 00BE                     i1l969 00A2                     i1l979 00C4  
                   u10_20 00C4                     u10_21 00C3                     u11_20 00C8  
                   u11_21 00C7                     u12_20 00E1                     u12_21 00E0  
                   u30_27 00D8                     _TMR1H 000F                     _TMR1L 000E  
                   _PORTA 0005                     _TRISA 0085                     _TRISE 0089  
          __CFG_FCMEN$OFF 0000                     _setup 01ED           __end_of_oscInit 008C  
          _tmr1_Prescaler 0191            __CFG_BOREN$OFF 0000                     pclath 000A  
                   status 0003                     wtemp0 007E            __CFG_MCLRE$OFF 0000  
         __initialization 000F              __end_of_main 0191    __end_of_tmr1_Interrupt 021E  
                  ??_main 0076            _i2c_slave_init 01BE    __end_of_tmr1_Prescaler 01BE  
                  ?_setup 0070                    _ANSELH 0189                    _SSPADD 0093  
                  _SSPBUF 0013                    _SSPCON 0014          __end_of_lcd8_cmd 0212  
          __CFG_PWRTE$OFF 0000           ?_tmr1_Interrupt 0070    __end_of_i2c_slave_init 01D7  
               ??_oscInit 0073                    saved_w 007E           ?_tmr1_Prescaler 0070  
 __end_of__initialization 0013            __pcstackCOMMON 0070        __size_of_lcd8_init 005D  
           __end_of_setup 0201        __size_of_delay_1ms 0016           ?_i2c_slave_init 0073  
             oscInit@freq 0075                   ??_setup 0073                __pmaintext 0147  
      __size_of_tmr1_Init 0006                __pintentry 0004    tmr1_Interrupt@tmr1_Int 0073  
               ?_lcd8_cmd 0070                   _SSPCON2 0091                   _SSPSTAT 0094  
       __end_of_lcd8_init 0147         __end_of_delay_1ms 01ED                   __ptext1 0191  
                 __ptext2 0212                   __ptext3 021E                   __ptext4 01ED  
                 __ptext5 0017                   __ptext6 00EA                   __ptext7 0201  
                 __ptext8 01D7                   __ptext9 01BE              __size_of_ISR 005E  
               _T1CONbits 0010                delay_1ms@i 0073                ??_lcd8_cmd 0075  
                 _oscInit 0017     i2c_slave_init@address 0073         __end_of_tmr1_Init 0224  
    end_of_initialization 0013          ??_tmr1_Interrupt 0073                 _PORTBbits 0006  
               _PORTEbits 0009          ??_tmr1_Prescaler 0073                 _TRISBbits 0086  
               _TRISCbits 0087          ??_i2c_slave_init 0075       start_initialization 000F  
             __end_of_ISR 00EA  __CFG_FOSC$INTRC_NOCLKOUT 0000               __pbssCOMMON 0077  
               ___latbits 0002             __pcstackBANK0 0020         __size_of_lcd8_cmd 0011  
               _lcd8_init 00EA                 _delay_1ms 01D7   tmr1_Prescaler@prescaler 0075  
               _distancia 0077                  ?_oscInit 0070            __size_of_setup 0014  
       interrupt_function 0004                 _tmr1_Init 021E                  _PIE1bits 008C  
              ?_lcd8_init 0070                ?_delay_1ms 0070                  _PIR1bits 000C  
              _ADCON0bits 001F                _ADCON1bits 009F                ?_tmr1_Init 0070  
             lcd8_cmd@cmd 0075                  _lcd8_cmd 0201          __size_of_oscInit 0075  
                __ptext10 008C         __CFG_BOR4V$BOR40V 0000             __size_of_main 004A  
             ??_lcd8_init 0020               ??_delay_1ms 0073   __size_of_tmr1_Interrupt 000C  
              _INTCONbits 000B                  intlevel1 0000   __size_of_tmr1_Prescaler 002D  
             ??_tmr1_Init 0073                _OSCCONbits 008F   __size_of_i2c_slave_init 0019  
             _SSPCON2bits 0091                _SSPCONbits 0014  
