

Microchip MPLAB XC8 Assembler V2.10 build 88905656 
                                                                                               Fri Mar 13 23:36:31 2020

Microchip MPLAB XC8 C Compiler v2.10 (Free license) build 20190730164152 Og1 
     1                           	processor	16F887
     2                           	opt	pw 120
     3                           	opt	flic
     4                           	psect	cinit,global,class=CODE,merge=1,delta=2
     5                           	psect	bssBANK0,global,class=BANK0,space=1,delta=1
     6                           	psect	cstackCOMMON,global,class=COMMON,space=1,delta=1
     7                           	psect	cstackBANK0,global,class=BANK0,space=1,delta=1
     8                           	psect	maintext,global,class=CODE,split=1,delta=2
     9                           	psect	text1,local,class=CODE,merge=1,delta=2
    10                           	psect	text2,local,class=CODE,merge=1,delta=2
    11                           	psect	text3,local,class=CODE,merge=1,delta=2
    12                           	psect	text4,local,class=CODE,merge=1,delta=2
    13                           	psect	text5,local,class=CODE,merge=1,delta=2
    14                           	psect	text6,local,class=CODE,merge=1,delta=2
    15                           	psect	text7,local,class=CODE,merge=1,delta=2
    16                           	psect	text8,local,class=CODE,merge=1,delta=2
    17                           	psect	text9,local,class=CODE,merge=1,delta=2
    18                           	psect	text10,local,class=CODE,merge=1,delta=2,group=1
    19                           	psect	text11,local,class=CODE,merge=1,delta=2
    20                           	psect	text12,local,class=CODE,merge=1,delta=2
    21                           	psect	text13,local,class=CODE,merge=1,delta=2
    22                           	psect	text14,local,class=CODE,merge=1,delta=2
    23                           	dabs	1,0x7E,2
    24  0000                     
    25                           ; Version 2.10
    26                           ; Generated 31/07/2019 GMT
    27                           ; 
    28                           ; Copyright © 2019, Microchip Technology Inc. and its subsidiaries ("Microchip")
    29                           ; All rights reserved.
    30                           ; 
    31                           ; This software is developed by Microchip Technology Inc. and its subsidiaries ("Microch
      +                          ip").
    32                           ; 
    33                           ; Redistribution and use in source and binary forms, with or without modification, are
    34                           ; permitted provided that the following conditions are met:
    35                           ; 
    36                           ;     1. Redistributions of source code must retain the above copyright notice, this lis
      +                          t of
    37                           ;        conditions and the following disclaimer.
    38                           ; 
    39                           ;     2. Redistributions in binary form must reproduce the above copyright notice, this 
      +                          list
    40                           ;        of conditions and the following disclaimer in the documentation and/or other
    41                           ;        materials provided with the distribution.
    42                           ; 
    43                           ;     3. Microchip's name may not be used to endorse or promote products derived from th
      +                          is
    44                           ;        software without specific prior written permission.
    45                           ; 
    46                           ; THIS SOFTWARE IS PROVIDED BY MICROCHIP "AS IS" AND ANY EXPRESS OR IMPLIED WARRANTIES,
    47                           ; INCLUDING, BUT NOT LIMITED TO, THE IMPLIED WARRANTIES OF MERCHANTABILITY AND FITNESS F
      +                          OR
    48                           ; PURPOSE ARE DISCLAIMED.  IN NO EVENT SHALL MICROCHIP BE LIABLE FOR ANY DIRECT, INDIREC
      +                          T,
    49                           ; INCIDENTAL, SPECIAL, EXEMPLARY, OR CONSEQUENTIAL DAMAGES (INCLUDING BUT NOT LIMITED TO
    50                           ; PROCUREMENT OF SUBSTITUTE GOODS OR SERVICES; LOSS OF USE, DATA OR PROFITS; OR BUSINESS
    51                           ; INTERRUPTION) HOWSOEVER CAUSED AND ON ANY THEORY OF LIABILITY, WHETHER IN CONTRACT, ST
      +                          RICT
    52                           ; LIABILITY, OR TORT (INCLUDING NEGLIGENCE OR OTHERWISE) ARISING IN ANY WAY OUT OF THE U
      +                          SE OF
    53                           ; THIS SOFTWARE, EVEN IF ADVISED OF THE POSSIBILITY OF SUCH DAMAGE.
    54                           ; 
    55                           ; 
    56                           ; Code-generator required, PIC16F887 Definitions
    57                           ; 
    58                           ; SFR Addresses
    59  0000                     	;# 
    60  0001                     	;# 
    61  0002                     	;# 
    62  0003                     	;# 
    63  0004                     	;# 
    64  0005                     	;# 
    65  0006                     	;# 
    66  0007                     	;# 
    67  0008                     	;# 
    68  0009                     	;# 
    69  000A                     	;# 
    70  000B                     	;# 
    71  000C                     	;# 
    72  000D                     	;# 
    73  000E                     	;# 
    74  000E                     	;# 
    75  000F                     	;# 
    76  0010                     	;# 
    77  0011                     	;# 
    78  0012                     	;# 
    79  0013                     	;# 
    80  0014                     	;# 
    81  0015                     	;# 
    82  0015                     	;# 
    83  0016                     	;# 
    84  0017                     	;# 
    85  0018                     	;# 
    86  0019                     	;# 
    87  001A                     	;# 
    88  001B                     	;# 
    89  001B                     	;# 
    90  001C                     	;# 
    91  001D                     	;# 
    92  001E                     	;# 
    93  001F                     	;# 
    94  0081                     	;# 
    95  0085                     	;# 
    96  0086                     	;# 
    97  0087                     	;# 
    98  0088                     	;# 
    99  0089                     	;# 
   100  008C                     	;# 
   101  008D                     	;# 
   102  008E                     	;# 
   103  008F                     	;# 
   104  0090                     	;# 
   105  0091                     	;# 
   106  0092                     	;# 
   107  0093                     	;# 
   108  0093                     	;# 
   109  0093                     	;# 
   110  0094                     	;# 
   111  0095                     	;# 
   112  0096                     	;# 
   113  0097                     	;# 
   114  0098                     	;# 
   115  0099                     	;# 
   116  009A                     	;# 
   117  009B                     	;# 
   118  009C                     	;# 
   119  009D                     	;# 
   120  009E                     	;# 
   121  009F                     	;# 
   122  0105                     	;# 
   123  0107                     	;# 
   124  0108                     	;# 
   125  0109                     	;# 
   126  010C                     	;# 
   127  010C                     	;# 
   128  010D                     	;# 
   129  010E                     	;# 
   130  010F                     	;# 
   131  0185                     	;# 
   132  0187                     	;# 
   133  0188                     	;# 
   134  0189                     	;# 
   135  018C                     	;# 
   136  018D                     	;# 
   137  0000                     	;# 
   138  0001                     	;# 
   139  0002                     	;# 
   140  0003                     	;# 
   141  0004                     	;# 
   142  0005                     	;# 
   143  0006                     	;# 
   144  0007                     	;# 
   145  0008                     	;# 
   146  0009                     	;# 
   147  000A                     	;# 
   148  000B                     	;# 
   149  000C                     	;# 
   150  000D                     	;# 
   151  000E                     	;# 
   152  000E                     	;# 
   153  000F                     	;# 
   154  0010                     	;# 
   155  0011                     	;# 
   156  0012                     	;# 
   157  0013                     	;# 
   158  0014                     	;# 
   159  0015                     	;# 
   160  0015                     	;# 
   161  0016                     	;# 
   162  0017                     	;# 
   163  0018                     	;# 
   164  0019                     	;# 
   165  001A                     	;# 
   166  001B                     	;# 
   167  001B                     	;# 
   168  001C                     	;# 
   169  001D                     	;# 
   170  001E                     	;# 
   171  001F                     	;# 
   172  0081                     	;# 
   173  0085                     	;# 
   174  0086                     	;# 
   175  0087                     	;# 
   176  0088                     	;# 
   177  0089                     	;# 
   178  008C                     	;# 
   179  008D                     	;# 
   180  008E                     	;# 
   181  008F                     	;# 
   182  0090                     	;# 
   183  0091                     	;# 
   184  0092                     	;# 
   185  0093                     	;# 
   186  0093                     	;# 
   187  0093                     	;# 
   188  0094                     	;# 
   189  0095                     	;# 
   190  0096                     	;# 
   191  0097                     	;# 
   192  0098                     	;# 
   193  0099                     	;# 
   194  009A                     	;# 
   195  009B                     	;# 
   196  009C                     	;# 
   197  009D                     	;# 
   198  009E                     	;# 
   199  009F                     	;# 
   200  0105                     	;# 
   201  0107                     	;# 
   202  0108                     	;# 
   203  0109                     	;# 
   204  010C                     	;# 
   205  010C                     	;# 
   206  010D                     	;# 
   207  010E                     	;# 
   208  010F                     	;# 
   209  0185                     	;# 
   210  0187                     	;# 
   211  0188                     	;# 
   212  0189                     	;# 
   213  018C                     	;# 
   214  018D                     	;# 
   215  0000                     	;# 
   216  0001                     	;# 
   217  0002                     	;# 
   218  0003                     	;# 
   219  0004                     	;# 
   220  0005                     	;# 
   221  0006                     	;# 
   222  0007                     	;# 
   223  0008                     	;# 
   224  0009                     	;# 
   225  000A                     	;# 
   226  000B                     	;# 
   227  000C                     	;# 
   228  000D                     	;# 
   229  000E                     	;# 
   230  000E                     	;# 
   231  000F                     	;# 
   232  0010                     	;# 
   233  0011                     	;# 
   234  0012                     	;# 
   235  0013                     	;# 
   236  0014                     	;# 
   237  0015                     	;# 
   238  0015                     	;# 
   239  0016                     	;# 
   240  0017                     	;# 
   241  0018                     	;# 
   242  0019                     	;# 
   243  001A                     	;# 
   244  001B                     	;# 
   245  001B                     	;# 
   246  001C                     	;# 
   247  001D                     	;# 
   248  001E                     	;# 
   249  001F                     	;# 
   250  0081                     	;# 
   251  0085                     	;# 
   252  0086                     	;# 
   253  0087                     	;# 
   254  0088                     	;# 
   255  0089                     	;# 
   256  008C                     	;# 
   257  008D                     	;# 
   258  008E                     	;# 
   259  008F                     	;# 
   260  0090                     	;# 
   261  0091                     	;# 
   262  0092                     	;# 
   263  0093                     	;# 
   264  0093                     	;# 
   265  0093                     	;# 
   266  0094                     	;# 
   267  0095                     	;# 
   268  0096                     	;# 
   269  0097                     	;# 
   270  0098                     	;# 
   271  0099                     	;# 
   272  009A                     	;# 
   273  009B                     	;# 
   274  009C                     	;# 
   275  009D                     	;# 
   276  009E                     	;# 
   277  009F                     	;# 
   278  0105                     	;# 
   279  0107                     	;# 
   280  0108                     	;# 
   281  0109                     	;# 
   282  010C                     	;# 
   283  010C                     	;# 
   284  010D                     	;# 
   285  010E                     	;# 
   286  010F                     	;# 
   287  0185                     	;# 
   288  0187                     	;# 
   289  0188                     	;# 
   290  0189                     	;# 
   291  018C                     	;# 
   292  018D                     	;# 
   293  0000                     	;# 
   294  0001                     	;# 
   295  0002                     	;# 
   296  0003                     	;# 
   297  0004                     	;# 
   298  0005                     	;# 
   299  0006                     	;# 
   300  0007                     	;# 
   301  0008                     	;# 
   302  0009                     	;# 
   303  000A                     	;# 
   304  000B                     	;# 
   305  000C                     	;# 
   306  000D                     	;# 
   307  000E                     	;# 
   308  000E                     	;# 
   309  000F                     	;# 
   310  0010                     	;# 
   311  0011                     	;# 
   312  0012                     	;# 
   313  0013                     	;# 
   314  0014                     	;# 
   315  0015                     	;# 
   316  0015                     	;# 
   317  0016                     	;# 
   318  0017                     	;# 
   319  0018                     	;# 
   320  0019                     	;# 
   321  001A                     	;# 
   322  001B                     	;# 
   323  001B                     	;# 
   324  001C                     	;# 
   325  001D                     	;# 
   326  001E                     	;# 
   327  001F                     	;# 
   328  0081                     	;# 
   329  0085                     	;# 
   330  0086                     	;# 
   331  0087                     	;# 
   332  0088                     	;# 
   333  0089                     	;# 
   334  008C                     	;# 
   335  008D                     	;# 
   336  008E                     	;# 
   337  008F                     	;# 
   338  0090                     	;# 
   339  0091                     	;# 
   340  0092                     	;# 
   341  0093                     	;# 
   342  0093                     	;# 
   343  0093                     	;# 
   344  0094                     	;# 
   345  0095                     	;# 
   346  0096                     	;# 
   347  0097                     	;# 
   348  0098                     	;# 
   349  0099                     	;# 
   350  009A                     	;# 
   351  009B                     	;# 
   352  009C                     	;# 
   353  009D                     	;# 
   354  009E                     	;# 
   355  009F                     	;# 
   356  0105                     	;# 
   357  0107                     	;# 
   358  0108                     	;# 
   359  0109                     	;# 
   360  010C                     	;# 
   361  010C                     	;# 
   362  010D                     	;# 
   363  010E                     	;# 
   364  010F                     	;# 
   365  0185                     	;# 
   366  0187                     	;# 
   367  0188                     	;# 
   368  0189                     	;# 
   369  018C                     	;# 
   370  018D                     	;# 
   371  0000                     	;# 
   372  0001                     	;# 
   373  0002                     	;# 
   374  0003                     	;# 
   375  0004                     	;# 
   376  0005                     	;# 
   377  0006                     	;# 
   378  0007                     	;# 
   379  0008                     	;# 
   380  0009                     	;# 
   381  000A                     	;# 
   382  000B                     	;# 
   383  000C                     	;# 
   384  000D                     	;# 
   385  000E                     	;# 
   386  000E                     	;# 
   387  000F                     	;# 
   388  0010                     	;# 
   389  0011                     	;# 
   390  0012                     	;# 
   391  0013                     	;# 
   392  0014                     	;# 
   393  0015                     	;# 
   394  0015                     	;# 
   395  0016                     	;# 
   396  0017                     	;# 
   397  0018                     	;# 
   398  0019                     	;# 
   399  001A                     	;# 
   400  001B                     	;# 
   401  001B                     	;# 
   402  001C                     	;# 
   403  001D                     	;# 
   404  001E                     	;# 
   405  001F                     	;# 
   406  0081                     	;# 
   407  0085                     	;# 
   408  0086                     	;# 
   409  0087                     	;# 
   410  0088                     	;# 
   411  0089                     	;# 
   412  008C                     	;# 
   413  008D                     	;# 
   414  008E                     	;# 
   415  008F                     	;# 
   416  0090                     	;# 
   417  0091                     	;# 
   418  0092                     	;# 
   419  0093                     	;# 
   420  0093                     	;# 
   421  0093                     	;# 
   422  0094                     	;# 
   423  0095                     	;# 
   424  0096                     	;# 
   425  0097                     	;# 
   426  0098                     	;# 
   427  0099                     	;# 
   428  009A                     	;# 
   429  009B                     	;# 
   430  009C                     	;# 
   431  009D                     	;# 
   432  009E                     	;# 
   433  009F                     	;# 
   434  0105                     	;# 
   435  0107                     	;# 
   436  0108                     	;# 
   437  0109                     	;# 
   438  010C                     	;# 
   439  010C                     	;# 
   440  010D                     	;# 
   441  010E                     	;# 
   442  010F                     	;# 
   443  0185                     	;# 
   444  0187                     	;# 
   445  0188                     	;# 
   446  0189                     	;# 
   447  018C                     	;# 
   448  018D                     	;# 
   449  0000                     	;# 
   450  0001                     	;# 
   451  0002                     	;# 
   452  0003                     	;# 
   453  0004                     	;# 
   454  0005                     	;# 
   455  0006                     	;# 
   456  0007                     	;# 
   457  0008                     	;# 
   458  0009                     	;# 
   459  000A                     	;# 
   460  000B                     	;# 
   461  000C                     	;# 
   462  000D                     	;# 
   463  000E                     	;# 
   464  000E                     	;# 
   465  000F                     	;# 
   466  0010                     	;# 
   467  0011                     	;# 
   468  0012                     	;# 
   469  0013                     	;# 
   470  0014                     	;# 
   471  0015                     	;# 
   472  0015                     	;# 
   473  0016                     	;# 
   474  0017                     	;# 
   475  0018                     	;# 
   476  0019                     	;# 
   477  001A                     	;# 
   478  001B                     	;# 
   479  001B                     	;# 
   480  001C                     	;# 
   481  001D                     	;# 
   482  001E                     	;# 
   483  001F                     	;# 
   484  0081                     	;# 
   485  0085                     	;# 
   486  0086                     	;# 
   487  0087                     	;# 
   488  0088                     	;# 
   489  0089                     	;# 
   490  008C                     	;# 
   491  008D                     	;# 
   492  008E                     	;# 
   493  008F                     	;# 
   494  0090                     	;# 
   495  0091                     	;# 
   496  0092                     	;# 
   497  0093                     	;# 
   498  0093                     	;# 
   499  0093                     	;# 
   500  0094                     	;# 
   501  0095                     	;# 
   502  0096                     	;# 
   503  0097                     	;# 
   504  0098                     	;# 
   505  0099                     	;# 
   506  009A                     	;# 
   507  009B                     	;# 
   508  009C                     	;# 
   509  009D                     	;# 
   510  009E                     	;# 
   511  009F                     	;# 
   512  0105                     	;# 
   513  0107                     	;# 
   514  0108                     	;# 
   515  0109                     	;# 
   516  010C                     	;# 
   517  010C                     	;# 
   518  010D                     	;# 
   519  010E                     	;# 
   520  010F                     	;# 
   521  0185                     	;# 
   522  0187                     	;# 
   523  0188                     	;# 
   524  0189                     	;# 
   525  018C                     	;# 
   526  018D                     	;# 
   527  000B                     _INTCONbits	set	11
   528  0013                     _SSPBUF	set	19
   529  0014                     _SSPCON	set	20
   530  000C                     _PIR1bits	set	12
   531  0010                     _T1CONbits	set	16
   532  0009                     _PORTEbits	set	9
   533  0005                     _PORTA	set	5
   534  0008                     _PORTD	set	8
   535  0094                     _SSPSTATbits	set	148
   536  0091                     _SSPCON2bits	set	145
   537  0087                     _TRISCbits	set	135
   538  0094                     _SSPSTAT	set	148
   539  0093                     _SSPADD	set	147
   540  0091                     _SSPCON2	set	145
   541  008C                     _PIE1bits	set	140
   542  008F                     _OSCCONbits	set	143
   543  0089                     _TRISE	set	137
   544  0088                     _TRISD	set	136
   545  0086                     _TRISBbits	set	134
   546  0085                     _TRISA	set	133
   547  0189                     _ANSELH	set	393
   548  0188                     _ANSEL	set	392
   549                           
   550                           ; #config settings
   551  0000                     
   552                           	psect	cinit
   553  07F6                     start_initialization:	
   554  07F6                     __initialization:	
   555                           
   556                           ; Clear objects allocated to BANK0
   557  07F6  1283               	bcf	3,5	;RP0=0, select bank0
   558  07F7  1303               	bcf	3,6	;RP1=0, select bank0
   559  07F8  01A9               	clrf	__pbssBANK0& (0+127)
   560  07F9  01AA               	clrf	(__pbssBANK0+1)& (0+127)
   561  07FA  01AB               	clrf	(__pbssBANK0+2)& (0+127)
   562  07FB  01AC               	clrf	(__pbssBANK0+3)& (0+127)
   563  07FC                     end_of_initialization:	
   564                           ;End of C runtime variable initialization code
   565                           
   566  07FC                     __end_of__initialization:	
   567  07FC  0183               	clrf	3
   568  07FD  120A  118A  2E78   	ljmp	_main	;jump to C main() function
   569                           
   570                           	psect	bssBANK0
   571  0029                     __pbssBANK0:	
   572  0029                     _fuerza:	
   573  0029                     	ds	2
   574  002B                     _distancia:	
   575  002B                     	ds	2
   576                           
   577                           	psect	cstackCOMMON
   578  0070                     __pcstackCOMMON:	
   579  0070                     ?_setup:	
   580  0070                     ??_setup:	
   581                           ; 1 bytes @ 0x0
   582                           
   583  0070                     ?_oscInit:	
   584                           ; 1 bytes @ 0x0
   585                           
   586  0070                     ??_oscInit:	
   587                           ; 1 bytes @ 0x0
   588                           
   589  0070                     ?_tmr1_Init:	
   590                           ; 1 bytes @ 0x0
   591                           
   592  0070                     ??_tmr1_Init:	
   593                           ; 1 bytes @ 0x0
   594                           
   595  0070                     ?_tmr1_Prescaler:	
   596                           ; 1 bytes @ 0x0
   597                           
   598  0070                     ??_tmr1_Prescaler:	
   599                           ; 1 bytes @ 0x0
   600                           
   601  0070                     ?_tmr1_Interrupt:	
   602                           ; 1 bytes @ 0x0
   603                           
   604  0070                     ??_tmr1_Interrupt:	
   605                           ; 1 bytes @ 0x0
   606                           
   607  0070                     ?_lcd8_init:	
   608                           ; 1 bytes @ 0x0
   609                           
   610  0070                     ?_i2c_addr_start:	
   611                           ; 1 bytes @ 0x0
   612                           
   613  0070                     ?_i2c_masterWrite:	
   614                           ; 1 bytes @ 0x0
   615                           
   616  0070                     ??_i2c_masterWrite:	
   617                           ; 1 bytes @ 0x0
   618                           
   619  0070                     ?_i2c_masterStop:	
   620                           ; 1 bytes @ 0x0
   621                           
   622  0070                     ??_i2c_masterStop:	
   623                           ; 1 bytes @ 0x0
   624                           
   625  0070                     ?_lcd8_cmd:	
   626                           ; 1 bytes @ 0x0
   627                           
   628  0070                     ?_delay_1ms:	
   629                           ; 1 bytes @ 0x0
   630                           
   631  0070                     ??_delay_1ms:	
   632                           ; 1 bytes @ 0x0
   633                           
   634  0070                     ?_main:	
   635                           ; 1 bytes @ 0x0
   636                           
   637  0070                     ?_i2c_masterWait:	
   638                           ; 1 bytes @ 0x0
   639                           
   640  0070                     ??_i2c_masterWait:	
   641                           ; 1 bytes @ 0x0
   642                           
   643  0070                     ?___lldiv:	
   644                           ; 1 bytes @ 0x0
   645                           
   646  0070                     tmr1_Interrupt@tmr1_Int:	
   647                           ; 4 bytes @ 0x0
   648                           
   649  0070                     i2c_masterWrite@data:	
   650                           ; 1 bytes @ 0x0
   651                           
   652  0070                     delay_1ms@i:	
   653                           ; 1 bytes @ 0x0
   654                           
   655  0070                     ___lldiv@divisor:	
   656                           ; 2 bytes @ 0x0
   657                           
   658                           
   659                           ; 4 bytes @ 0x0
   660  0070                     	ds	1
   661  0071                     ??_i2c_addr_start:	
   662  0071                     i2c_addr_start@addr:	
   663                           ; 1 bytes @ 0x1
   664                           
   665                           
   666                           ; 1 bytes @ 0x1
   667  0071                     	ds	1
   668  0072                     ??_lcd8_cmd:	
   669  0072                     oscInit@freq:	
   670                           ; 1 bytes @ 0x2
   671                           
   672  0072                     lcd8_cmd@cmd:	
   673                           ; 1 bytes @ 0x2
   674                           
   675  0072                     tmr1_Prescaler@prescaler:	
   676                           ; 1 bytes @ 0x2
   677                           
   678                           
   679                           ; 1 bytes @ 0x2
   680  0072                     	ds	1
   681  0073                     ??_lcd8_init:	
   682                           
   683                           ; 1 bytes @ 0x3
   684  0073                     	ds	1
   685  0074                     ___lldiv@dividend:	
   686                           
   687                           ; 4 bytes @ 0x4
   688  0074                     	ds	4
   689  0078                     ??___lldiv:	
   690                           
   691                           ; 1 bytes @ 0x8
   692  0078                     	ds	1
   693  0079                     ___lldiv@quotient:	
   694                           
   695                           ; 4 bytes @ 0x9
   696  0079                     	ds	4
   697  007D                     ___lldiv@counter:	
   698                           
   699                           ; 1 bytes @ 0xD
   700  007D                     	ds	1
   701                           
   702                           	psect	cstackBANK0
   703  0020                     __pcstackBANK0:	
   704  0020                     ?_i2c_master_init:	
   705  0020                     i2c_master_init@c:	
   706                           ; 1 bytes @ 0x0
   707                           
   708                           
   709                           ; 4 bytes @ 0x0
   710  0020                     	ds	4
   711  0024                     ??_i2c_master_init:	
   712                           
   713                           ; 1 bytes @ 0x4
   714  0024                     	ds	4
   715  0028                     ??_main:	
   716                           
   717                           ; 1 bytes @ 0x8
   718  0028                     	ds	1
   719                           
   720                           	psect	maintext
   721  0678                     __pmaintext:	
   722 ;;
   723 ;;Main: autosize = 0, tempsize = 1, incstack = 0, save=0
   724 ;;
   725 ;; *************** function _main *****************
   726 ;; Defined at:
   727 ;;		line 48 in file "master.c"
   728 ;; Parameters:    Size  Location     Type
   729 ;;		None
   730 ;; Auto vars:     Size  Location     Type
   731 ;;		None
   732 ;; Return value:  Size  Location     Type
   733 ;;                  1    wreg      void 
   734 ;; Registers used:
   735 ;;		wreg, fsr0l, fsr0h, status,2, status,0, btemp+1, pclath, cstack
   736 ;; Tracked objects:
   737 ;;		On entry : B00/0
   738 ;;		On exit  : 0/0
   739 ;;		Unchanged: 0/0
   740 ;; Data sizes:     COMMON   BANK0   BANK1   BANK3   BANK2
   741 ;;      Params:         0       0       0       0       0
   742 ;;      Locals:         0       0       0       0       0
   743 ;;      Temps:          0       1       0       0       0
   744 ;;      Totals:         0       1       0       0       0
   745 ;;Total ram usage:        1 bytes
   746 ;; Hardware stack levels required when called:    3
   747 ;; This function calls:
   748 ;;		_i2c_addr_start
   749 ;;		_i2c_masterStop
   750 ;;		_i2c_masterWrite
   751 ;;		_i2c_master_init
   752 ;;		_lcd8_init
   753 ;;		_oscInit
   754 ;;		_setup
   755 ;;		_tmr1_Init
   756 ;;		_tmr1_Interrupt
   757 ;;		_tmr1_Prescaler
   758 ;; This function is called by:
   759 ;;		Startup code after reset
   760 ;; This function uses a non-reentrant model
   761 ;;
   762                           
   763                           
   764                           ;psect for function _main
   765  0678                     _main:	
   766  0678                     l1101:	
   767                           ;incstack = 0
   768                           ; Regs used in _main: [wreg-fsr0h+status,2+status,0+btemp+1+pclath+cstack]
   769                           
   770                           
   771                           ;master.c: 49:     setup();
   772  0678  120A  118A  25EA  120A  118A  	fcall	_setup
   773  067D                     l1103:	
   774                           
   775                           ;master.c: 50:     oscInit(1);
   776  067D  3001               	movlw	1
   777  067E  120A  118A  2781  120A  118A  	fcall	_oscInit
   778  0683                     l1105:	
   779                           
   780                           ;master.c: 51:     tmr1_Init();
   781  0683  120A  118A  258E  120A  118A  	fcall	_tmr1_Init
   782  0688                     l1107:	
   783                           
   784                           ;master.c: 52:     tmr1_Prescaler(1);
   785  0688  3001               	movlw	1
   786  0689  120A  118A  2613  120A  118A  	fcall	_tmr1_Prescaler
   787  068E                     l1109:	
   788                           
   789                           ;master.c: 53:     tmr1_Interrupt(0);
   790  068E  3000               	movlw	0
   791  068F  120A  118A  259D  120A  118A  	fcall	_tmr1_Interrupt
   792  0694                     l1111:	
   793                           
   794                           ;master.c: 54:     i2c_master_init(100000);
   795  0694  3000               	movlw	0
   796  0695  1283               	bcf	3,5	;RP0=0, select bank0
   797  0696  1303               	bcf	3,6	;RP1=0, select bank0
   798  0697  00A3               	movwf	i2c_master_init@c+3
   799  0698  3001               	movlw	1
   800  0699  00A2               	movwf	i2c_master_init@c+2
   801  069A  3086               	movlw	134
   802  069B  00A1               	movwf	i2c_master_init@c+1
   803  069C  30A0               	movlw	160
   804  069D  00A0               	movwf	i2c_master_init@c
   805  069E  120A  118A  2640  120A  118A  	fcall	_i2c_master_init
   806  06A3                     l1113:	
   807                           
   808                           ;master.c: 55:     lcd8_init();
   809  06A3  120A  118A  26C5  120A  118A  	fcall	_lcd8_init
   810  06A8                     l1115:	
   811                           
   812                           ;master.c: 58:         i2c_addr_start(0x50);
   813  06A8  3050               	movlw	80
   814  06A9  120A  118A  25B6  120A  118A  	fcall	_i2c_addr_start
   815  06AE                     l1117:	
   816                           
   817                           ;master.c: 59:         i2c_masterWrite(0xD1);
   818  06AE  30D1               	movlw	209
   819  06AF  120A  118A  25D7  120A  118A  	fcall	_i2c_masterWrite
   820  06B4                     l1119:	
   821                           
   822                           ;master.c: 60:         i2c_masterStop();
   823  06B4  120A  118A  2594  120A  118A  	fcall	_i2c_masterStop
   824  06B9                     l1121:	
   825                           
   826                           ;master.c: 61:         _delay((unsigned long)((1)*(4000000/4000.0)));
   827  06B9  30C7               	movlw	199
   828  06BA  1283               	bcf	3,5	;RP0=0, select bank0
   829  06BB  1303               	bcf	3,6	;RP1=0, select bank0
   830  06BC  00A8               	movwf	??_main
   831  06BD                     u307:	
   832  06BD  2EBE               	nop2
   833  06BE  0BA8               	decfsz	??_main,f
   834  06BF  2EBD               	goto	u307
   835  06C0  2EC1               	nop2
   836  06C1  2EA8               	goto	l1115
   837  06C2  120A  118A  2800   	ljmp	start
   838  06C5                     __end_of_main:	
   839                           
   840                           	psect	text1
   841  0613                     __ptext1:	
   842 ;; *************** function _tmr1_Prescaler *****************
   843 ;; Defined at:
   844 ;;		line 22 in file "TMR1.c"
   845 ;; Parameters:    Size  Location     Type
   846 ;;  prescaler       1    wreg     unsigned char 
   847 ;; Auto vars:     Size  Location     Type
   848 ;;  prescaler       1    2[COMMON] unsigned char 
   849 ;; Return value:  Size  Location     Type
   850 ;;                  1    wreg      void 
   851 ;; Registers used:
   852 ;;		wreg, fsr0l, fsr0h, status,2, status,0
   853 ;; Tracked objects:
   854 ;;		On entry : 0/0
   855 ;;		On exit  : 0/0
   856 ;;		Unchanged: 0/0
   857 ;; Data sizes:     COMMON   BANK0   BANK1   BANK3   BANK2
   858 ;;      Params:         0       0       0       0       0
   859 ;;      Locals:         1       0       0       0       0
   860 ;;      Temps:          2       0       0       0       0
   861 ;;      Totals:         3       0       0       0       0
   862 ;;Total ram usage:        3 bytes
   863 ;; Hardware stack levels used:    1
   864 ;; This function calls:
   865 ;;		Nothing
   866 ;; This function is called by:
   867 ;;		_main
   868 ;; This function uses a non-reentrant model
   869 ;;
   870                           
   871                           
   872                           ;psect for function _tmr1_Prescaler
   873  0613                     _tmr1_Prescaler:	
   874                           
   875                           ;incstack = 0
   876                           ; Regs used in _tmr1_Prescaler: [wreg-fsr0h+status,2+status,0]
   877                           ;tmr1_Prescaler@prescaler stored from wreg
   878  0613  00F2               	movwf	tmr1_Prescaler@prescaler
   879  0614                     l881:	
   880                           
   881                           ;TMR1.c: 23:     switch(prescaler){
   882  0614  2E29               	goto	l885
   883  0615                     l121:	
   884                           ;TMR1.c: 24:         case 0:
   885                           
   886                           
   887                           ;TMR1.c: 25:             T1CONbits.T1CKPS1 = 0;
   888  0615  1283               	bcf	3,5	;RP0=0, select bank0
   889  0616  1303               	bcf	3,6	;RP1=0, select bank0
   890  0617  1290               	bcf	16,5	;volatile
   891                           
   892                           ;TMR1.c: 26:             T1CONbits.T1CKPS0 = 0;
   893  0618  1210               	bcf	16,4	;volatile
   894                           
   895                           ;TMR1.c: 27:             break;
   896  0619  2E3F               	goto	l126
   897  061A                     l123:	
   898                           ;TMR1.c: 28:         case 1:
   899                           
   900                           
   901                           ;TMR1.c: 29:             T1CONbits.T1CKPS1 = 0;
   902  061A  1283               	bcf	3,5	;RP0=0, select bank0
   903  061B  1303               	bcf	3,6	;RP1=0, select bank0
   904  061C  1290               	bcf	16,5	;volatile
   905                           
   906                           ;TMR1.c: 30:             T1CONbits.T1CKPS0 = 1;
   907  061D  1610               	bsf	16,4	;volatile
   908                           
   909                           ;TMR1.c: 31:             break;
   910  061E  2E3F               	goto	l126
   911  061F                     l124:	
   912                           ;TMR1.c: 32:         case 2:
   913                           
   914                           
   915                           ;TMR1.c: 33:             T1CONbits.T1CKPS1 = 1;
   916  061F  1283               	bcf	3,5	;RP0=0, select bank0
   917  0620  1303               	bcf	3,6	;RP1=0, select bank0
   918  0621  1690               	bsf	16,5	;volatile
   919                           
   920                           ;TMR1.c: 34:             T1CONbits.T1CKPS0 = 0;
   921  0622  1210               	bcf	16,4	;volatile
   922                           
   923                           ;TMR1.c: 35:             break;
   924  0623  2E3F               	goto	l126
   925  0624                     l125:	
   926                           ;TMR1.c: 36:         case 3:
   927                           
   928                           
   929                           ;TMR1.c: 37:             T1CONbits.T1CKPS1 = 1;
   930  0624  1283               	bcf	3,5	;RP0=0, select bank0
   931  0625  1303               	bcf	3,6	;RP1=0, select bank0
   932  0626  1690               	bsf	16,5	;volatile
   933                           
   934                           ;TMR1.c: 38:             T1CONbits.T1CKPS0 = 1;
   935  0627  1610               	bsf	16,4	;volatile
   936                           
   937                           ;TMR1.c: 39:             break;
   938  0628  2E3F               	goto	l126
   939  0629                     l885:	
   940  0629  0872               	movf	tmr1_Prescaler@prescaler,w
   941  062A  00F0               	movwf	??_tmr1_Prescaler
   942  062B  01F1               	clrf	??_tmr1_Prescaler+1
   943                           
   944                           ; Switch on 2 bytes has been partitioned into a top level switch of size 1, and 1 sub-sw
      +                          itches
   945                           ; Switch size 1, requested type "simple"
   946                           ; Number of cases is 1, Range of values is 0 to 0
   947                           ; switch strategies available:
   948                           ; Name         Instructions Cycles
   949                           ; simple_byte            4     3 (average)
   950                           ; direct_byte           11     8 (fixed)
   951                           ; jumptable            260     6 (fixed)
   952                           ;	Chosen strategy is simple_byte
   953  062C  0871               	movf	??_tmr1_Prescaler+1,w
   954  062D  3A00               	xorlw	0	; case 0
   955  062E  1903               	skipnz
   956  062F  2E31               	goto	l1163
   957  0630  2E3F               	goto	l126
   958  0631                     l1163:	
   959                           
   960                           ; Switch size 1, requested type "simple"
   961                           ; Number of cases is 4, Range of values is 0 to 3
   962                           ; switch strategies available:
   963                           ; Name         Instructions Cycles
   964                           ; simple_byte           13     7 (average)
   965                           ; direct_byte           20     8 (fixed)
   966                           ; jumptable            260     6 (fixed)
   967                           ;	Chosen strategy is simple_byte
   968  0631  0870               	movf	??_tmr1_Prescaler,w
   969  0632  3A00               	xorlw	0	; case 0
   970  0633  1903               	skipnz
   971  0634  2E15               	goto	l121
   972  0635  3A01               	xorlw	1	; case 1
   973  0636  1903               	skipnz
   974  0637  2E1A               	goto	l123
   975  0638  3A03               	xorlw	3	; case 2
   976  0639  1903               	skipnz
   977  063A  2E1F               	goto	l124
   978  063B  3A01               	xorlw	1	; case 3
   979  063C  1903               	skipnz
   980  063D  2E24               	goto	l125
   981  063E  2E3F               	goto	l126
   982  063F                     l126:	
   983  063F  0008               	return
   984  0640                     __end_of_tmr1_Prescaler:	
   985                           
   986                           	psect	text2
   987  059D                     __ptext2:	
   988 ;; *************** function _tmr1_Interrupt *****************
   989 ;; Defined at:
   990 ;;		line 43 in file "TMR1.c"
   991 ;; Parameters:    Size  Location     Type
   992 ;;  tmr1_Int        1    wreg     unsigned char 
   993 ;; Auto vars:     Size  Location     Type
   994 ;;  tmr1_Int        1    0[COMMON] unsigned char 
   995 ;; Return value:  Size  Location     Type
   996 ;;                  1    wreg      void 
   997 ;; Registers used:
   998 ;;		wreg, status,0
   999 ;; Tracked objects:
  1000 ;;		On entry : 0/0
  1001 ;;		On exit  : 0/0
  1002 ;;		Unchanged: 0/0
  1003 ;; Data sizes:     COMMON   BANK0   BANK1   BANK3   BANK2
  1004 ;;      Params:         0       0       0       0       0
  1005 ;;      Locals:         1       0       0       0       0
  1006 ;;      Temps:          0       0       0       0       0
  1007 ;;      Totals:         1       0       0       0       0
  1008 ;;Total ram usage:        1 bytes
  1009 ;; Hardware stack levels used:    1
  1010 ;; This function calls:
  1011 ;;		Nothing
  1012 ;; This function is called by:
  1013 ;;		_main
  1014 ;; This function uses a non-reentrant model
  1015 ;;
  1016                           
  1017                           
  1018                           ;psect for function _tmr1_Interrupt
  1019  059D                     _tmr1_Interrupt:	
  1020                           
  1021                           ;incstack = 0
  1022                           ; Regs used in _tmr1_Interrupt: [wreg+status,0]
  1023                           ;tmr1_Interrupt@tmr1_Int stored from wreg
  1024  059D  00F0               	movwf	tmr1_Interrupt@tmr1_Int
  1025  059E                     l891:	
  1026                           
  1027                           ;TMR1.c: 44:     PIE1bits.TMR1IE = tmr1_Int;
  1028  059E  0C70               	rrf	tmr1_Interrupt@tmr1_Int,w
  1029  059F  1683               	bsf	3,5	;RP0=1, select bank1
  1030  05A0  1303               	bcf	3,6	;RP1=0, select bank1
  1031  05A1  1C03               	skipc
  1032  05A2  100C               	bcf	12,0	;volatile
  1033  05A3  1803               	skipnc
  1034  05A4  140C               	bsf	12,0	;volatile
  1035  05A5                     l893:	
  1036                           
  1037                           ;TMR1.c: 45:     PIR1bits.TMR1IF = 0;
  1038  05A5  1283               	bcf	3,5	;RP0=0, select bank0
  1039  05A6  1303               	bcf	3,6	;RP1=0, select bank0
  1040  05A7  100C               	bcf	12,0	;volatile
  1041  05A8                     l129:	
  1042  05A8  0008               	return
  1043  05A9                     __end_of_tmr1_Interrupt:	
  1044                           
  1045                           	psect	text3
  1046  058E                     __ptext3:	
  1047 ;; *************** function _tmr1_Init *****************
  1048 ;; Defined at:
  1049 ;;		line 16 in file "TMR1.c"
  1050 ;; Parameters:    Size  Location     Type
  1051 ;;		None
  1052 ;; Auto vars:     Size  Location     Type
  1053 ;;		None
  1054 ;; Return value:  Size  Location     Type
  1055 ;;                  1    wreg      void 
  1056 ;; Registers used:
  1057 ;;		None
  1058 ;; Tracked objects:
  1059 ;;		On entry : 0/0
  1060 ;;		On exit  : 0/0
  1061 ;;		Unchanged: 0/0
  1062 ;; Data sizes:     COMMON   BANK0   BANK1   BANK3   BANK2
  1063 ;;      Params:         0       0       0       0       0
  1064 ;;      Locals:         0       0       0       0       0
  1065 ;;      Temps:          0       0       0       0       0
  1066 ;;      Totals:         0       0       0       0       0
  1067 ;;Total ram usage:        0 bytes
  1068 ;; Hardware stack levels used:    1
  1069 ;; This function calls:
  1070 ;;		Nothing
  1071 ;; This function is called by:
  1072 ;;		_main
  1073 ;; This function uses a non-reentrant model
  1074 ;;
  1075                           
  1076                           
  1077                           ;psect for function _tmr1_Init
  1078  058E                     _tmr1_Init:	
  1079  058E                     l879:	
  1080                           ;incstack = 0
  1081                           ; Regs used in _tmr1_Init: []
  1082                           
  1083                           
  1084                           ;TMR1.c: 17:     T1CONbits.T1OSCEN = 0;
  1085  058E  1283               	bcf	3,5	;RP0=0, select bank0
  1086  058F  1303               	bcf	3,6	;RP1=0, select bank0
  1087  0590  1190               	bcf	16,3	;volatile
  1088                           
  1089                           ;TMR1.c: 18:     T1CONbits.TMR1CS = 0;
  1090  0591  1090               	bcf	16,1	;volatile
  1091                           
  1092                           ;TMR1.c: 19:     T1CONbits.TMR1ON = 1;
  1093  0592  1410               	bsf	16,0	;volatile
  1094  0593                     l117:	
  1095  0593  0008               	return
  1096  0594                     __end_of_tmr1_Init:	
  1097                           
  1098                           	psect	text4
  1099  05EA                     __ptext4:	
  1100 ;; *************** function _setup *****************
  1101 ;; Defined at:
  1102 ;;		line 129 in file "master.c"
  1103 ;; Parameters:    Size  Location     Type
  1104 ;;		None
  1105 ;; Auto vars:     Size  Location     Type
  1106 ;;		None
  1107 ;; Return value:  Size  Location     Type
  1108 ;;                  1    wreg      void 
  1109 ;; Registers used:
  1110 ;;		wreg, status,2
  1111 ;; Tracked objects:
  1112 ;;		On entry : 0/0
  1113 ;;		On exit  : 0/0
  1114 ;;		Unchanged: 0/0
  1115 ;; Data sizes:     COMMON   BANK0   BANK1   BANK3   BANK2
  1116 ;;      Params:         0       0       0       0       0
  1117 ;;      Locals:         0       0       0       0       0
  1118 ;;      Temps:          0       0       0       0       0
  1119 ;;      Totals:         0       0       0       0       0
  1120 ;;Total ram usage:        0 bytes
  1121 ;; Hardware stack levels used:    1
  1122 ;; This function calls:
  1123 ;;		Nothing
  1124 ;; This function is called by:
  1125 ;;		_main
  1126 ;; This function uses a non-reentrant model
  1127 ;;
  1128                           
  1129                           
  1130                           ;psect for function _setup
  1131  05EA                     _setup:	
  1132  05EA                     l851:	
  1133                           ;incstack = 0
  1134                           ; Regs used in _setup: [wreg+status,2]
  1135                           
  1136                           
  1137                           ;master.c: 130:     TRISA = 0x00;
  1138  05EA  1683               	bsf	3,5	;RP0=1, select bank1
  1139  05EB  1303               	bcf	3,6	;RP1=0, select bank1
  1140  05EC  0185               	clrf	5	;volatile
  1141  05ED                     l853:	
  1142                           
  1143                           ;master.c: 131:     TRISBbits.TRISB0 = 0;
  1144  05ED  1006               	bcf	6,0	;volatile
  1145  05EE                     l855:	
  1146                           
  1147                           ;master.c: 132:     TRISBbits.TRISB1 = 1;
  1148  05EE  1486               	bsf	6,1	;volatile
  1149  05EF                     l857:	
  1150                           
  1151                           ;master.c: 133:     TRISBbits.TRISB2 = 0;
  1152  05EF  1106               	bcf	6,2	;volatile
  1153  05F0                     l859:	
  1154                           
  1155                           ;master.c: 134:     TRISD = 0xFF;
  1156  05F0  30FF               	movlw	255
  1157  05F1  0088               	movwf	8	;volatile
  1158  05F2                     l861:	
  1159                           
  1160                           ;master.c: 135:     PORTD = 0;
  1161  05F2  1283               	bcf	3,5	;RP0=0, select bank0
  1162  05F3  1303               	bcf	3,6	;RP1=0, select bank0
  1163  05F4  0188               	clrf	8	;volatile
  1164  05F5                     l863:	
  1165                           
  1166                           ;master.c: 136:     TRISE = 0;
  1167  05F5  1683               	bsf	3,5	;RP0=1, select bank1
  1168  05F6  1303               	bcf	3,6	;RP1=0, select bank1
  1169  05F7  0189               	clrf	9	;volatile
  1170  05F8                     l865:	
  1171                           
  1172                           ;master.c: 137:     ANSEL = 0;
  1173  05F8  1683               	bsf	3,5	;RP0=1, select bank3
  1174  05F9  1703               	bsf	3,6	;RP1=1, select bank3
  1175  05FA  0188               	clrf	8	;volatile
  1176  05FB                     l867:	
  1177                           
  1178                           ;master.c: 138:     ANSELH = 0;
  1179  05FB  0189               	clrf	9	;volatile
  1180  05FC                     l51:	
  1181  05FC  0008               	return
  1182  05FD                     __end_of_setup:	
  1183                           
  1184                           	psect	text5
  1185  0781                     __ptext5:	
  1186 ;; *************** function _oscInit *****************
  1187 ;; Defined at:
  1188 ;;		line 11 in file "OSCCON.c"
  1189 ;; Parameters:    Size  Location     Type
  1190 ;;  freq            1    wreg     unsigned char 
  1191 ;; Auto vars:     Size  Location     Type
  1192 ;;  freq            1    2[COMMON] unsigned char 
  1193 ;; Return value:  Size  Location     Type
  1194 ;;                  1    wreg      unsigned char 
  1195 ;; Registers used:
  1196 ;;		wreg, fsr0l, fsr0h, status,2, status,0
  1197 ;; Tracked objects:
  1198 ;;		On entry : 0/0
  1199 ;;		On exit  : 0/0
  1200 ;;		Unchanged: 0/0
  1201 ;; Data sizes:     COMMON   BANK0   BANK1   BANK3   BANK2
  1202 ;;      Params:         0       0       0       0       0
  1203 ;;      Locals:         1       0       0       0       0
  1204 ;;      Temps:          2       0       0       0       0
  1205 ;;      Totals:         3       0       0       0       0
  1206 ;;Total ram usage:        3 bytes
  1207 ;; Hardware stack levels used:    1
  1208 ;; This function calls:
  1209 ;;		Nothing
  1210 ;; This function is called by:
  1211 ;;		_main
  1212 ;; This function uses a non-reentrant model
  1213 ;;
  1214                           
  1215                           
  1216                           ;psect for function _oscInit
  1217  0781                     _oscInit:	
  1218                           
  1219                           ;incstack = 0
  1220                           ; Regs used in _oscInit: [wreg-fsr0h+status,2+status,0]
  1221                           ;oscInit@freq stored from wreg
  1222  0781  00F2               	movwf	oscInit@freq
  1223  0782                     l869:	
  1224                           
  1225                           ;OSCCON.c: 12:     switch(freq){
  1226  0782  2FD3               	goto	l873
  1227  0783                     l57:	
  1228                           ;OSCCON.c: 13:         case 0:
  1229                           
  1230                           
  1231                           ;OSCCON.c: 14:             OSCCONbits.IRCF2 = 1;
  1232  0783  1683               	bsf	3,5	;RP0=1, select bank1
  1233  0784  1303               	bcf	3,6	;RP1=0, select bank1
  1234  0785  170F               	bsf	15,6	;volatile
  1235                           
  1236                           ;OSCCON.c: 15:             OSCCONbits.IRCF1 = 1;
  1237  0786  168F               	bsf	15,5	;volatile
  1238                           
  1239                           ;OSCCON.c: 16:             OSCCONbits.IRCF0 = 1;
  1240  0787  160F               	bsf	15,4	;volatile
  1241                           
  1242                           ;OSCCON.c: 17:             OSCCONbits.OSTS = 0;
  1243  0788  118F               	bcf	15,3	;volatile
  1244                           
  1245                           ;OSCCON.c: 18:             OSCCONbits.HTS = 1;
  1246  0789  150F               	bsf	15,2	;volatile
  1247                           
  1248                           ;OSCCON.c: 19:             OSCCONbits.LTS = 0;
  1249  078A  108F               	bcf	15,1	;volatile
  1250                           
  1251                           ;OSCCON.c: 20:             OSCCONbits.SCS = 1;
  1252  078B  140F               	bsf	15,0	;volatile
  1253                           
  1254                           ;OSCCON.c: 21:             break;
  1255  078C  2FF5               	goto	l66
  1256  078D                     l59:	
  1257                           ;OSCCON.c: 22:         case 1:
  1258                           
  1259                           
  1260                           ;OSCCON.c: 23:             OSCCONbits.IRCF2 = 1;
  1261  078D  1683               	bsf	3,5	;RP0=1, select bank1
  1262  078E  1303               	bcf	3,6	;RP1=0, select bank1
  1263  078F  170F               	bsf	15,6	;volatile
  1264                           
  1265                           ;OSCCON.c: 24:             OSCCONbits.IRCF1 = 1;
  1266  0790  168F               	bsf	15,5	;volatile
  1267                           
  1268                           ;OSCCON.c: 25:             OSCCONbits.IRCF0 = 0;
  1269  0791  120F               	bcf	15,4	;volatile
  1270                           
  1271                           ;OSCCON.c: 26:             OSCCONbits.OSTS = 0;
  1272  0792  118F               	bcf	15,3	;volatile
  1273                           
  1274                           ;OSCCON.c: 27:             OSCCONbits.HTS = 1;
  1275  0793  150F               	bsf	15,2	;volatile
  1276                           
  1277                           ;OSCCON.c: 28:             OSCCONbits.LTS = 0;
  1278  0794  108F               	bcf	15,1	;volatile
  1279                           
  1280                           ;OSCCON.c: 29:             OSCCONbits.SCS = 1;
  1281  0795  140F               	bsf	15,0	;volatile
  1282                           
  1283                           ;OSCCON.c: 30:             break;
  1284  0796  2FF5               	goto	l66
  1285  0797                     l60:	
  1286                           ;OSCCON.c: 31:         case 2:
  1287                           
  1288                           
  1289                           ;OSCCON.c: 32:             OSCCONbits.IRCF2 = 1;
  1290  0797  1683               	bsf	3,5	;RP0=1, select bank1
  1291  0798  1303               	bcf	3,6	;RP1=0, select bank1
  1292  0799  170F               	bsf	15,6	;volatile
  1293                           
  1294                           ;OSCCON.c: 33:             OSCCONbits.IRCF1 = 0;
  1295  079A  128F               	bcf	15,5	;volatile
  1296                           
  1297                           ;OSCCON.c: 34:             OSCCONbits.IRCF0 = 1;
  1298  079B  160F               	bsf	15,4	;volatile
  1299                           
  1300                           ;OSCCON.c: 35:             OSCCONbits.OSTS = 0;
  1301  079C  118F               	bcf	15,3	;volatile
  1302                           
  1303                           ;OSCCON.c: 36:             OSCCONbits.HTS = 1;
  1304  079D  150F               	bsf	15,2	;volatile
  1305                           
  1306                           ;OSCCON.c: 37:             OSCCONbits.LTS = 0;
  1307  079E  108F               	bcf	15,1	;volatile
  1308                           
  1309                           ;OSCCON.c: 38:             OSCCONbits.SCS = 1;
  1310  079F  140F               	bsf	15,0	;volatile
  1311                           
  1312                           ;OSCCON.c: 39:             break;
  1313  07A0  2FF5               	goto	l66
  1314  07A1                     l61:	
  1315                           ;OSCCON.c: 40:         case 3:
  1316                           
  1317                           
  1318                           ;OSCCON.c: 41:             OSCCONbits.IRCF2 = 1;
  1319  07A1  1683               	bsf	3,5	;RP0=1, select bank1
  1320  07A2  1303               	bcf	3,6	;RP1=0, select bank1
  1321  07A3  170F               	bsf	15,6	;volatile
  1322                           
  1323                           ;OSCCON.c: 42:             OSCCONbits.IRCF1 = 0;
  1324  07A4  128F               	bcf	15,5	;volatile
  1325                           
  1326                           ;OSCCON.c: 43:             OSCCONbits.IRCF0 = 0;
  1327  07A5  120F               	bcf	15,4	;volatile
  1328                           
  1329                           ;OSCCON.c: 44:             OSCCONbits.OSTS = 0;
  1330  07A6  118F               	bcf	15,3	;volatile
  1331                           
  1332                           ;OSCCON.c: 45:             OSCCONbits.HTS = 1;
  1333  07A7  150F               	bsf	15,2	;volatile
  1334                           
  1335                           ;OSCCON.c: 46:             OSCCONbits.LTS = 0;
  1336  07A8  108F               	bcf	15,1	;volatile
  1337                           
  1338                           ;OSCCON.c: 47:             OSCCONbits.SCS = 1;
  1339  07A9  140F               	bsf	15,0	;volatile
  1340                           
  1341                           ;OSCCON.c: 48:             break;
  1342  07AA  2FF5               	goto	l66
  1343  07AB                     l62:	
  1344                           ;OSCCON.c: 49:         case 4:
  1345                           
  1346                           
  1347                           ;OSCCON.c: 50:             OSCCONbits.IRCF2 = 0;
  1348  07AB  1683               	bsf	3,5	;RP0=1, select bank1
  1349  07AC  1303               	bcf	3,6	;RP1=0, select bank1
  1350  07AD  130F               	bcf	15,6	;volatile
  1351                           
  1352                           ;OSCCON.c: 51:             OSCCONbits.IRCF1 = 1;
  1353  07AE  168F               	bsf	15,5	;volatile
  1354                           
  1355                           ;OSCCON.c: 52:             OSCCONbits.IRCF0 = 1;
  1356  07AF  160F               	bsf	15,4	;volatile
  1357                           
  1358                           ;OSCCON.c: 53:             OSCCONbits.OSTS = 0;
  1359  07B0  118F               	bcf	15,3	;volatile
  1360                           
  1361                           ;OSCCON.c: 54:             OSCCONbits.HTS = 1;
  1362  07B1  150F               	bsf	15,2	;volatile
  1363                           
  1364                           ;OSCCON.c: 55:             OSCCONbits.LTS = 0;
  1365  07B2  108F               	bcf	15,1	;volatile
  1366                           
  1367                           ;OSCCON.c: 56:             OSCCONbits.SCS = 1;
  1368  07B3  140F               	bsf	15,0	;volatile
  1369                           
  1370                           ;OSCCON.c: 57:             break;
  1371  07B4  2FF5               	goto	l66
  1372  07B5                     l63:	
  1373                           ;OSCCON.c: 58:         case 5:
  1374                           
  1375                           
  1376                           ;OSCCON.c: 59:             OSCCONbits.IRCF2 = 0;
  1377  07B5  1683               	bsf	3,5	;RP0=1, select bank1
  1378  07B6  1303               	bcf	3,6	;RP1=0, select bank1
  1379  07B7  130F               	bcf	15,6	;volatile
  1380                           
  1381                           ;OSCCON.c: 60:             OSCCONbits.IRCF1 = 1;
  1382  07B8  168F               	bsf	15,5	;volatile
  1383                           
  1384                           ;OSCCON.c: 61:             OSCCONbits.IRCF0 = 0;
  1385  07B9  120F               	bcf	15,4	;volatile
  1386                           
  1387                           ;OSCCON.c: 62:             OSCCONbits.OSTS = 0;
  1388  07BA  118F               	bcf	15,3	;volatile
  1389                           
  1390                           ;OSCCON.c: 63:             OSCCONbits.HTS = 1;
  1391  07BB  150F               	bsf	15,2	;volatile
  1392                           
  1393                           ;OSCCON.c: 64:             OSCCONbits.LTS = 0;
  1394  07BC  108F               	bcf	15,1	;volatile
  1395                           
  1396                           ;OSCCON.c: 65:             OSCCONbits.SCS = 1;
  1397  07BD  140F               	bsf	15,0	;volatile
  1398                           
  1399                           ;OSCCON.c: 66:             break;
  1400  07BE  2FF5               	goto	l66
  1401  07BF                     l64:	
  1402                           ;OSCCON.c: 67:         case 6:
  1403                           
  1404                           
  1405                           ;OSCCON.c: 68:             OSCCONbits.IRCF2 = 0;
  1406  07BF  1683               	bsf	3,5	;RP0=1, select bank1
  1407  07C0  1303               	bcf	3,6	;RP1=0, select bank1
  1408  07C1  130F               	bcf	15,6	;volatile
  1409                           
  1410                           ;OSCCON.c: 69:             OSCCONbits.IRCF1 = 0;
  1411  07C2  128F               	bcf	15,5	;volatile
  1412                           
  1413                           ;OSCCON.c: 70:             OSCCONbits.IRCF0 = 1;
  1414  07C3  160F               	bsf	15,4	;volatile
  1415                           
  1416                           ;OSCCON.c: 71:             OSCCONbits.OSTS = 0;
  1417  07C4  118F               	bcf	15,3	;volatile
  1418                           
  1419                           ;OSCCON.c: 72:             OSCCONbits.HTS = 1;
  1420  07C5  150F               	bsf	15,2	;volatile
  1421                           
  1422                           ;OSCCON.c: 73:             OSCCONbits.LTS = 0;
  1423  07C6  108F               	bcf	15,1	;volatile
  1424                           
  1425                           ;OSCCON.c: 74:             OSCCONbits.SCS = 1;
  1426  07C7  140F               	bsf	15,0	;volatile
  1427                           
  1428                           ;OSCCON.c: 75:             break;
  1429  07C8  2FF5               	goto	l66
  1430  07C9                     l65:	
  1431                           ;OSCCON.c: 76:         case 7:
  1432                           
  1433                           
  1434                           ;OSCCON.c: 77:             OSCCONbits.IRCF2 = 0;
  1435  07C9  1683               	bsf	3,5	;RP0=1, select bank1
  1436  07CA  1303               	bcf	3,6	;RP1=0, select bank1
  1437  07CB  130F               	bcf	15,6	;volatile
  1438                           
  1439                           ;OSCCON.c: 78:             OSCCONbits.IRCF1 = 0;
  1440  07CC  128F               	bcf	15,5	;volatile
  1441                           
  1442                           ;OSCCON.c: 79:             OSCCONbits.IRCF0 = 0;
  1443  07CD  120F               	bcf	15,4	;volatile
  1444                           
  1445                           ;OSCCON.c: 80:             OSCCONbits.OSTS = 0;
  1446  07CE  118F               	bcf	15,3	;volatile
  1447                           
  1448                           ;OSCCON.c: 81:             OSCCONbits.HTS = 0;
  1449  07CF  110F               	bcf	15,2	;volatile
  1450                           
  1451                           ;OSCCON.c: 82:             OSCCONbits.LTS = 1;
  1452  07D0  148F               	bsf	15,1	;volatile
  1453                           
  1454                           ;OSCCON.c: 83:             OSCCONbits.SCS = 1;
  1455  07D1  140F               	bsf	15,0	;volatile
  1456                           
  1457                           ;OSCCON.c: 84:             break;
  1458  07D2  2FF5               	goto	l66
  1459  07D3                     l873:	
  1460  07D3  0872               	movf	oscInit@freq,w
  1461  07D4  00F0               	movwf	??_oscInit
  1462  07D5  01F1               	clrf	??_oscInit+1
  1463                           
  1464                           ; Switch on 2 bytes has been partitioned into a top level switch of size 1, and 1 sub-sw
      +                          itches
  1465                           ; Switch size 1, requested type "simple"
  1466                           ; Number of cases is 1, Range of values is 0 to 0
  1467                           ; switch strategies available:
  1468                           ; Name         Instructions Cycles
  1469                           ; simple_byte            4     3 (average)
  1470                           ; direct_byte           11     8 (fixed)
  1471                           ; jumptable            260     6 (fixed)
  1472                           ;	Chosen strategy is simple_byte
  1473  07D6  0871               	movf	??_oscInit+1,w
  1474  07D7  3A00               	xorlw	0	; case 0
  1475  07D8  1903               	skipnz
  1476  07D9  2FDB               	goto	l1165
  1477  07DA  2FF5               	goto	l66
  1478  07DB                     l1165:	
  1479                           
  1480                           ; Switch size 1, requested type "simple"
  1481                           ; Number of cases is 8, Range of values is 0 to 7
  1482                           ; switch strategies available:
  1483                           ; Name         Instructions Cycles
  1484                           ; simple_byte           25    13 (average)
  1485                           ; direct_byte           32     8 (fixed)
  1486                           ; jumptable            260     6 (fixed)
  1487                           ;	Chosen strategy is simple_byte
  1488  07DB  0870               	movf	??_oscInit,w
  1489  07DC  3A00               	xorlw	0	; case 0
  1490  07DD  1903               	skipnz
  1491  07DE  2F83               	goto	l57
  1492  07DF  3A01               	xorlw	1	; case 1
  1493  07E0  1903               	skipnz
  1494  07E1  2F8D               	goto	l59
  1495  07E2  3A03               	xorlw	3	; case 2
  1496  07E3  1903               	skipnz
  1497  07E4  2F97               	goto	l60
  1498  07E5  3A01               	xorlw	1	; case 3
  1499  07E6  1903               	skipnz
  1500  07E7  2FA1               	goto	l61
  1501  07E8  3A07               	xorlw	7	; case 4
  1502  07E9  1903               	skipnz
  1503  07EA  2FAB               	goto	l62
  1504  07EB  3A01               	xorlw	1	; case 5
  1505  07EC  1903               	skipnz
  1506  07ED  2FB5               	goto	l63
  1507  07EE  3A03               	xorlw	3	; case 6
  1508  07EF  1903               	skipnz
  1509  07F0  2FBF               	goto	l64
  1510  07F1  3A01               	xorlw	1	; case 7
  1511  07F2  1903               	skipnz
  1512  07F3  2FC9               	goto	l65
  1513  07F4  2FF5               	goto	l66
  1514  07F5                     l66:	
  1515  07F5  0008               	return
  1516  07F6                     __end_of_oscInit:	
  1517                           
  1518                           	psect	text6
  1519  06C5                     __ptext6:	
  1520 ;; *************** function _lcd8_init *****************
  1521 ;; Defined at:
  1522 ;;		line 18 in file "LCD.c"
  1523 ;; Parameters:    Size  Location     Type
  1524 ;;		None
  1525 ;; Auto vars:     Size  Location     Type
  1526 ;;		None
  1527 ;; Return value:  Size  Location     Type
  1528 ;;                  1    wreg      void 
  1529 ;; Registers used:
  1530 ;;		wreg, status,2, status,0, btemp+1, pclath, cstack
  1531 ;; Tracked objects:
  1532 ;;		On entry : 0/0
  1533 ;;		On exit  : 0/0
  1534 ;;		Unchanged: 0/0
  1535 ;; Data sizes:     COMMON   BANK0   BANK1   BANK3   BANK2
  1536 ;;      Params:         0       0       0       0       0
  1537 ;;      Locals:         0       0       0       0       0
  1538 ;;      Temps:          2       0       0       0       0
  1539 ;;      Totals:         2       0       0       0       0
  1540 ;;Total ram usage:        2 bytes
  1541 ;; Hardware stack levels used:    1
  1542 ;; Hardware stack levels required when called:    2
  1543 ;; This function calls:
  1544 ;;		_lcd8_cmd
  1545 ;; This function is called by:
  1546 ;;		_main
  1547 ;; This function uses a non-reentrant model
  1548 ;;
  1549                           
  1550                           
  1551                           ;psect for function _lcd8_init
  1552  06C5                     _lcd8_init:	
  1553  06C5                     l907:	
  1554                           ;incstack = 0
  1555                           ; Regs used in _lcd8_init: [wreg+status,2+status,0+btemp+1+pclath+cstack]
  1556                           
  1557                           
  1558                           ;LCD.c: 19:     _delay((unsigned long)((20)*(4000000/4000.0)));
  1559  06C5  301A               	movlw	26
  1560  06C6  00F4               	movwf	??_lcd8_init+1
  1561  06C7  30F8               	movlw	248
  1562  06C8  00F3               	movwf	??_lcd8_init
  1563  06C9                     u317:	
  1564  06C9  0BF3               	decfsz	??_lcd8_init,f
  1565  06CA  2EC9               	goto	u317
  1566  06CB  0BF4               	decfsz	??_lcd8_init+1,f
  1567  06CC  2EC9               	goto	u317
  1568  06CD  0000               	nop
  1569  06CE                     l909:	
  1570                           
  1571                           ;LCD.c: 20:     lcd8_cmd(0x30);
  1572  06CE  3030               	movlw	48
  1573  06CF  120A  118A  25C6  120A  118A  	fcall	_lcd8_cmd
  1574  06D4                     l911:	
  1575                           
  1576                           ;LCD.c: 21:     _delay((unsigned long)((5)*(4000000/4000.0)));
  1577  06D4  3007               	movlw	7
  1578  06D5  00F4               	movwf	??_lcd8_init+1
  1579  06D6  307D               	movlw	125
  1580  06D7  00F3               	movwf	??_lcd8_init
  1581  06D8                     u327:	
  1582  06D8  0BF3               	decfsz	??_lcd8_init,f
  1583  06D9  2ED8               	goto	u327
  1584  06DA  0BF4               	decfsz	??_lcd8_init+1,f
  1585  06DB  2ED8               	goto	u327
  1586                           
  1587                           ;LCD.c: 22:     lcd8_cmd(0x30);
  1588  06DC  3030               	movlw	48
  1589  06DD  120A  118A  25C6  120A  118A  	fcall	_lcd8_cmd
  1590  06E2                     l913:	
  1591                           
  1592                           ;LCD.c: 23:     _delay((unsigned long)((1)*(4000000/4000.0)));
  1593  06E2  30C7               	movlw	199
  1594  06E3  00F3               	movwf	??_lcd8_init
  1595  06E4                     u337:	
  1596  06E4  2EE5               	nop2
  1597  06E5  0BF3               	decfsz	??_lcd8_init,f
  1598  06E6  2EE4               	goto	u337
  1599  06E7  2EE8               	nop2
  1600  06E8  2EE9               	nop2
  1601  06E9                     l915:	
  1602                           
  1603                           ;LCD.c: 24:     lcd8_cmd(0x30);
  1604  06E9  3030               	movlw	48
  1605  06EA  120A  118A  25C6  120A  118A  	fcall	_lcd8_cmd
  1606                           
  1607                           ;LCD.c: 25:     _delay((unsigned long)((1)*(4000000/4000.0)));
  1608  06EF  30C7               	movlw	199
  1609  06F0  00F3               	movwf	??_lcd8_init
  1610  06F1                     u347:	
  1611  06F1  2EF2               	nop2
  1612  06F2  0BF3               	decfsz	??_lcd8_init,f
  1613  06F3  2EF1               	goto	u347
  1614  06F4  2EF5               	nop2
  1615  06F5  2EF6               	nop2
  1616  06F6                     l917:	
  1617                           
  1618                           ;LCD.c: 26:     lcd8_cmd(0x38);
  1619  06F6  3038               	movlw	56
  1620  06F7  120A  118A  25C6  120A  118A  	fcall	_lcd8_cmd
  1621  06FC                     l919:	
  1622                           
  1623                           ;LCD.c: 27:     lcd8_cmd(0x10);
  1624  06FC  3010               	movlw	16
  1625  06FD  120A  118A  25C6  120A  118A  	fcall	_lcd8_cmd
  1626  0702                     l921:	
  1627                           
  1628                           ;LCD.c: 28:     lcd8_cmd(0x01);
  1629  0702  3001               	movlw	1
  1630  0703  120A  118A  25C6  120A  118A  	fcall	_lcd8_cmd
  1631  0708                     l923:	
  1632                           
  1633                           ;LCD.c: 29:     lcd8_cmd(0x06);
  1634  0708  3006               	movlw	6
  1635  0709  120A  118A  25C6  120A  118A  	fcall	_lcd8_cmd
  1636  070E                     l925:	
  1637                           
  1638                           ;LCD.c: 30:     lcd8_cmd(0x0C);
  1639  070E  300C               	movlw	12
  1640  070F  120A  118A  25C6  120A  118A  	fcall	_lcd8_cmd
  1641  0714                     l927:	
  1642                           
  1643                           ;LCD.c: 31:     lcd8_cmd(0x80);
  1644  0714  3080               	movlw	128
  1645  0715  120A  118A  25C6  120A  118A  	fcall	_lcd8_cmd
  1646  071A                     l79:	
  1647  071A  0008               	return
  1648  071B                     __end_of_lcd8_init:	
  1649                           
  1650                           	psect	text7
  1651  05C6                     __ptext7:	
  1652 ;; *************** function _lcd8_cmd *****************
  1653 ;; Defined at:
  1654 ;;		line 34 in file "LCD.c"
  1655 ;; Parameters:    Size  Location     Type
  1656 ;;  cmd             1    wreg     unsigned char 
  1657 ;; Auto vars:     Size  Location     Type
  1658 ;;  cmd             1    2[COMMON] unsigned char 
  1659 ;; Return value:  Size  Location     Type
  1660 ;;                  1    wreg      void 
  1661 ;; Registers used:
  1662 ;;		wreg, status,2, status,0, btemp+1, pclath, cstack
  1663 ;; Tracked objects:
  1664 ;;		On entry : 0/0
  1665 ;;		On exit  : 0/0
  1666 ;;		Unchanged: 0/0
  1667 ;; Data sizes:     COMMON   BANK0   BANK1   BANK3   BANK2
  1668 ;;      Params:         0       0       0       0       0
  1669 ;;      Locals:         1       0       0       0       0
  1670 ;;      Temps:          0       0       0       0       0
  1671 ;;      Totals:         1       0       0       0       0
  1672 ;;Total ram usage:        1 bytes
  1673 ;; Hardware stack levels used:    1
  1674 ;; Hardware stack levels required when called:    1
  1675 ;; This function calls:
  1676 ;;		_delay_1ms
  1677 ;; This function is called by:
  1678 ;;		_lcd8_init
  1679 ;;		_lcd8_setCursor
  1680 ;;		_lcd8_clearDisplay
  1681 ;; This function uses a non-reentrant model
  1682 ;;
  1683                           
  1684                           
  1685                           ;psect for function _lcd8_cmd
  1686  05C6                     _lcd8_cmd:	
  1687                           
  1688                           ;incstack = 0
  1689                           ; Regs used in _lcd8_cmd: [wreg+status,2+status,0+btemp+1+pclath+cstack]
  1690                           ;lcd8_cmd@cmd stored from wreg
  1691  05C6  00F2               	movwf	lcd8_cmd@cmd
  1692  05C7                     l815:	
  1693                           
  1694                           ;LCD.c: 35:     PORTA = cmd;
  1695  05C7  0872               	movf	lcd8_cmd@cmd,w
  1696  05C8  1283               	bcf	3,5	;RP0=0, select bank0
  1697  05C9  1303               	bcf	3,6	;RP1=0, select bank0
  1698  05CA  0085               	movwf	5	;volatile
  1699  05CB                     l817:	
  1700                           
  1701                           ;LCD.c: 36:     PORTEbits.RE0 = 0;
  1702  05CB  1009               	bcf	9,0	;volatile
  1703  05CC                     l819:	
  1704                           
  1705                           ;LCD.c: 37:     PORTEbits.RE1 = 0;
  1706  05CC  1089               	bcf	9,1	;volatile
  1707  05CD                     l821:	
  1708                           
  1709                           ;LCD.c: 38:     PORTEbits.RE2 = 1;
  1710  05CD  1509               	bsf	9,2	;volatile
  1711  05CE                     l823:	
  1712                           
  1713                           ;LCD.c: 39:     delay_1ms();
  1714  05CE  120A  118A  25FD  120A  118A  	fcall	_delay_1ms
  1715  05D3                     l825:	
  1716                           
  1717                           ;LCD.c: 40:     PORTEbits.RE2 = 0;
  1718  05D3  1283               	bcf	3,5	;RP0=0, select bank0
  1719  05D4  1303               	bcf	3,6	;RP1=0, select bank0
  1720  05D5  1109               	bcf	9,2	;volatile
  1721  05D6                     l82:	
  1722  05D6  0008               	return
  1723  05D7                     __end_of_lcd8_cmd:	
  1724                           
  1725                           	psect	text8
  1726  05FD                     __ptext8:	
  1727 ;; *************** function _delay_1ms *****************
  1728 ;; Defined at:
  1729 ;;		line 75 in file "LCD.c"
  1730 ;; Parameters:    Size  Location     Type
  1731 ;;		None
  1732 ;; Auto vars:     Size  Location     Type
  1733 ;;  i               2    0[COMMON] int 
  1734 ;; Return value:  Size  Location     Type
  1735 ;;                  1    wreg      void 
  1736 ;; Registers used:
  1737 ;;		wreg, status,2, btemp+1
  1738 ;; Tracked objects:
  1739 ;;		On entry : 0/0
  1740 ;;		On exit  : 0/0
  1741 ;;		Unchanged: 0/0
  1742 ;; Data sizes:     COMMON   BANK0   BANK1   BANK3   BANK2
  1743 ;;      Params:         0       0       0       0       0
  1744 ;;      Locals:         2       0       0       0       0
  1745 ;;      Temps:          0       0       0       0       0
  1746 ;;      Totals:         2       0       0       0       0
  1747 ;;Total ram usage:        2 bytes
  1748 ;; Hardware stack levels used:    1
  1749 ;; This function calls:
  1750 ;;		Nothing
  1751 ;; This function is called by:
  1752 ;;		_lcd8_cmd
  1753 ;;		_lcd8_write
  1754 ;; This function uses a non-reentrant model
  1755 ;;
  1756                           
  1757                           
  1758                           ;psect for function _delay_1ms
  1759  05FD                     _delay_1ms:	
  1760  05FD                     l793:	
  1761                           ;incstack = 0
  1762                           ; Regs used in _delay_1ms: [wreg+status,2+btemp+1]
  1763                           
  1764                           
  1765                           ;LCD.c: 76:     for (int i = 0; i < 50; i++);
  1766  05FD  01F0               	clrf	delay_1ms@i
  1767  05FE  01F1               	clrf	delay_1ms@i+1
  1768  05FF                     l799:	
  1769  05FF  3001               	movlw	1
  1770  0600  07F0               	addwf	delay_1ms@i,f
  1771  0601  1803               	skipnc
  1772  0602  0AF1               	incf	delay_1ms@i+1,f
  1773  0603  3000               	movlw	0
  1774  0604  07F1               	addwf	delay_1ms@i+1,f
  1775  0605                     l801:	
  1776  0605  0871               	movf	delay_1ms@i+1,w
  1777  0606  3A80               	xorlw	128
  1778  0607  00FF               	movwf	btemp+1
  1779  0608  3080               	movlw	128
  1780  0609  027F               	subwf	btemp+1,w
  1781  060A  1D03               	skipz
  1782  060B  2E0E               	goto	u15
  1783  060C  3032               	movlw	50
  1784  060D  0270               	subwf	delay_1ms@i,w
  1785  060E                     u15:	
  1786  060E  1C03               	skipc
  1787  060F  2E11               	goto	u11
  1788  0610  2E12               	goto	u10
  1789  0611                     u11:	
  1790  0611  2DFF               	goto	l799
  1791  0612                     u10:	
  1792  0612                     l108:	
  1793  0612  0008               	return
  1794  0613                     __end_of_delay_1ms:	
  1795                           
  1796                           	psect	text9
  1797  0640                     __ptext9:	
  1798 ;; *************** function _i2c_master_init *****************
  1799 ;; Defined at:
  1800 ;;		line 12 in file "I2C.c"
  1801 ;; Parameters:    Size  Location     Type
  1802 ;;  c               4    0[BANK0 ] unsigned long 
  1803 ;; Auto vars:     Size  Location     Type
  1804 ;;		None
  1805 ;; Return value:  Size  Location     Type
  1806 ;;                  1    wreg      void 
  1807 ;; Registers used:
  1808 ;;		wreg, status,2, status,0, pclath, cstack
  1809 ;; Tracked objects:
  1810 ;;		On entry : 0/0
  1811 ;;		On exit  : 0/0
  1812 ;;		Unchanged: 0/0
  1813 ;; Data sizes:     COMMON   BANK0   BANK1   BANK3   BANK2
  1814 ;;      Params:         0       4       0       0       0
  1815 ;;      Locals:         0       0       0       0       0
  1816 ;;      Temps:          0       4       0       0       0
  1817 ;;      Totals:         0       8       0       0       0
  1818 ;;Total ram usage:        8 bytes
  1819 ;; Hardware stack levels used:    1
  1820 ;; Hardware stack levels required when called:    1
  1821 ;; This function calls:
  1822 ;;		___lldiv
  1823 ;; This function is called by:
  1824 ;;		_main
  1825 ;; This function uses a non-reentrant model
  1826 ;;
  1827                           
  1828                           
  1829                           ;psect for function _i2c_master_init
  1830  0640                     _i2c_master_init:	
  1831  0640                     l1089:	
  1832                           ;incstack = 0
  1833                           ; Regs used in _i2c_master_init: [wreg+status,2+status,0+pclath+cstack]
  1834                           
  1835                           
  1836                           ;I2C.c: 13:     SSPCON = 0b00101000;
  1837  0640  3028               	movlw	40
  1838  0641  1283               	bcf	3,5	;RP0=0, select bank0
  1839  0642  1303               	bcf	3,6	;RP1=0, select bank0
  1840  0643  0094               	movwf	20	;volatile
  1841  0644                     l1091:	
  1842                           
  1843                           ;I2C.c: 14:     SSPCON2 = 0;
  1844  0644  1683               	bsf	3,5	;RP0=1, select bank1
  1845  0645  1303               	bcf	3,6	;RP1=0, select bank1
  1846  0646  0191               	clrf	17	;volatile
  1847  0647                     l1093:	
  1848                           
  1849                           ;I2C.c: 15:     SSPADD = (4000000/(4*c))-1;
  1850  0647  1283               	bcf	3,5	;RP0=0, select bank0
  1851  0648  1303               	bcf	3,6	;RP1=0, select bank0
  1852  0649  0820               	movf	i2c_master_init@c,w
  1853  064A  00A4               	movwf	??_i2c_master_init
  1854  064B  0821               	movf	i2c_master_init@c+1,w
  1855  064C  00A5               	movwf	??_i2c_master_init+1
  1856  064D  0822               	movf	i2c_master_init@c+2,w
  1857  064E  00A6               	movwf	??_i2c_master_init+2
  1858  064F  0823               	movf	i2c_master_init@c+3,w
  1859  0650  00A7               	movwf	??_i2c_master_init+3
  1860  0651  3002               	movlw	2
  1861  0652                     u295:	
  1862  0652  1003               	clrc
  1863  0653  0DA4               	rlf	??_i2c_master_init,f
  1864  0654  0DA5               	rlf	??_i2c_master_init+1,f
  1865  0655  0DA6               	rlf	??_i2c_master_init+2,f
  1866  0656  0DA7               	rlf	??_i2c_master_init+3,f
  1867  0657                     u290:	
  1868  0657  3EFF               	addlw	-1
  1869  0658  1D03               	skipz
  1870  0659  2E52               	goto	u295
  1871  065A  0827               	movf	??_i2c_master_init+3,w
  1872  065B  00F3               	movwf	___lldiv@divisor+3
  1873  065C  0826               	movf	??_i2c_master_init+2,w
  1874  065D  00F2               	movwf	___lldiv@divisor+2
  1875  065E  0825               	movf	??_i2c_master_init+1,w
  1876  065F  00F1               	movwf	___lldiv@divisor+1
  1877  0660  0824               	movf	??_i2c_master_init,w
  1878  0661  00F0               	movwf	___lldiv@divisor
  1879  0662  3000               	movlw	0
  1880  0663  00F7               	movwf	___lldiv@dividend+3
  1881  0664  303D               	movlw	61
  1882  0665  00F6               	movwf	___lldiv@dividend+2
  1883  0666  3009               	movlw	9
  1884  0667  00F5               	movwf	___lldiv@dividend+1
  1885  0668  3000               	movlw	0
  1886  0669  00F4               	movwf	___lldiv@dividend
  1887  066A  120A  118A  271B  120A  118A  	fcall	___lldiv
  1888  066F  0870               	movf	?___lldiv,w
  1889  0670  3EFF               	addlw	255
  1890  0671  1683               	bsf	3,5	;RP0=1, select bank1
  1891  0672  1303               	bcf	3,6	;RP1=0, select bank1
  1892  0673  0093               	movwf	19	;volatile
  1893  0674                     l1095:	
  1894                           
  1895                           ;I2C.c: 16:     SSPSTAT = 0;
  1896  0674  0194               	clrf	20	;volatile
  1897  0675                     l1097:	
  1898                           
  1899                           ;I2C.c: 17:     TRISCbits.TRISC3 = 1;
  1900  0675  1587               	bsf	7,3	;volatile
  1901  0676                     l1099:	
  1902                           
  1903                           ;I2C.c: 18:     TRISCbits.TRISC4 = 1;
  1904  0676  1607               	bsf	7,4	;volatile
  1905  0677                     l156:	
  1906  0677  0008               	return
  1907  0678                     __end_of_i2c_master_init:	
  1908                           
  1909                           	psect	text10
  1910  071B                     __ptext10:	
  1911 ;; *************** function ___lldiv *****************
  1912 ;; Defined at:
  1913 ;;		line 5 in file "C:\Program Files (x86)\Microchip\xc8\v2.10\pic\sources\c90\common\__lldiv.c"
  1914 ;; Parameters:    Size  Location     Type
  1915 ;;  divisor         4    0[COMMON] unsigned long 
  1916 ;;  dividend        4    4[COMMON] unsigned long 
  1917 ;; Auto vars:     Size  Location     Type
  1918 ;;  quotient        4    9[COMMON] unsigned long 
  1919 ;;  counter         1   13[COMMON] unsigned char 
  1920 ;; Return value:  Size  Location     Type
  1921 ;;                  4    0[COMMON] unsigned long 
  1922 ;; Registers used:
  1923 ;;		wreg, status,2, status,0
  1924 ;; Tracked objects:
  1925 ;;		On entry : 0/0
  1926 ;;		On exit  : 0/0
  1927 ;;		Unchanged: 0/0
  1928 ;; Data sizes:     COMMON   BANK0   BANK1   BANK3   BANK2
  1929 ;;      Params:         8       0       0       0       0
  1930 ;;      Locals:         5       0       0       0       0
  1931 ;;      Temps:          1       0       0       0       0
  1932 ;;      Totals:        14       0       0       0       0
  1933 ;;Total ram usage:       14 bytes
  1934 ;; Hardware stack levels used:    1
  1935 ;; This function calls:
  1936 ;;		Nothing
  1937 ;; This function is called by:
  1938 ;;		_i2c_master_init
  1939 ;; This function uses a non-reentrant model
  1940 ;;
  1941                           
  1942                           
  1943                           ;psect for function ___lldiv
  1944  071B                     ___lldiv:	
  1945  071B                     l1065:	
  1946                           ;incstack = 0
  1947                           ; Regs used in ___lldiv: [wreg+status,2+status,0]
  1948                           
  1949  071B  3000               	movlw	0
  1950  071C  00FC               	movwf	___lldiv@quotient+3
  1951  071D  3000               	movlw	0
  1952  071E  00FB               	movwf	___lldiv@quotient+2
  1953  071F  3000               	movlw	0
  1954  0720  00FA               	movwf	___lldiv@quotient+1
  1955  0721  3000               	movlw	0
  1956  0722  00F9               	movwf	___lldiv@quotient
  1957  0723  0873               	movf	___lldiv@divisor+3,w
  1958  0724  0472               	iorwf	___lldiv@divisor+2,w
  1959  0725  0471               	iorwf	___lldiv@divisor+1,w
  1960  0726  0470               	iorwf	___lldiv@divisor,w
  1961  0727  1903               	skipnz
  1962  0728  2F2A               	goto	u221
  1963  0729  2F2B               	goto	u220
  1964  072A                     u221:	
  1965  072A  2F78               	goto	l1085
  1966  072B                     u220:	
  1967  072B                     l1067:	
  1968  072B  01FD               	clrf	___lldiv@counter
  1969  072C  0AFD               	incf	___lldiv@counter,f
  1970  072D  2F3B               	goto	l1071
  1971  072E                     l1069:	
  1972  072E  3001               	movlw	1
  1973  072F  00F8               	movwf	??___lldiv
  1974  0730                     u235:	
  1975  0730  1003               	clrc
  1976  0731  0DF0               	rlf	___lldiv@divisor,f
  1977  0732  0DF1               	rlf	___lldiv@divisor+1,f
  1978  0733  0DF2               	rlf	___lldiv@divisor+2,f
  1979  0734  0DF3               	rlf	___lldiv@divisor+3,f
  1980  0735  0BF8               	decfsz	??___lldiv,f
  1981  0736  2F30               	goto	u235
  1982  0737  3001               	movlw	1
  1983  0738  00F8               	movwf	??___lldiv
  1984  0739  0878               	movf	??___lldiv,w
  1985  073A  07FD               	addwf	___lldiv@counter,f
  1986  073B                     l1071:	
  1987  073B  1FF3               	btfss	___lldiv@divisor+3,7
  1988  073C  2F3E               	goto	u241
  1989  073D  2F3F               	goto	u240
  1990  073E                     u241:	
  1991  073E  2F2E               	goto	l1069
  1992  073F                     u240:	
  1993  073F                     l1073:	
  1994  073F  3001               	movlw	1
  1995  0740  00F8               	movwf	??___lldiv
  1996  0741                     u255:	
  1997  0741  1003               	clrc
  1998  0742  0DF9               	rlf	___lldiv@quotient,f
  1999  0743  0DFA               	rlf	___lldiv@quotient+1,f
  2000  0744  0DFB               	rlf	___lldiv@quotient+2,f
  2001  0745  0DFC               	rlf	___lldiv@quotient+3,f
  2002  0746  0BF8               	decfsz	??___lldiv,f
  2003  0747  2F41               	goto	u255
  2004  0748                     l1075:	
  2005  0748  0873               	movf	___lldiv@divisor+3,w
  2006  0749  0277               	subwf	___lldiv@dividend+3,w
  2007  074A  1D03               	skipz
  2008  074B  2F56               	goto	u265
  2009  074C  0872               	movf	___lldiv@divisor+2,w
  2010  074D  0276               	subwf	___lldiv@dividend+2,w
  2011  074E  1D03               	skipz
  2012  074F  2F56               	goto	u265
  2013  0750  0871               	movf	___lldiv@divisor+1,w
  2014  0751  0275               	subwf	___lldiv@dividend+1,w
  2015  0752  1D03               	skipz
  2016  0753  2F56               	goto	u265
  2017  0754  0870               	movf	___lldiv@divisor,w
  2018  0755  0274               	subwf	___lldiv@dividend,w
  2019  0756                     u265:	
  2020  0756  1C03               	skipc
  2021  0757  2F59               	goto	u261
  2022  0758  2F5A               	goto	u260
  2023  0759                     u261:	
  2024  0759  2F69               	goto	l1081
  2025  075A                     u260:	
  2026  075A                     l1077:	
  2027  075A  0870               	movf	___lldiv@divisor,w
  2028  075B  02F4               	subwf	___lldiv@dividend,f
  2029  075C  0871               	movf	___lldiv@divisor+1,w
  2030  075D  1C03               	skipc
  2031  075E  0F71               	incfsz	___lldiv@divisor+1,w
  2032  075F  02F5               	subwf	___lldiv@dividend+1,f
  2033  0760  0872               	movf	___lldiv@divisor+2,w
  2034  0761  1C03               	skipc
  2035  0762  0F72               	incfsz	___lldiv@divisor+2,w
  2036  0763  02F6               	subwf	___lldiv@dividend+2,f
  2037  0764  0873               	movf	___lldiv@divisor+3,w
  2038  0765  1C03               	skipc
  2039  0766  0F73               	incfsz	___lldiv@divisor+3,w
  2040  0767  02F7               	subwf	___lldiv@dividend+3,f
  2041  0768                     l1079:	
  2042  0768  1479               	bsf	___lldiv@quotient,0
  2043  0769                     l1081:	
  2044  0769  3001               	movlw	1
  2045  076A                     u275:	
  2046  076A  1003               	clrc
  2047  076B  0CF3               	rrf	___lldiv@divisor+3,f
  2048  076C  0CF2               	rrf	___lldiv@divisor+2,f
  2049  076D  0CF1               	rrf	___lldiv@divisor+1,f
  2050  076E  0CF0               	rrf	___lldiv@divisor,f
  2051  076F  3EFF               	addlw	-1
  2052  0770  1D03               	skipz
  2053  0771  2F6A               	goto	u275
  2054  0772                     l1083:	
  2055  0772  3001               	movlw	1
  2056  0773  02FD               	subwf	___lldiv@counter,f
  2057  0774  1D03               	btfss	3,2
  2058  0775  2F77               	goto	u281
  2059  0776  2F78               	goto	u280
  2060  0777                     u281:	
  2061  0777  2F3F               	goto	l1073
  2062  0778                     u280:	
  2063  0778                     l1085:	
  2064  0778  087C               	movf	___lldiv@quotient+3,w
  2065  0779  00F3               	movwf	?___lldiv+3
  2066  077A  087B               	movf	___lldiv@quotient+2,w
  2067  077B  00F2               	movwf	?___lldiv+2
  2068  077C  087A               	movf	___lldiv@quotient+1,w
  2069  077D  00F1               	movwf	?___lldiv+1
  2070  077E  0879               	movf	___lldiv@quotient,w
  2071  077F  00F0               	movwf	?___lldiv
  2072  0780                     l323:	
  2073  0780  0008               	return
  2074  0781                     __end_of___lldiv:	
  2075                           
  2076                           	psect	text11
  2077  0594                     __ptext11:	
  2078 ;; *************** function _i2c_masterStop *****************
  2079 ;; Defined at:
  2080 ;;		line 41 in file "I2C.c"
  2081 ;; Parameters:    Size  Location     Type
  2082 ;;		None
  2083 ;; Auto vars:     Size  Location     Type
  2084 ;;		None
  2085 ;; Return value:  Size  Location     Type
  2086 ;;                  1    wreg      void 
  2087 ;; Registers used:
  2088 ;;		wreg, status,2, status,0, pclath, cstack
  2089 ;; Tracked objects:
  2090 ;;		On entry : 0/0
  2091 ;;		On exit  : 0/0
  2092 ;;		Unchanged: 0/0
  2093 ;; Data sizes:     COMMON   BANK0   BANK1   BANK3   BANK2
  2094 ;;      Params:         0       0       0       0       0
  2095 ;;      Locals:         0       0       0       0       0
  2096 ;;      Temps:          0       0       0       0       0
  2097 ;;      Totals:         0       0       0       0       0
  2098 ;;Total ram usage:        0 bytes
  2099 ;; Hardware stack levels used:    1
  2100 ;; Hardware stack levels required when called:    1
  2101 ;; This function calls:
  2102 ;;		_i2c_masterWait
  2103 ;; This function is called by:
  2104 ;;		_main
  2105 ;; This function uses a non-reentrant model
  2106 ;;
  2107                           
  2108                           
  2109                           ;psect for function _i2c_masterStop
  2110  0594                     _i2c_masterStop:	
  2111  0594                     l933:	
  2112                           ;incstack = 0
  2113                           ; Regs used in _i2c_masterStop: [wreg+status,2+status,0+pclath+cstack]
  2114                           
  2115                           
  2116                           ;I2C.c: 42:     i2c_masterWait();
  2117  0594  120A  118A  25A9  120A  118A  	fcall	_i2c_masterWait
  2118  0599                     l935:	
  2119                           
  2120                           ;I2C.c: 43:     SSPCON2bits.PEN = 1;
  2121  0599  1683               	bsf	3,5	;RP0=1, select bank1
  2122  059A  1303               	bcf	3,6	;RP1=0, select bank1
  2123  059B  1511               	bsf	17,2	;volatile
  2124  059C                     l174:	
  2125  059C  0008               	return
  2126  059D                     __end_of_i2c_masterStop:	
  2127                           
  2128                           	psect	text12
  2129  05B6                     __ptext12:	
  2130 ;; *************** function _i2c_addr_start *****************
  2131 ;; Defined at:
  2132 ;;		line 30 in file "I2C.c"
  2133 ;; Parameters:    Size  Location     Type
  2134 ;;  addr            1    wreg     unsigned char 
  2135 ;; Auto vars:     Size  Location     Type
  2136 ;;  addr            1    1[COMMON] unsigned char 
  2137 ;; Return value:  Size  Location     Type
  2138 ;;                  1    wreg      void 
  2139 ;; Registers used:
  2140 ;;		wreg, status,2, status,0, pclath, cstack
  2141 ;; Tracked objects:
  2142 ;;		On entry : 0/0
  2143 ;;		On exit  : 0/0
  2144 ;;		Unchanged: 0/0
  2145 ;; Data sizes:     COMMON   BANK0   BANK1   BANK3   BANK2
  2146 ;;      Params:         0       0       0       0       0
  2147 ;;      Locals:         1       0       0       0       0
  2148 ;;      Temps:          0       0       0       0       0
  2149 ;;      Totals:         1       0       0       0       0
  2150 ;;Total ram usage:        1 bytes
  2151 ;; Hardware stack levels used:    1
  2152 ;; Hardware stack levels required when called:    2
  2153 ;; This function calls:
  2154 ;;		_i2c_masterWait
  2155 ;;		_i2c_masterWrite
  2156 ;; This function is called by:
  2157 ;;		_main
  2158 ;; This function uses a non-reentrant model
  2159 ;;
  2160                           
  2161                           
  2162                           ;psect for function _i2c_addr_start
  2163  05B6                     _i2c_addr_start:	
  2164                           
  2165                           ;incstack = 0
  2166                           ; Regs used in _i2c_addr_start: [wreg+status,2+status,0+pclath+cstack]
  2167                           ;i2c_addr_start@addr stored from wreg
  2168  05B6  00F1               	movwf	i2c_addr_start@addr
  2169  05B7                     l929:	
  2170                           
  2171                           ;I2C.c: 31:     i2c_masterWait();
  2172  05B7  120A  118A  25A9  120A  118A  	fcall	_i2c_masterWait
  2173  05BC                     l931:	
  2174                           
  2175                           ;I2C.c: 32:     SSPCON2bits.SEN = 1;
  2176  05BC  1683               	bsf	3,5	;RP0=1, select bank1
  2177  05BD  1303               	bcf	3,6	;RP1=0, select bank1
  2178  05BE  1411               	bsf	17,0	;volatile
  2179                           
  2180                           ;I2C.c: 33:     i2c_masterWrite(addr);
  2181  05BF  0871               	movf	i2c_addr_start@addr,w
  2182  05C0  120A  118A  25D7  120A  118A  	fcall	_i2c_masterWrite
  2183  05C5                     l168:	
  2184  05C5  0008               	return
  2185  05C6                     __end_of_i2c_addr_start:	
  2186                           
  2187                           	psect	text13
  2188  05D7                     __ptext13:	
  2189 ;; *************** function _i2c_masterWrite *****************
  2190 ;; Defined at:
  2191 ;;		line 46 in file "I2C.c"
  2192 ;; Parameters:    Size  Location     Type
  2193 ;;  data            1    wreg     unsigned char 
  2194 ;; Auto vars:     Size  Location     Type
  2195 ;;  data            1    0[COMMON] unsigned char 
  2196 ;; Return value:  Size  Location     Type
  2197 ;;                  1    wreg      unsigned char 
  2198 ;; Registers used:
  2199 ;;		wreg, status,2, status,0, pclath, cstack
  2200 ;; Tracked objects:
  2201 ;;		On entry : 0/0
  2202 ;;		On exit  : 0/0
  2203 ;;		Unchanged: 0/0
  2204 ;; Data sizes:     COMMON   BANK0   BANK1   BANK3   BANK2
  2205 ;;      Params:         0       0       0       0       0
  2206 ;;      Locals:         1       0       0       0       0
  2207 ;;      Temps:          0       0       0       0       0
  2208 ;;      Totals:         1       0       0       0       0
  2209 ;;Total ram usage:        1 bytes
  2210 ;; Hardware stack levels used:    1
  2211 ;; Hardware stack levels required when called:    1
  2212 ;; This function calls:
  2213 ;;		_i2c_masterWait
  2214 ;; This function is called by:
  2215 ;;		_main
  2216 ;;		_i2c_addr_start
  2217 ;; This function uses a non-reentrant model
  2218 ;;
  2219                           
  2220                           
  2221                           ;psect for function _i2c_masterWrite
  2222  05D7                     _i2c_masterWrite:	
  2223                           
  2224                           ;incstack = 0
  2225                           ; Regs used in _i2c_masterWrite: [wreg+status,2+status,0+pclath+cstack]
  2226                           ;i2c_masterWrite@data stored from wreg
  2227  05D7  00F0               	movwf	i2c_masterWrite@data
  2228  05D8                     l807:	
  2229                           
  2230                           ;I2C.c: 47:     i2c_masterWait();
  2231  05D8  120A  118A  25A9  120A  118A  	fcall	_i2c_masterWait
  2232  05DD                     l809:	
  2233                           
  2234                           ;I2C.c: 48:     SSPBUF = data;
  2235  05DD  0870               	movf	i2c_masterWrite@data,w
  2236  05DE  1283               	bcf	3,5	;RP0=0, select bank0
  2237  05DF  1303               	bcf	3,6	;RP1=0, select bank0
  2238  05E0  0093               	movwf	19	;volatile
  2239  05E1                     l177:	
  2240                           ;I2C.c: 49:     while(!PIR1bits.SSPIF);
  2241                           
  2242  05E1  1D8C               	btfss	12,3	;volatile
  2243  05E2  2DE4               	goto	u41
  2244  05E3  2DE5               	goto	u40
  2245  05E4                     u41:	
  2246  05E4  2DE1               	goto	l177
  2247  05E5                     u40:	
  2248  05E5                     l179:	
  2249                           
  2250                           ;I2C.c: 50:     PIR1bits.SSPIF = 0;
  2251  05E5  118C               	bcf	12,3	;volatile
  2252  05E6                     l811:	
  2253                           
  2254                           ;I2C.c: 51:     return SSPCON2bits.ACKSTAT;;	Return value of _i2c_masterWrite is never u
      +                          sed
  2255  05E6  1683               	bsf	3,5	;RP0=1, select bank1
  2256  05E7  1303               	bcf	3,6	;RP1=0, select bank1
  2257  05E8  0811               	movf	17,w	;volatile
  2258  05E9                     l180:	
  2259  05E9  0008               	return
  2260  05EA                     __end_of_i2c_masterWrite:	
  2261                           
  2262                           	psect	text14
  2263  05A9                     __ptext14:	
  2264 ;; *************** function _i2c_masterWait *****************
  2265 ;; Defined at:
  2266 ;;		line 21 in file "I2C.c"
  2267 ;; Parameters:    Size  Location     Type
  2268 ;;		None
  2269 ;; Auto vars:     Size  Location     Type
  2270 ;;		None
  2271 ;; Return value:  Size  Location     Type
  2272 ;;                  1    wreg      void 
  2273 ;; Registers used:
  2274 ;;		wreg, status,2
  2275 ;; Tracked objects:
  2276 ;;		On entry : 0/0
  2277 ;;		On exit  : 0/0
  2278 ;;		Unchanged: 0/0
  2279 ;; Data sizes:     COMMON   BANK0   BANK1   BANK3   BANK2
  2280 ;;      Params:         0       0       0       0       0
  2281 ;;      Locals:         0       0       0       0       0
  2282 ;;      Temps:          0       0       0       0       0
  2283 ;;      Totals:         0       0       0       0       0
  2284 ;;Total ram usage:        0 bytes
  2285 ;; Hardware stack levels used:    1
  2286 ;; This function calls:
  2287 ;;		Nothing
  2288 ;; This function is called by:
  2289 ;;		_i2c_addr_start
  2290 ;;		_i2c_masterStop
  2291 ;;		_i2c_masterWrite
  2292 ;;		_i2c_masterStart
  2293 ;;		_i2c_master_RStart
  2294 ;; This function uses a non-reentrant model
  2295 ;;
  2296                           
  2297                           
  2298                           ;psect for function _i2c_masterWait
  2299  05A9                     _i2c_masterWait:	
  2300  05A9                     l803:	
  2301                           ;incstack = 0
  2302                           ; Regs used in _i2c_masterWait: [wreg+status,2]
  2303                           
  2304  05A9                     l159:	
  2305                           ;I2C.c: 22:     while ((SSPSTAT & 0x04) || (SSPCON2 & 0x1F));
  2306                           
  2307  05A9  1683               	bsf	3,5	;RP0=1, select bank1
  2308  05AA  1303               	bcf	3,6	;RP1=0, select bank1
  2309  05AB  1914               	btfsc	20,2	;volatile
  2310  05AC  2DAE               	goto	u21
  2311  05AD  2DAF               	goto	u20
  2312  05AE                     u21:	
  2313  05AE  2DA9               	goto	l159
  2314  05AF                     u20:	
  2315  05AF                     l805:	
  2316  05AF  0811               	movf	17,w	;volatile
  2317  05B0  391F               	andlw	31
  2318  05B1  1D03               	btfss	3,2
  2319  05B2  2DB4               	goto	u31
  2320  05B3  2DB5               	goto	u30
  2321  05B4                     u31:	
  2322  05B4  2DA9               	goto	l159
  2323  05B5                     u30:	
  2324  05B5                     l162:	
  2325  05B5  0008               	return
  2326  05B6                     __end_of_i2c_masterWait:	
  2327  007E                     btemp	set	126	;btemp
  2328  007E                     wtemp0	set	126


Data Sizes:
    Strings     0
    Constant    0
    Data        0
    BSS         4
    Persistent  0
    Stack       0

Auto Spaces:
    Space          Size  Autos    Used
    COMMON           14     14      14
    BANK0            80      9      13
    BANK1            80      0       0
    BANK3            96      0       0
    BANK2            96      0       0

Pointer List with Targets:

    None.

Critical Paths under _main in COMMON

    _lcd8_init->_lcd8_cmd
    _lcd8_cmd->_delay_1ms
    _i2c_master_init->___lldiv
    _i2c_addr_start->_i2c_masterWrite

Critical Paths under _main in BANK0

    _main->_i2c_master_init

Critical Paths under _main in BANK1

    None.

Critical Paths under _main in BANK3

    None.

Critical Paths under _main in BANK2

    None.

Call Graph Tables:

 ---------------------------------------------------------------------------------
 (Depth) Function   	        Calls       Base Space   Used Autos Params    Refs
 ---------------------------------------------------------------------------------
 (0) _main                                                 1     1      0     552
                                              8 BANK0      1     1      0
                     _i2c_addr_start
                     _i2c_masterStop
                    _i2c_masterWrite
                    _i2c_master_init
                          _lcd8_init
                            _oscInit
                              _setup
                          _tmr1_Init
                     _tmr1_Interrupt
                     _tmr1_Prescaler
 ---------------------------------------------------------------------------------
 (1) _tmr1_Prescaler                                       3     3      0      15
                                              0 COMMON     3     3      0
 ---------------------------------------------------------------------------------
 (1) _tmr1_Interrupt                                       1     1      0      15
                                              0 COMMON     1     1      0
 ---------------------------------------------------------------------------------
 (1) _tmr1_Init                                            0     0      0       0
 ---------------------------------------------------------------------------------
 (1) _setup                                                0     0      0       0
 ---------------------------------------------------------------------------------
 (1) _oscInit                                              3     3      0      20
                                              0 COMMON     3     3      0
 ---------------------------------------------------------------------------------
 (1) _lcd8_init                                            2     2      0      45
                                              3 COMMON     2     2      0
                           _lcd8_cmd
 ---------------------------------------------------------------------------------
 (2) _lcd8_cmd                                             1     1      0      45
                                              2 COMMON     1     1      0
                          _delay_1ms
 ---------------------------------------------------------------------------------
 (3) _delay_1ms                                            2     2      0      30
                                              0 COMMON     2     2      0
 ---------------------------------------------------------------------------------
 (1) _i2c_master_init                                      8     4      4     412
                                              0 BANK0      8     4      4
                            ___lldiv
 ---------------------------------------------------------------------------------
 (2) ___lldiv                                             14     6      8     314
                                              0 COMMON    14     6      8
 ---------------------------------------------------------------------------------
 (1) _i2c_masterStop                                       0     0      0       0
                     _i2c_masterWait
 ---------------------------------------------------------------------------------
 (1) _i2c_addr_start                                       1     1      0      30
                                              1 COMMON     1     1      0
                     _i2c_masterWait
                    _i2c_masterWrite
 ---------------------------------------------------------------------------------
 (1) _i2c_masterWrite                                      1     1      0      15
                                              0 COMMON     1     1      0
                     _i2c_masterWait
 ---------------------------------------------------------------------------------
 (2) _i2c_masterWait                                       0     0      0       0
 ---------------------------------------------------------------------------------
 Estimated maximum stack depth 3
 ---------------------------------------------------------------------------------

 Call Graph Graphs:

 _main (ROOT)
   _i2c_addr_start
     _i2c_masterWait
     _i2c_masterWrite
       _i2c_masterWait
   _i2c_masterStop
     _i2c_masterWait
   _i2c_masterWrite
     _i2c_masterWait
   _i2c_master_init
     ___lldiv
   _lcd8_init
     _lcd8_cmd
       _delay_1ms
   _oscInit
   _setup
   _tmr1_Init
   _tmr1_Interrupt
   _tmr1_Prescaler

 Address spaces:
Name               Size   Autos  Total    Cost      Usage
BITCOMMON            E      0       0       0        0.0%
EEDATA             100      0       0       0        0.0%
NULL                 0      0       0       0        0.0%
CODE                 0      0       0       0        0.0%
COMMON               E      E       E       1      100.0%
BITSFR0              0      0       0       1        0.0%
SFR0                 0      0       0       1        0.0%
BITSFR1              0      0       0       2        0.0%
SFR1                 0      0       0       2        0.0%
STACK                0      0       0       2        0.0%
ABS                  0      0      1B       3        0.0%
BITBANK0            50      0       0       4        0.0%
BITSFR3              0      0       0       4        0.0%
SFR3                 0      0       0       4        0.0%
BANK0               50      9       D       5       16.3%
BITSFR2              0      0       0       5        0.0%
SFR2                 0      0       0       5        0.0%
BITBANK1            50      0       0       6        0.0%
BANK1               50      0       0       7        0.0%
BITBANK3            60      0       0       8        0.0%
BANK3               60      0       0       9        0.0%
BITBANK2            60      0       0      10        0.0%
BANK2               60      0       0      11        0.0%
DATA                 0      0      1B      12        0.0%


Microchip Technology PIC Macro Assembler V2.10 build 88905656 
Symbol Table                                                                                   Fri Mar 13 23:36:31 2020

      i2c_addr_start@addr 0071               __CFG_CP$OFF 0000               _SSPSTATbits 0094  
                      l51 05FC                        l60 0797                        l61 07A1  
                      l62 07AB                        l63 07B5                        l64 07BF  
                      l65 07C9                        l57 0783                        l82 05D6  
                      l66 07F5                        l59 078D                        l79 071A  
                      u10 0612                        u11 0611                        u20 05AF  
                      u21 05AE                        u30 05B5                        u31 05B4  
                      u15 060E                        u40 05E5                        u41 05E4  
                     l121 0615                       l123 061A                       l108 0612  
                     l124 061F                       l117 0593                       l125 0624  
                     l126 063F                       l129 05A8                       l162 05B5  
                     l323 0780                       l180 05E9                       l156 0677  
                     l174 059C                       l159 05A9                       l168 05C5  
                     l177 05E1                       l179 05E5                       l801 0605  
                     l803 05A9                       l811 05E6                       l805 05AF  
                     l821 05CD                       l807 05D8                       l823 05CE  
                     l815 05C7                       l911 06D4                       l809 05DD  
                     l825 05D3                       l817 05CB                       l921 0702  
                     l913 06E2                       l931 05BC                       l819 05CC  
                     l923 0708                       l915 06E9                       l907 06C5  
                     l851 05EA                       l933 0594                       l925 070E  
                     l917 06F6                       l909 06CE                       l861 05F2  
                     l853 05ED                       l935 0599                       l927 0714  
                     l919 06FC                       l863 05F5                       l855 05EE  
                     l929 05B7                       l793 05FD                       l873 07D3  
                     l865 05F8                       l857 05EF                       l881 0614  
                     l867 05FB                       l859 05F0                       l891 059E  
                     l869 0782                       l893 05A5                       l885 0629  
                     l799 05FF                       l879 058E                       u220 072B  
                     u221 072A                       u240 073F                       u241 073E  
                     u235 0730                       u307 06BD                       u260 075A  
                     u261 0759                       u317 06C9                       u255 0741  
                     u327 06D8                       u280 0778                       u281 0777  
                     u265 0756                       u337 06E4                       u290 0657  
            __CFG_CPD$OFF 0000                       u275 076A                       u347 06F1  
                     u295 0652              __CFG_LVP$OFF 0000    __end_of_i2c_addr_start 05C6  
                    l1101 0678                      l1111 0694                      l1103 067D  
                    l1121 06B9                      l1113 06A3                      l1105 0683  
                    l1115 06A8                      l1107 0688                      l1117 06AE  
                    l1109 068E                      l1071 073B                      l1119 06B4  
                    l1081 0769                      l1073 073F                      l1065 071B  
                    l1083 0772                      l1075 0748                      l1067 072B  
                    l1091 0644                      l1163 0631                      l1077 075A  
                    l1069 072E                      l1085 0778                      l1093 0647  
                    l1165 07DB                      l1079 0768                      l1095 0674  
                    l1097 0675                      l1089 0640                      l1099 0676  
            __CFG_WRT$OFF 0000                      _main 0678                      btemp 007E  
                    start 0000             __CFG_IESO$OFF 0000                     ?_main 0070  
           __CFG_WDTE$OFF 0000                     _ANSEL 0188           __end_of___lldiv 0781  
          _tmr1_Interrupt 059D                     _PORTA 0005                     _PORTD 0008  
                   _TRISA 0085                     _TRISD 0088                     _TRISE 0089  
          __CFG_FCMEN$OFF 0000            _i2c_masterWait 05A9            _i2c_masterStop 0594  
         ?_i2c_addr_start 0070                     _setup 05EA           __end_of_oscInit 07F6  
          _tmr1_Prescaler 0613            __CFG_BOREN$OFF 0000                     status 0003  
                   wtemp0 007E            __CFG_MCLRE$OFF 0000           __initialization 07F6  
            __end_of_main 06C5    __end_of_tmr1_Interrupt 05A9                    ??_main 0028  
  __end_of_i2c_masterWait 05B6    __end_of_i2c_masterStop 059D    __end_of_tmr1_Prescaler 0640  
                  ?_setup 0070                    _ANSELH 0189                    _SSPADD 0093  
                  _SSPCON 0014                    _SSPBUF 0013          __end_of_lcd8_cmd 05D7  
          __CFG_PWRTE$OFF 0000           _i2c_masterWrite 05D7           _i2c_master_init 0640  
               ??___lldiv 0078                    _fuerza 0029           ?_tmr1_Interrupt 0070  
         ?_i2c_masterWait 0070           ?_i2c_masterStop 0070                 ??_oscInit 0070  
         ?_tmr1_Prescaler 0070   __end_of__initialization 07FC            __pcstackCOMMON 0070  
      __size_of_lcd8_init 0056             __end_of_setup 05FD        __size_of_delay_1ms 0016  
             oscInit@freq 0072                   ??_setup 0070                __pbssBANK0 0029  
 __end_of_i2c_masterWrite 05EA   __end_of_i2c_master_init 0678                __pmaintext 0678  
      __size_of_tmr1_Init 0006    tmr1_Interrupt@tmr1_Int 0070          ??_i2c_addr_start 0071  
               ?_lcd8_cmd 0070                   _SSPCON2 0091                   _SSPSTAT 0094  
       __end_of_lcd8_init 071B         __end_of_delay_1ms 0613                   ___lldiv 071B  
                 __ptext1 0613                   __ptext2 059D                   __ptext3 058E  
                 __ptext4 05EA                   __ptext5 0781                   __ptext6 06C5  
                 __ptext7 05C6                   __ptext8 05FD                   __ptext9 0640  
               _T1CONbits 0010                delay_1ms@i 0070                ??_lcd8_cmd 0072  
                 _oscInit 0781         __end_of_tmr1_Init 0594      end_of_initialization 07FC  
        ?_i2c_masterWrite 0070          ?_i2c_master_init 0020           ___lldiv@divisor 0070  
         ___lldiv@counter 007D          ??_tmr1_Interrupt 0070          ??_i2c_masterWait 0070  
        ??_i2c_masterStop 0070                 _PORTEbits 0009          ??_tmr1_Prescaler 0070  
               _TRISBbits 0086                 _TRISCbits 0087       start_initialization 07F6  
__CFG_FOSC$INTRC_NOCLKOUT 0000                 ___latbits 0002             __pcstackBANK0 0020  
       __size_of_lcd8_cmd 0011                 _lcd8_init 06C5                 _delay_1ms 05FD  
                ?___lldiv 0070   tmr1_Prescaler@prescaler 0072                 _distancia 002B  
                ?_oscInit 0070            __size_of_setup 0013                 _tmr1_Init 058E  
                _PIE1bits 008C                ?_lcd8_init 0070                ?_delay_1ms 0070  
                _PIR1bits 000C   __size_of_i2c_addr_start 0010                ?_tmr1_Init 0070  
__size_of_i2c_masterWrite 0013  __size_of_i2c_master_init 0038          __size_of___lldiv 0066  
             lcd8_cmd@cmd 0072                  _lcd8_cmd 05C6          __size_of_oscInit 0075  
                __ptext10 071B                  __ptext11 0594                  __ptext12 05B6  
                __ptext13 05D7                  __ptext14 05A9         __CFG_BOR4V$BOR40V 0000  
           __size_of_main 004D               ??_lcd8_init 0073               ??_delay_1ms 0070  
     i2c_masterWrite@data 0070   __size_of_tmr1_Interrupt 000C                _INTCONbits 000B  
 __size_of_i2c_masterWait 000D   __size_of_i2c_masterStop 0009   __size_of_tmr1_Prescaler 002D  
        ___lldiv@dividend 0074               ??_tmr1_Init 0070                _OSCCONbits 008F  
        ___lldiv@quotient 0079         ??_i2c_masterWrite 0070         ??_i2c_master_init 0024  
             _SSPCON2bits 0091            _i2c_addr_start 05B6          i2c_master_init@c 0020  
