

Microchip MPLAB XC8 Assembler V2.10 build 88905656 
                                                                                               Sun Mar 08 19:17:42 2020

Microchip MPLAB XC8 C Compiler v2.10 (Free license) build 20190730164152 Og1 
     1                           	processor	16F887
     2                           	opt	pw 120
     3                           	opt	flic
     4                           	psect	strings,global,class=STRING,delta=2
     5                           	psect	cinit,global,class=CODE,merge=1,delta=2
     6                           	psect	bssBANK0,global,class=BANK0,space=1,delta=1
     7                           	psect	cstackCOMMON,global,class=COMMON,space=1,delta=1
     8                           	psect	cstackBANK0,global,class=BANK0,space=1,delta=1
     9                           	psect	maintext,global,class=CODE,split=1,delta=2
    10                           	psect	text1,local,class=CODE,merge=1,delta=2
    11                           	psect	text2,local,class=CODE,merge=1,delta=2
    12                           	psect	text3,local,class=CODE,merge=1,delta=2
    13                           	psect	text4,local,class=CODE,merge=1,delta=2
    14                           	psect	text5,local,class=CODE,merge=1,delta=2
    15                           	psect	text6,local,class=CODE,merge=1,delta=2
    16                           	psect	text7,local,class=CODE,merge=1,delta=2
    17                           	psect	text8,local,class=CODE,merge=1,delta=2
    18                           	psect	text9,local,class=CODE,merge=1,delta=2
    19                           	psect	text10,local,class=CODE,merge=1,delta=2
    20                           	psect	text11,local,class=CODE,merge=1,delta=2,group=1
    21                           	psect	text12,local,class=CODE,merge=1,delta=2
    22                           	psect	text13,local,class=CODE,merge=1,delta=2
    23                           	psect	text14,local,class=CODE,merge=1,delta=2
    24                           	psect	text15,local,class=CODE,merge=1,delta=2
    25                           	psect	text16,local,class=CODE,merge=1,delta=2
    26                           	psect	text17,local,class=CODE,merge=1,delta=2,group=1
    27                           	psect	text18,local,class=CODE,merge=1,delta=2,group=1
    28                           	psect	text19,local,class=CODE,merge=1,delta=2,group=1
    29                           	psect	text20,local,class=CODE,merge=1,delta=2,group=1
    30                           	psect	text21,local,class=CODE,merge=1,delta=2,group=1
    31                           	dabs	1,0x7E,2
    32  0000                     
    33                           ; Version 2.10
    34                           ; Generated 31/07/2019 GMT
    35                           ; 
    36                           ; Copyright © 2019, Microchip Technology Inc. and its subsidiaries ("Microchip")
    37                           ; All rights reserved.
    38                           ; 
    39                           ; This software is developed by Microchip Technology Inc. and its subsidiaries ("Microch
      +                          ip").
    40                           ; 
    41                           ; Redistribution and use in source and binary forms, with or without modification, are
    42                           ; permitted provided that the following conditions are met:
    43                           ; 
    44                           ;     1. Redistributions of source code must retain the above copyright notice, this lis
      +                          t of
    45                           ;        conditions and the following disclaimer.
    46                           ; 
    47                           ;     2. Redistributions in binary form must reproduce the above copyright notice, this 
      +                          list
    48                           ;        of conditions and the following disclaimer in the documentation and/or other
    49                           ;        materials provided with the distribution.
    50                           ; 
    51                           ;     3. Microchip's name may not be used to endorse or promote products derived from th
      +                          is
    52                           ;        software without specific prior written permission.
    53                           ; 
    54                           ; THIS SOFTWARE IS PROVIDED BY MICROCHIP "AS IS" AND ANY EXPRESS OR IMPLIED WARRANTIES,
    55                           ; INCLUDING, BUT NOT LIMITED TO, THE IMPLIED WARRANTIES OF MERCHANTABILITY AND FITNESS F
      +                          OR
    56                           ; PURPOSE ARE DISCLAIMED.  IN NO EVENT SHALL MICROCHIP BE LIABLE FOR ANY DIRECT, INDIREC
      +                          T,
    57                           ; INCIDENTAL, SPECIAL, EXEMPLARY, OR CONSEQUENTIAL DAMAGES (INCLUDING BUT NOT LIMITED TO
    58                           ; PROCUREMENT OF SUBSTITUTE GOODS OR SERVICES; LOSS OF USE, DATA OR PROFITS; OR BUSINESS
    59                           ; INTERRUPTION) HOWSOEVER CAUSED AND ON ANY THEORY OF LIABILITY, WHETHER IN CONTRACT, ST
      +                          RICT
    60                           ; LIABILITY, OR TORT (INCLUDING NEGLIGENCE OR OTHERWISE) ARISING IN ANY WAY OUT OF THE U
      +                          SE OF
    61                           ; THIS SOFTWARE, EVEN IF ADVISED OF THE POSSIBILITY OF SUCH DAMAGE.
    62                           ; 
    63                           ; 
    64                           ; Code-generator required, PIC16F887 Definitions
    65                           ; 
    66                           ; SFR Addresses
    67  0000                     	;# 
    68  0001                     	;# 
    69  0002                     	;# 
    70  0003                     	;# 
    71  0004                     	;# 
    72  0005                     	;# 
    73  0006                     	;# 
    74  0007                     	;# 
    75  0008                     	;# 
    76  0009                     	;# 
    77  000A                     	;# 
    78  000B                     	;# 
    79  000C                     	;# 
    80  000D                     	;# 
    81  000E                     	;# 
    82  000E                     	;# 
    83  000F                     	;# 
    84  0010                     	;# 
    85  0011                     	;# 
    86  0012                     	;# 
    87  0013                     	;# 
    88  0014                     	;# 
    89  0015                     	;# 
    90  0015                     	;# 
    91  0016                     	;# 
    92  0017                     	;# 
    93  0018                     	;# 
    94  0019                     	;# 
    95  001A                     	;# 
    96  001B                     	;# 
    97  001B                     	;# 
    98  001C                     	;# 
    99  001D                     	;# 
   100  001E                     	;# 
   101  001F                     	;# 
   102  0081                     	;# 
   103  0085                     	;# 
   104  0086                     	;# 
   105  0087                     	;# 
   106  0088                     	;# 
   107  0089                     	;# 
   108  008C                     	;# 
   109  008D                     	;# 
   110  008E                     	;# 
   111  008F                     	;# 
   112  0090                     	;# 
   113  0091                     	;# 
   114  0092                     	;# 
   115  0093                     	;# 
   116  0093                     	;# 
   117  0093                     	;# 
   118  0094                     	;# 
   119  0095                     	;# 
   120  0096                     	;# 
   121  0097                     	;# 
   122  0098                     	;# 
   123  0099                     	;# 
   124  009A                     	;# 
   125  009B                     	;# 
   126  009C                     	;# 
   127  009D                     	;# 
   128  009E                     	;# 
   129  009F                     	;# 
   130  0105                     	;# 
   131  0107                     	;# 
   132  0108                     	;# 
   133  0109                     	;# 
   134  010C                     	;# 
   135  010C                     	;# 
   136  010D                     	;# 
   137  010E                     	;# 
   138  010F                     	;# 
   139  0185                     	;# 
   140  0187                     	;# 
   141  0188                     	;# 
   142  0189                     	;# 
   143  018C                     	;# 
   144  018D                     	;# 
   145  0000                     	;# 
   146  0001                     	;# 
   147  0002                     	;# 
   148  0003                     	;# 
   149  0004                     	;# 
   150  0005                     	;# 
   151  0006                     	;# 
   152  0007                     	;# 
   153  0008                     	;# 
   154  0009                     	;# 
   155  000A                     	;# 
   156  000B                     	;# 
   157  000C                     	;# 
   158  000D                     	;# 
   159  000E                     	;# 
   160  000E                     	;# 
   161  000F                     	;# 
   162  0010                     	;# 
   163  0011                     	;# 
   164  0012                     	;# 
   165  0013                     	;# 
   166  0014                     	;# 
   167  0015                     	;# 
   168  0015                     	;# 
   169  0016                     	;# 
   170  0017                     	;# 
   171  0018                     	;# 
   172  0019                     	;# 
   173  001A                     	;# 
   174  001B                     	;# 
   175  001B                     	;# 
   176  001C                     	;# 
   177  001D                     	;# 
   178  001E                     	;# 
   179  001F                     	;# 
   180  0081                     	;# 
   181  0085                     	;# 
   182  0086                     	;# 
   183  0087                     	;# 
   184  0088                     	;# 
   185  0089                     	;# 
   186  008C                     	;# 
   187  008D                     	;# 
   188  008E                     	;# 
   189  008F                     	;# 
   190  0090                     	;# 
   191  0091                     	;# 
   192  0092                     	;# 
   193  0093                     	;# 
   194  0093                     	;# 
   195  0093                     	;# 
   196  0094                     	;# 
   197  0095                     	;# 
   198  0096                     	;# 
   199  0097                     	;# 
   200  0098                     	;# 
   201  0099                     	;# 
   202  009A                     	;# 
   203  009B                     	;# 
   204  009C                     	;# 
   205  009D                     	;# 
   206  009E                     	;# 
   207  009F                     	;# 
   208  0105                     	;# 
   209  0107                     	;# 
   210  0108                     	;# 
   211  0109                     	;# 
   212  010C                     	;# 
   213  010C                     	;# 
   214  010D                     	;# 
   215  010E                     	;# 
   216  010F                     	;# 
   217  0185                     	;# 
   218  0187                     	;# 
   219  0188                     	;# 
   220  0189                     	;# 
   221  018C                     	;# 
   222  018D                     	;# 
   223  0000                     	;# 
   224  0001                     	;# 
   225  0002                     	;# 
   226  0003                     	;# 
   227  0004                     	;# 
   228  0005                     	;# 
   229  0006                     	;# 
   230  0007                     	;# 
   231  0008                     	;# 
   232  0009                     	;# 
   233  000A                     	;# 
   234  000B                     	;# 
   235  000C                     	;# 
   236  000D                     	;# 
   237  000E                     	;# 
   238  000E                     	;# 
   239  000F                     	;# 
   240  0010                     	;# 
   241  0011                     	;# 
   242  0012                     	;# 
   243  0013                     	;# 
   244  0014                     	;# 
   245  0015                     	;# 
   246  0015                     	;# 
   247  0016                     	;# 
   248  0017                     	;# 
   249  0018                     	;# 
   250  0019                     	;# 
   251  001A                     	;# 
   252  001B                     	;# 
   253  001B                     	;# 
   254  001C                     	;# 
   255  001D                     	;# 
   256  001E                     	;# 
   257  001F                     	;# 
   258  0081                     	;# 
   259  0085                     	;# 
   260  0086                     	;# 
   261  0087                     	;# 
   262  0088                     	;# 
   263  0089                     	;# 
   264  008C                     	;# 
   265  008D                     	;# 
   266  008E                     	;# 
   267  008F                     	;# 
   268  0090                     	;# 
   269  0091                     	;# 
   270  0092                     	;# 
   271  0093                     	;# 
   272  0093                     	;# 
   273  0093                     	;# 
   274  0094                     	;# 
   275  0095                     	;# 
   276  0096                     	;# 
   277  0097                     	;# 
   278  0098                     	;# 
   279  0099                     	;# 
   280  009A                     	;# 
   281  009B                     	;# 
   282  009C                     	;# 
   283  009D                     	;# 
   284  009E                     	;# 
   285  009F                     	;# 
   286  0105                     	;# 
   287  0107                     	;# 
   288  0108                     	;# 
   289  0109                     	;# 
   290  010C                     	;# 
   291  010C                     	;# 
   292  010D                     	;# 
   293  010E                     	;# 
   294  010F                     	;# 
   295  0185                     	;# 
   296  0187                     	;# 
   297  0188                     	;# 
   298  0189                     	;# 
   299  018C                     	;# 
   300  018D                     	;# 
   301  0000                     	;# 
   302  0001                     	;# 
   303  0002                     	;# 
   304  0003                     	;# 
   305  0004                     	;# 
   306  0005                     	;# 
   307  0006                     	;# 
   308  0007                     	;# 
   309  0008                     	;# 
   310  0009                     	;# 
   311  000A                     	;# 
   312  000B                     	;# 
   313  000C                     	;# 
   314  000D                     	;# 
   315  000E                     	;# 
   316  000E                     	;# 
   317  000F                     	;# 
   318  0010                     	;# 
   319  0011                     	;# 
   320  0012                     	;# 
   321  0013                     	;# 
   322  0014                     	;# 
   323  0015                     	;# 
   324  0015                     	;# 
   325  0016                     	;# 
   326  0017                     	;# 
   327  0018                     	;# 
   328  0019                     	;# 
   329  001A                     	;# 
   330  001B                     	;# 
   331  001B                     	;# 
   332  001C                     	;# 
   333  001D                     	;# 
   334  001E                     	;# 
   335  001F                     	;# 
   336  0081                     	;# 
   337  0085                     	;# 
   338  0086                     	;# 
   339  0087                     	;# 
   340  0088                     	;# 
   341  0089                     	;# 
   342  008C                     	;# 
   343  008D                     	;# 
   344  008E                     	;# 
   345  008F                     	;# 
   346  0090                     	;# 
   347  0091                     	;# 
   348  0092                     	;# 
   349  0093                     	;# 
   350  0093                     	;# 
   351  0093                     	;# 
   352  0094                     	;# 
   353  0095                     	;# 
   354  0096                     	;# 
   355  0097                     	;# 
   356  0098                     	;# 
   357  0099                     	;# 
   358  009A                     	;# 
   359  009B                     	;# 
   360  009C                     	;# 
   361  009D                     	;# 
   362  009E                     	;# 
   363  009F                     	;# 
   364  0105                     	;# 
   365  0107                     	;# 
   366  0108                     	;# 
   367  0109                     	;# 
   368  010C                     	;# 
   369  010C                     	;# 
   370  010D                     	;# 
   371  010E                     	;# 
   372  010F                     	;# 
   373  0185                     	;# 
   374  0187                     	;# 
   375  0188                     	;# 
   376  0189                     	;# 
   377  018C                     	;# 
   378  018D                     	;# 
   379  0000                     	;# 
   380  0001                     	;# 
   381  0002                     	;# 
   382  0003                     	;# 
   383  0004                     	;# 
   384  0005                     	;# 
   385  0006                     	;# 
   386  0007                     	;# 
   387  0008                     	;# 
   388  0009                     	;# 
   389  000A                     	;# 
   390  000B                     	;# 
   391  000C                     	;# 
   392  000D                     	;# 
   393  000E                     	;# 
   394  000E                     	;# 
   395  000F                     	;# 
   396  0010                     	;# 
   397  0011                     	;# 
   398  0012                     	;# 
   399  0013                     	;# 
   400  0014                     	;# 
   401  0015                     	;# 
   402  0015                     	;# 
   403  0016                     	;# 
   404  0017                     	;# 
   405  0018                     	;# 
   406  0019                     	;# 
   407  001A                     	;# 
   408  001B                     	;# 
   409  001B                     	;# 
   410  001C                     	;# 
   411  001D                     	;# 
   412  001E                     	;# 
   413  001F                     	;# 
   414  0081                     	;# 
   415  0085                     	;# 
   416  0086                     	;# 
   417  0087                     	;# 
   418  0088                     	;# 
   419  0089                     	;# 
   420  008C                     	;# 
   421  008D                     	;# 
   422  008E                     	;# 
   423  008F                     	;# 
   424  0090                     	;# 
   425  0091                     	;# 
   426  0092                     	;# 
   427  0093                     	;# 
   428  0093                     	;# 
   429  0093                     	;# 
   430  0094                     	;# 
   431  0095                     	;# 
   432  0096                     	;# 
   433  0097                     	;# 
   434  0098                     	;# 
   435  0099                     	;# 
   436  009A                     	;# 
   437  009B                     	;# 
   438  009C                     	;# 
   439  009D                     	;# 
   440  009E                     	;# 
   441  009F                     	;# 
   442  0105                     	;# 
   443  0107                     	;# 
   444  0108                     	;# 
   445  0109                     	;# 
   446  010C                     	;# 
   447  010C                     	;# 
   448  010D                     	;# 
   449  010E                     	;# 
   450  010F                     	;# 
   451  0185                     	;# 
   452  0187                     	;# 
   453  0188                     	;# 
   454  0189                     	;# 
   455  018C                     	;# 
   456  018D                     	;# 
   457  0009                     _PORTEbits	set	9
   458  0005                     _PORTA	set	5
   459  000C                     _PIR1bits	set	12
   460  000B                     _INTCONbits	set	11
   461  0013                     _SSPBUF	set	19
   462  0014                     _SSPCON	set	20
   463  008F                     _OSCCONbits	set	143
   464  008C                     _PIE1bits	set	140
   465  0091                     _SSPCON2bits	set	145
   466  0087                     _TRISCbits	set	135
   467  0094                     _SSPSTAT	set	148
   468  0093                     _SSPADD	set	147
   469  0091                     _SSPCON2	set	145
   470  0089                     _TRISE	set	137
   471  0085                     _TRISA	set	133
   472  048C                     _ACKEN	set	1164
   473  0189                     _ANSELH	set	393
   474  0188                     _ANSEL	set	392
   475                           
   476                           	psect	strings
   477  0003                     __pstrings:	
   478  0003                     stringtab:	
   479  0003                     __stringtab:	
   480  0003                     stringcode:	
   481                           ;	String table - string pointers are 1 byte each
   482                           
   483  0003                     stringdir:	
   484  0003  3000               	movlw	high stringdir
   485  0004  008A               	movwf	10
   486  0005  0804               	movf	4,w
   487  0006  0A84               	incf	4,f
   488  0007  0782               	addwf	2,f
   489  0008                     __stringbase:	
   490  0008  3400               	retlw	0
   491  0009                     __end_of__stringtab:	
   492  0009                     STR_1:	
   493  0009  3464               	retlw	100	;'d'
   494  000A  343A               	retlw	58	;':'
   495  000B  3400               	retlw	0
   496  000C                     STR_2:	
   497  000C  3463               	retlw	99	;'c'
   498  000D  346D               	retlw	109	;'m'
   499  000E  3400               	retlw	0
   500                           
   501                           ; #config settings
   502  0000                     
   503                           	psect	cinit
   504  07F2                     start_initialization:	
   505  07F2                     __initialization:	
   506                           
   507                           ; Clear objects allocated to BANK0
   508  07F2  1283               	bcf	3,5	;RP0=0, select bank0
   509  07F3  1303               	bcf	3,6	;RP1=0, select bank0
   510  07F4  01C6               	clrf	__pbssBANK0& (0+127)
   511  07F5  01C7               	clrf	(__pbssBANK0+1)& (0+127)
   512  07F6  01C8               	clrf	(__pbssBANK0+2)& (0+127)
   513  07F7  01C9               	clrf	(__pbssBANK0+3)& (0+127)
   514  07F8  01CA               	clrf	(__pbssBANK0+4)& (0+127)
   515  07F9  01CB               	clrf	(__pbssBANK0+5)& (0+127)
   516  07FA  01CC               	clrf	(__pbssBANK0+6)& (0+127)
   517  07FB  01CD               	clrf	(__pbssBANK0+7)& (0+127)
   518  07FC                     end_of_initialization:	
   519                           ;End of C runtime variable initialization code
   520                           
   521  07FC                     __end_of__initialization:	
   522  07FC  0183               	clrf	3
   523  07FD  120A  118A  2CF0   	ljmp	_main	;jump to C main() function
   524                           
   525                           	psect	bssBANK0
   526  0046                     __pbssBANK0:	
   527  0046                     _usUnidades:	
   528  0046                     	ds	2
   529  0048                     _usDecenas:	
   530  0048                     	ds	2
   531  004A                     _usCentenas:	
   532  004A                     	ds	2
   533  004C                     _ultrasonico:	
   534  004C                     	ds	2
   535                           
   536                           	psect	cstackCOMMON
   537  0070                     __pcstackCOMMON:	
   538  0070                     ?_setup:	
   539  0070                     ??_setup:	
   540                           ; 1 bytes @ 0x0
   541                           
   542  0070                     ?_oscInit:	
   543                           ; 1 bytes @ 0x0
   544                           
   545  0070                     ??_oscInit:	
   546                           ; 1 bytes @ 0x0
   547                           
   548  0070                     ?_lcd8_init:	
   549                           ; 1 bytes @ 0x0
   550                           
   551  0070                     ?_i2c_masterStart:	
   552                           ; 1 bytes @ 0x0
   553                           
   554  0070                     ??_i2c_masterStart:	
   555                           ; 1 bytes @ 0x0
   556                           
   557  0070                     ?_i2c_masterWrite:	
   558                           ; 1 bytes @ 0x0
   559                           
   560  0070                     ?_i2c_masterStop:	
   561                           ; 1 bytes @ 0x0
   562                           
   563  0070                     ??_i2c_masterStop:	
   564                           ; 1 bytes @ 0x0
   565                           
   566  0070                     ?_delay_1ms:	
   567                           ; 1 bytes @ 0x0
   568                           
   569  0070                     ??_delay_1ms:	
   570                           ; 1 bytes @ 0x0
   571                           
   572  0070                     ?_lcd8_dispString:	
   573                           ; 1 bytes @ 0x0
   574                           
   575  0070                     ?_lcd8_dispChar:	
   576                           ; 1 bytes @ 0x0
   577                           
   578  0070                     ?_lcd8_cmd:	
   579                           ; 1 bytes @ 0x0
   580                           
   581  0070                     ?_main:	
   582                           ; 1 bytes @ 0x0
   583                           
   584  0070                     ?_i2c_masterWait:	
   585                           ; 1 bytes @ 0x0
   586                           
   587  0070                     ??_i2c_masterWait:	
   588                           ; 1 bytes @ 0x0
   589                           
   590  0070                     ?_i2c_masterRead:	
   591                           ; 1 bytes @ 0x0
   592                           
   593  0070                     ?___lwdiv:	
   594                           ; 2 bytes @ 0x0
   595                           
   596  0070                     ?___lwmod:	
   597                           ; 2 bytes @ 0x0
   598                           
   599  0070                     ?___lldiv:	
   600                           ; 2 bytes @ 0x0
   601                           
   602  0070                     ?___xxtofl:	
   603                           ; 4 bytes @ 0x0
   604                           
   605  0070                     i2c_masterWrite@data:	
   606                           ; 4 bytes @ 0x0
   607                           
   608  0070                     i2c_masterRead@a:	
   609                           ; 2 bytes @ 0x0
   610                           
   611  0070                     delay_1ms@i:	
   612                           ; 2 bytes @ 0x0
   613                           
   614  0070                     ___lwdiv@divisor:	
   615                           ; 2 bytes @ 0x0
   616                           
   617  0070                     ___lwmod@divisor:	
   618                           ; 2 bytes @ 0x0
   619                           
   620  0070                     ___lldiv@divisor:	
   621                           ; 2 bytes @ 0x0
   622                           
   623  0070                     ___xxtofl@val:	
   624                           ; 4 bytes @ 0x0
   625                           
   626                           
   627                           ; 4 bytes @ 0x0
   628  0070                     	ds	2
   629  0072                     ??_i2c_masterWrite:	
   630  0072                     ??_i2c_masterRead:	
   631                           ; 1 bytes @ 0x2
   632                           
   633  0072                     ??_lcd8_cmd:	
   634                           ; 1 bytes @ 0x2
   635                           
   636  0072                     ?_lcd8_write:	
   637                           ; 1 bytes @ 0x2
   638                           
   639  0072                     lcd8_cmd@cmd:	
   640                           ; 1 bytes @ 0x2
   641                           
   642  0072                     oscInit@freq:	
   643                           ; 1 bytes @ 0x2
   644                           
   645  0072                     lcd8_write@dat:	
   646                           ; 1 bytes @ 0x2
   647                           
   648  0072                     ___lwdiv@dividend:	
   649                           ; 2 bytes @ 0x2
   650                           
   651  0072                     ___lwmod@dividend:	
   652                           ; 2 bytes @ 0x2
   653                           
   654                           
   655                           ; 2 bytes @ 0x2
   656  0072                     	ds	1
   657  0073                     ??_lcd8_init:	
   658  0073                     ?_lcd8_setCursor:	
   659                           ; 1 bytes @ 0x3
   660                           
   661  0073                     lcd8_setCursor@columna:	
   662                           ; 1 bytes @ 0x3
   663                           
   664                           
   665                           ; 1 bytes @ 0x3
   666  0073                     	ds	1
   667  0074                     ??_lcd8_setCursor:	
   668  0074                     ??_lcd8_dispString:	
   669                           ; 1 bytes @ 0x4
   670                           
   671  0074                     ??_lcd8_dispChar:	
   672                           ; 1 bytes @ 0x4
   673                           
   674  0074                     ??_lcd8_write:	
   675                           ; 1 bytes @ 0x4
   676                           
   677  0074                     ??___lwdiv:	
   678                           ; 1 bytes @ 0x4
   679                           
   680  0074                     ??___lwmod:	
   681                           ; 1 bytes @ 0x4
   682                           
   683  0074                     ??___xxtofl:	
   684                           ; 1 bytes @ 0x4
   685                           
   686  0074                     lcd8_dispChar@val_num:	
   687                           ; 1 bytes @ 0x4
   688                           
   689  0074                     lcd8_setCursor@fila:	
   690                           ; 1 bytes @ 0x4
   691                           
   692  0074                     i2c_masterRead@temp:	
   693                           ; 1 bytes @ 0x4
   694                           
   695  0074                     ___lldiv@dividend:	
   696                           ; 2 bytes @ 0x4
   697                           
   698                           
   699                           ; 4 bytes @ 0x4
   700  0074                     	ds	1
   701  0075                     ___lwmod@counter:	
   702  0075                     ___lwdiv@quotient:	
   703                           ; 1 bytes @ 0x5
   704                           
   705                           
   706                           ; 2 bytes @ 0x5
   707  0075                     	ds	1
   708  0076                     lcd8_dispString@value:	
   709                           
   710                           ; 1 bytes @ 0x6
   711  0076                     	ds	1
   712  0077                     ___lwdiv@counter:	
   713                           
   714                           ; 1 bytes @ 0x7
   715  0077                     	ds	1
   716  0078                     ??___lldiv:	
   717  0078                     ___xxtofl@sign:	
   718                           ; 1 bytes @ 0x8
   719                           
   720                           
   721                           ; 1 bytes @ 0x8
   722  0078                     	ds	1
   723  0079                     ___xxtofl@exp:	
   724  0079                     ___lldiv@quotient:	
   725                           ; 1 bytes @ 0x9
   726                           
   727                           
   728                           ; 4 bytes @ 0x9
   729  0079                     	ds	1
   730  007A                     ___xxtofl@arg:	
   731                           
   732                           ; 4 bytes @ 0xA
   733  007A                     	ds	3
   734  007D                     ___lldiv@counter:	
   735                           
   736                           ; 1 bytes @ 0xD
   737  007D                     	ds	1
   738                           
   739                           	psect	cstackBANK0
   740  0020                     __pcstackBANK0:	
   741  0020                     ?_i2c_master_init:	
   742  0020                     ?___fldiv:	
   743                           ; 1 bytes @ 0x0
   744                           
   745  0020                     i2c_master_init@c:	
   746                           ; 4 bytes @ 0x0
   747                           
   748  0020                     ___fldiv@a:	
   749                           ; 4 bytes @ 0x0
   750                           
   751                           
   752                           ; 4 bytes @ 0x0
   753  0020                     	ds	4
   754  0024                     ??_i2c_master_init:	
   755  0024                     ___fldiv@b:	
   756                           ; 1 bytes @ 0x4
   757                           
   758                           
   759                           ; 4 bytes @ 0x4
   760  0024                     	ds	4
   761  0028                     ??___fldiv:	
   762                           
   763                           ; 1 bytes @ 0x8
   764  0028                     	ds	5
   765  002D                     ___fldiv@rem:	
   766                           
   767                           ; 4 bytes @ 0xD
   768  002D                     	ds	4
   769  0031                     ___fldiv@sign:	
   770                           
   771                           ; 1 bytes @ 0x11
   772  0031                     	ds	1
   773  0032                     ___fldiv@new_exp:	
   774                           
   775                           ; 2 bytes @ 0x12
   776  0032                     	ds	2
   777  0034                     ___fldiv@grs:	
   778                           
   779                           ; 4 bytes @ 0x14
   780  0034                     	ds	4
   781  0038                     ___fldiv@bexp:	
   782                           
   783                           ; 1 bytes @ 0x18
   784  0038                     	ds	1
   785  0039                     ___fldiv@aexp:	
   786                           
   787                           ; 1 bytes @ 0x19
   788  0039                     	ds	1
   789  003A                     ?___fltol:	
   790  003A                     ___fltol@f1:	
   791                           ; 4 bytes @ 0x1A
   792                           
   793                           
   794                           ; 4 bytes @ 0x1A
   795  003A                     	ds	4
   796  003E                     ??___fltol:	
   797                           
   798                           ; 1 bytes @ 0x1E
   799  003E                     	ds	5
   800  0043                     ___fltol@sign1:	
   801                           
   802                           ; 1 bytes @ 0x23
   803  0043                     	ds	1
   804  0044                     ___fltol@exp1:	
   805                           
   806                           ; 1 bytes @ 0x24
   807  0044                     	ds	1
   808  0045                     ??_main:	
   809                           
   810                           ; 1 bytes @ 0x25
   811  0045                     	ds	1
   812                           
   813                           	psect	maintext
   814  04F0                     __pmaintext:	
   815 ;;
   816 ;;Main: autosize = 0, tempsize = 1, incstack = 0, save=0
   817 ;;
   818 ;; *************** function _main *****************
   819 ;; Defined at:
   820 ;;		line 45 in file "control_master.c"
   821 ;; Parameters:    Size  Location     Type
   822 ;;		None
   823 ;; Auto vars:     Size  Location     Type
   824 ;;		None
   825 ;; Return value:  Size  Location     Type
   826 ;;                  1    wreg      void 
   827 ;; Registers used:
   828 ;;		wreg, fsr0l, fsr0h, status,2, status,0, btemp+1, pclath, cstack
   829 ;; Tracked objects:
   830 ;;		On entry : B00/0
   831 ;;		On exit  : 0/0
   832 ;;		Unchanged: 0/0
   833 ;; Data sizes:     COMMON   BANK0   BANK1   BANK3   BANK2
   834 ;;      Params:         0       0       0       0       0
   835 ;;      Locals:         0       0       0       0       0
   836 ;;      Temps:          0       1       0       0       0
   837 ;;      Totals:         0       1       0       0       0
   838 ;;Total ram usage:        1 bytes
   839 ;; Hardware stack levels required when called:    3
   840 ;; This function calls:
   841 ;;		___fldiv
   842 ;;		___fltol
   843 ;;		___lwdiv
   844 ;;		___lwmod
   845 ;;		___xxtofl
   846 ;;		_delay_1ms
   847 ;;		_i2c_masterRead
   848 ;;		_i2c_masterStart
   849 ;;		_i2c_masterStop
   850 ;;		_i2c_masterWrite
   851 ;;		_i2c_master_init
   852 ;;		_lcd8_dispChar
   853 ;;		_lcd8_dispString
   854 ;;		_lcd8_init
   855 ;;		_lcd8_setCursor
   856 ;;		_oscInit
   857 ;;		_setup
   858 ;; This function is called by:
   859 ;;		Startup code after reset
   860 ;; This function uses a non-reentrant model
   861 ;;
   862                           
   863                           
   864                           ;psect for function _main
   865  04F0                     _main:	
   866  04F0                     l1699:	
   867                           ;incstack = 0
   868                           ; Regs used in _main: [wreg-fsr0h+status,2+status,0+btemp+1+pclath+cstack]
   869                           
   870                           
   871                           ;control_master.c: 46:     setup();
   872  04F0  120A  118A  20F7  120A  118A  	fcall	_setup
   873  04F5                     l1701:	
   874                           
   875                           ;control_master.c: 47:     oscInit(1);
   876  04F5  3001               	movlw	1
   877  04F6  120A  118A  2345  120A  118A  	fcall	_oscInit
   878  04FB                     l1703:	
   879                           
   880                           ;control_master.c: 48:     i2c_master_init(100000);
   881  04FB  3000               	movlw	0
   882  04FC  1283               	bcf	3,5	;RP0=0, select bank0
   883  04FD  1303               	bcf	3,6	;RP1=0, select bank0
   884  04FE  00A3               	movwf	i2c_master_init@c+3
   885  04FF  3001               	movlw	1
   886  0500  00A2               	movwf	i2c_master_init@c+2
   887  0501  3086               	movlw	134
   888  0502  00A1               	movwf	i2c_master_init@c+1
   889  0503  30A0               	movlw	160
   890  0504  00A0               	movwf	i2c_master_init@c
   891  0505  120A  118A  21D3  120A  118A  	fcall	_i2c_master_init
   892  050A                     l1705:	
   893                           
   894                           ;control_master.c: 49:     lcd8_init();
   895  050A  120A  118A  2289  120A  118A  	fcall	_lcd8_init
   896  050F                     l1707:	
   897                           
   898                           ;control_master.c: 52:         i2c_masterStart();
   899  050F  120A  118A  20E5  120A  118A  	fcall	_i2c_masterStart
   900  0514                     l1709:	
   901                           
   902                           ;control_master.c: 53:         i2c_masterWrite(0x11);
   903  0514  3011               	movlw	17
   904  0515  00F0               	movwf	i2c_masterWrite@data
   905  0516  3000               	movlw	0
   906  0517  00F1               	movwf	i2c_masterWrite@data+1
   907  0518  120A  118A  2100  120A  118A  	fcall	_i2c_masterWrite
   908  051D                     l1711:	
   909                           
   910                           ;control_master.c: 54:         ultrasonico = i2c_masterRead(0);
   911  051D  3000               	movlw	0
   912  051E  00F0               	movwf	i2c_masterRead@a
   913  051F  00F1               	movwf	i2c_masterRead@a+1
   914  0520  120A  118A  219D  120A  118A  	fcall	_i2c_masterRead
   915  0525  0871               	movf	?_i2c_masterRead+1,w
   916  0526  1283               	bcf	3,5	;RP0=0, select bank0
   917  0527  1303               	bcf	3,6	;RP1=0, select bank0
   918  0528  00CD               	movwf	_ultrasonico+1
   919  0529  0870               	movf	?_i2c_masterRead,w
   920  052A  00CC               	movwf	_ultrasonico
   921  052B                     l1713:	
   922                           
   923                           ;control_master.c: 55:         i2c_masterStop();
   924  052B  120A  118A  20EE  120A  118A  	fcall	_i2c_masterStop
   925  0530                     l1715:	
   926                           
   927                           ;control_master.c: 56:         _delay((unsigned long)((1)*(4000000/4000.0)));
   928  0530  30C7               	movlw	199
   929  0531  1283               	bcf	3,5	;RP0=0, select bank0
   930  0532  1303               	bcf	3,6	;RP1=0, select bank0
   931  0533  00C5               	movwf	??_main
   932  0534                     u1657:	
   933  0534  2D35               	nop2
   934  0535  0BC5               	decfsz	??_main,f
   935  0536  2D34               	goto	u1657
   936  0537  2D38               	nop2
   937  0538                     l1717:	
   938                           
   939                           ;control_master.c: 58:         ultrasonico = ultrasonico/29.412;
   940  0538  1283               	bcf	3,5	;RP0=0, select bank0
   941  0539  1303               	bcf	3,6	;RP1=0, select bank0
   942  053A  084C               	movf	_ultrasonico,w
   943  053B  00F0               	movwf	___xxtofl@val
   944  053C  084D               	movf	_ultrasonico+1,w
   945  053D  00F1               	movwf	___xxtofl@val+1
   946  053E  01F2               	clrf	___xxtofl@val+2
   947  053F  01F3               	clrf	___xxtofl@val+3
   948  0540  3000               	movlw	0
   949  0541  120A  118A  2436  120A  118A  	fcall	___xxtofl
   950  0546  0873               	movf	?___xxtofl+3,w
   951  0547  1283               	bcf	3,5	;RP0=0, select bank0
   952  0548  1303               	bcf	3,6	;RP1=0, select bank0
   953  0549  00A7               	movwf	___fldiv@b+3
   954  054A  0872               	movf	?___xxtofl+2,w
   955  054B  00A6               	movwf	___fldiv@b+2
   956  054C  0871               	movf	?___xxtofl+1,w
   957  054D  00A5               	movwf	___fldiv@b+1
   958  054E  0870               	movf	?___xxtofl,w
   959  054F  00A4               	movwf	___fldiv@b
   960  0550  3041               	movlw	65
   961  0551  00A3               	movwf	___fldiv@a+3
   962  0552  30EB               	movlw	235
   963  0553  00A2               	movwf	___fldiv@a+2
   964  0554  304B               	movlw	75
   965  0555  00A1               	movwf	___fldiv@a+1
   966  0556  30C7               	movlw	199
   967  0557  00A0               	movwf	___fldiv@a
   968  0558  120A  118A  2615  120A  118A  	fcall	___fldiv
   969  055D  1283               	bcf	3,5	;RP0=0, select bank0
   970  055E  1303               	bcf	3,6	;RP1=0, select bank0
   971  055F  0823               	movf	?___fldiv+3,w
   972  0560  00BD               	movwf	___fltol@f1+3
   973  0561  0822               	movf	?___fldiv+2,w
   974  0562  00BC               	movwf	___fltol@f1+2
   975  0563  0821               	movf	?___fldiv+1,w
   976  0564  00BB               	movwf	___fltol@f1+1
   977  0565  0820               	movf	?___fldiv,w
   978  0566  00BA               	movwf	___fltol@f1
   979  0567  120A  118A  23BA  120A  118A  	fcall	___fltol
   980  056C  1283               	bcf	3,5	;RP0=0, select bank0
   981  056D  1303               	bcf	3,6	;RP1=0, select bank0
   982  056E  083B               	movf	?___fltol+1,w
   983  056F  00CD               	movwf	_ultrasonico+1
   984  0570  083A               	movf	?___fltol,w
   985  0571  00CC               	movwf	_ultrasonico
   986  0572                     l1719:	
   987                           
   988                           ;control_master.c: 59:         ultrasonico = ultrasonico + 1;
   989  0572  084C               	movf	_ultrasonico,w
   990  0573  3E01               	addlw	1
   991  0574  00CC               	movwf	_ultrasonico
   992  0575  084D               	movf	_ultrasonico+1,w
   993  0576  1803               	skipnc
   994  0577  3E01               	addlw	1
   995  0578  3E00               	addlw	0
   996  0579  00CD               	movwf	_ultrasonico+1
   997  057A                     l1721:	
   998                           
   999                           ;control_master.c: 66:         lcd8_setCursor(1,0);
  1000  057A  01F3               	clrf	lcd8_setCursor@columna
  1001  057B  3001               	movlw	1
  1002  057C  120A  118A  215C  120A  118A  	fcall	_lcd8_setCursor
  1003  0581                     l1723:	
  1004                           
  1005                           ;control_master.c: 67:         delay_1ms();
  1006  0581  120A  118A  2146  120A  118A  	fcall	_delay_1ms
  1007  0586                     l1725:	
  1008                           
  1009                           ;control_master.c: 68:         lcd8_dispString("d:");
  1010  0586  3001               	movlw	(low ((STR_1-__stringbase)| (0+32768)))& (0+255)
  1011  0587  120A  118A  2178  120A  118A  	fcall	_lcd8_dispString
  1012  058C                     l1727:	
  1013                           
  1014                           ;control_master.c: 69:         delay_1ms();
  1015  058C  120A  118A  2146  120A  118A  	fcall	_delay_1ms
  1016  0591                     l1729:	
  1017                           
  1018                           ;control_master.c: 70:         lcd8_setCursor(1,3);
  1019  0591  3003               	movlw	3
  1020  0592  1283               	bcf	3,5	;RP0=0, select bank0
  1021  0593  1303               	bcf	3,6	;RP1=0, select bank0
  1022  0594  00C5               	movwf	??_main
  1023  0595  0845               	movf	??_main,w
  1024  0596  00F3               	movwf	lcd8_setCursor@columna
  1025  0597  3001               	movlw	1
  1026  0598  120A  118A  215C  120A  118A  	fcall	_lcd8_setCursor
  1027  059D                     l1731:	
  1028                           
  1029                           ;control_master.c: 71:         delay_1ms();
  1030  059D  120A  118A  2146  120A  118A  	fcall	_delay_1ms
  1031  05A2                     l1733:	
  1032                           
  1033                           ;control_master.c: 72:         lcd8_dispChar(ultrasonico%10);
  1034  05A2  300A               	movlw	10
  1035  05A3  00F0               	movwf	___lwmod@divisor
  1036  05A4  3000               	movlw	0
  1037  05A5  00F1               	movwf	___lwmod@divisor+1
  1038  05A6  1283               	bcf	3,5	;RP0=0, select bank0
  1039  05A7  1303               	bcf	3,6	;RP1=0, select bank0
  1040  05A8  084D               	movf	_ultrasonico+1,w
  1041  05A9  00F3               	movwf	___lwmod@dividend+1
  1042  05AA  084C               	movf	_ultrasonico,w
  1043  05AB  00F2               	movwf	___lwmod@dividend
  1044  05AC  120A  118A  220B  120A  118A  	fcall	___lwmod
  1045  05B1  0870               	movf	?___lwmod,w
  1046  05B2  120A  118A  2117  120A  118A  	fcall	_lcd8_dispChar
  1047  05B7                     l1735:	
  1048                           
  1049                           ;control_master.c: 73:         delay_1ms();
  1050  05B7  120A  118A  2146  120A  118A  	fcall	_delay_1ms
  1051  05BC                     l1737:	
  1052                           
  1053                           ;control_master.c: 74:         lcd8_setCursor(1,2);
  1054  05BC  3002               	movlw	2
  1055  05BD  1283               	bcf	3,5	;RP0=0, select bank0
  1056  05BE  1303               	bcf	3,6	;RP1=0, select bank0
  1057  05BF  00C5               	movwf	??_main
  1058  05C0  0845               	movf	??_main,w
  1059  05C1  00F3               	movwf	lcd8_setCursor@columna
  1060  05C2  3001               	movlw	1
  1061  05C3  120A  118A  215C  120A  118A  	fcall	_lcd8_setCursor
  1062  05C8                     l1739:	
  1063                           
  1064                           ;control_master.c: 75:         delay_1ms();
  1065  05C8  120A  118A  2146  120A  118A  	fcall	_delay_1ms
  1066  05CD                     l1741:	
  1067                           
  1068                           ;control_master.c: 76:         ultrasonico = ultrasonico/10;
  1069  05CD  300A               	movlw	10
  1070  05CE  00F0               	movwf	___lwdiv@divisor
  1071  05CF  3000               	movlw	0
  1072  05D0  00F1               	movwf	___lwdiv@divisor+1
  1073  05D1  1283               	bcf	3,5	;RP0=0, select bank0
  1074  05D2  1303               	bcf	3,6	;RP1=0, select bank0
  1075  05D3  084D               	movf	_ultrasonico+1,w
  1076  05D4  00F3               	movwf	___lwdiv@dividend+1
  1077  05D5  084C               	movf	_ultrasonico,w
  1078  05D6  00F2               	movwf	___lwdiv@dividend
  1079  05D7  120A  118A  2245  120A  118A  	fcall	___lwdiv
  1080  05DC  0871               	movf	?___lwdiv+1,w
  1081  05DD  1283               	bcf	3,5	;RP0=0, select bank0
  1082  05DE  1303               	bcf	3,6	;RP1=0, select bank0
  1083  05DF  00CD               	movwf	_ultrasonico+1
  1084  05E0  0870               	movf	?___lwdiv,w
  1085  05E1  00CC               	movwf	_ultrasonico
  1086  05E2                     l1743:	
  1087                           
  1088                           ;control_master.c: 77:         lcd8_dispChar(ultrasonico%10);
  1089  05E2  300A               	movlw	10
  1090  05E3  00F0               	movwf	___lwmod@divisor
  1091  05E4  3000               	movlw	0
  1092  05E5  00F1               	movwf	___lwmod@divisor+1
  1093  05E6  084D               	movf	_ultrasonico+1,w
  1094  05E7  00F3               	movwf	___lwmod@dividend+1
  1095  05E8  084C               	movf	_ultrasonico,w
  1096  05E9  00F2               	movwf	___lwmod@dividend
  1097  05EA  120A  118A  220B  120A  118A  	fcall	___lwmod
  1098  05EF  0870               	movf	?___lwmod,w
  1099  05F0  120A  118A  2117  120A  118A  	fcall	_lcd8_dispChar
  1100  05F5                     l1745:	
  1101                           
  1102                           ;control_master.c: 78:         delay_1ms();
  1103  05F5  120A  118A  2146  120A  118A  	fcall	_delay_1ms
  1104  05FA                     l1747:	
  1105                           
  1106                           ;control_master.c: 79:         lcd8_setCursor(1,4);
  1107  05FA  3004               	movlw	4
  1108  05FB  1283               	bcf	3,5	;RP0=0, select bank0
  1109  05FC  1303               	bcf	3,6	;RP1=0, select bank0
  1110  05FD  00C5               	movwf	??_main
  1111  05FE  0845               	movf	??_main,w
  1112  05FF  00F3               	movwf	lcd8_setCursor@columna
  1113  0600  3001               	movlw	1
  1114  0601  120A  118A  215C  120A  118A  	fcall	_lcd8_setCursor
  1115  0606                     l1749:	
  1116                           
  1117                           ;control_master.c: 80:         delay_1ms();
  1118  0606  120A  118A  2146  120A  118A  	fcall	_delay_1ms
  1119  060B                     l1751:	
  1120                           
  1121                           ;control_master.c: 81:         lcd8_dispString("cm");
  1122  060B  3004               	movlw	(low ((STR_2-__stringbase)| (0+32768)))& (0+255)
  1123  060C  120A  118A  2178  120A  118A  	fcall	_lcd8_dispString
  1124  0611  2D0F               	goto	l1707
  1125  0612  120A  118A  2800   	ljmp	start
  1126  0615                     __end_of_main:	
  1127                           
  1128                           	psect	text1
  1129  00F7                     __ptext1:	
  1130 ;; *************** function _setup *****************
  1131 ;; Defined at:
  1132 ;;		line 86 in file "control_master.c"
  1133 ;; Parameters:    Size  Location     Type
  1134 ;;		None
  1135 ;; Auto vars:     Size  Location     Type
  1136 ;;		None
  1137 ;; Return value:  Size  Location     Type
  1138 ;;                  1    wreg      void 
  1139 ;; Registers used:
  1140 ;;		status,2
  1141 ;; Tracked objects:
  1142 ;;		On entry : 0/0
  1143 ;;		On exit  : 0/0
  1144 ;;		Unchanged: 0/0
  1145 ;; Data sizes:     COMMON   BANK0   BANK1   BANK3   BANK2
  1146 ;;      Params:         0       0       0       0       0
  1147 ;;      Locals:         0       0       0       0       0
  1148 ;;      Temps:          0       0       0       0       0
  1149 ;;      Totals:         0       0       0       0       0
  1150 ;;Total ram usage:        0 bytes
  1151 ;; Hardware stack levels used:    1
  1152 ;; This function calls:
  1153 ;;		Nothing
  1154 ;; This function is called by:
  1155 ;;		_main
  1156 ;; This function uses a non-reentrant model
  1157 ;;
  1158                           
  1159                           
  1160                           ;psect for function _setup
  1161  00F7                     _setup:	
  1162  00F7                     l1333:	
  1163                           ;incstack = 0
  1164                           ; Regs used in _setup: [status,2]
  1165                           
  1166                           
  1167                           ;control_master.c: 87:     TRISA = 0x00;
  1168  00F7  1683               	bsf	3,5	;RP0=1, select bank1
  1169  00F8  1303               	bcf	3,6	;RP1=0, select bank1
  1170  00F9  0185               	clrf	5	;volatile
  1171                           
  1172                           ;control_master.c: 88:     TRISE = 0;
  1173  00FA  0189               	clrf	9	;volatile
  1174                           
  1175                           ;control_master.c: 89:     ANSEL = 0;
  1176  00FB  1683               	bsf	3,5	;RP0=1, select bank3
  1177  00FC  1703               	bsf	3,6	;RP1=1, select bank3
  1178  00FD  0188               	clrf	8	;volatile
  1179                           
  1180                           ;control_master.c: 90:     ANSELH = 0;
  1181  00FE  0189               	clrf	9	;volatile
  1182  00FF                     l53:	
  1183  00FF  0008               	return
  1184  0100                     __end_of_setup:	
  1185                           
  1186                           	psect	text2
  1187  0345                     __ptext2:	
  1188 ;; *************** function _oscInit *****************
  1189 ;; Defined at:
  1190 ;;		line 11 in file "OSCCON.c"
  1191 ;; Parameters:    Size  Location     Type
  1192 ;;  freq            1    wreg     unsigned char 
  1193 ;; Auto vars:     Size  Location     Type
  1194 ;;  freq            1    2[COMMON] unsigned char 
  1195 ;; Return value:  Size  Location     Type
  1196 ;;                  1    wreg      unsigned char 
  1197 ;; Registers used:
  1198 ;;		wreg, fsr0l, fsr0h, status,2, status,0
  1199 ;; Tracked objects:
  1200 ;;		On entry : 0/0
  1201 ;;		On exit  : 0/0
  1202 ;;		Unchanged: 0/0
  1203 ;; Data sizes:     COMMON   BANK0   BANK1   BANK3   BANK2
  1204 ;;      Params:         0       0       0       0       0
  1205 ;;      Locals:         1       0       0       0       0
  1206 ;;      Temps:          2       0       0       0       0
  1207 ;;      Totals:         3       0       0       0       0
  1208 ;;Total ram usage:        3 bytes
  1209 ;; Hardware stack levels used:    1
  1210 ;; This function calls:
  1211 ;;		Nothing
  1212 ;; This function is called by:
  1213 ;;		_main
  1214 ;; This function uses a non-reentrant model
  1215 ;;
  1216                           
  1217                           
  1218                           ;psect for function _oscInit
  1219  0345                     _oscInit:	
  1220                           
  1221                           ;incstack = 0
  1222                           ; Regs used in _oscInit: [wreg-fsr0h+status,2+status,0]
  1223                           ;oscInit@freq stored from wreg
  1224  0345  00F2               	movwf	oscInit@freq
  1225  0346                     l1335:	
  1226                           
  1227                           ;OSCCON.c: 12:     switch(freq){
  1228  0346  2B97               	goto	l1339
  1229  0347                     l150:	
  1230                           ;OSCCON.c: 13:         case 0:
  1231                           
  1232                           
  1233                           ;OSCCON.c: 14:             OSCCONbits.IRCF2 = 1;
  1234  0347  1683               	bsf	3,5	;RP0=1, select bank1
  1235  0348  1303               	bcf	3,6	;RP1=0, select bank1
  1236  0349  170F               	bsf	15,6	;volatile
  1237                           
  1238                           ;OSCCON.c: 15:             OSCCONbits.IRCF1 = 1;
  1239  034A  168F               	bsf	15,5	;volatile
  1240                           
  1241                           ;OSCCON.c: 16:             OSCCONbits.IRCF0 = 1;
  1242  034B  160F               	bsf	15,4	;volatile
  1243                           
  1244                           ;OSCCON.c: 17:             OSCCONbits.OSTS = 0;
  1245  034C  118F               	bcf	15,3	;volatile
  1246                           
  1247                           ;OSCCON.c: 18:             OSCCONbits.HTS = 1;
  1248  034D  150F               	bsf	15,2	;volatile
  1249                           
  1250                           ;OSCCON.c: 19:             OSCCONbits.LTS = 0;
  1251  034E  108F               	bcf	15,1	;volatile
  1252                           
  1253                           ;OSCCON.c: 20:             OSCCONbits.SCS = 1;
  1254  034F  140F               	bsf	15,0	;volatile
  1255                           
  1256                           ;OSCCON.c: 21:             break;
  1257  0350  2BB9               	goto	l159
  1258  0351                     l152:	
  1259                           ;OSCCON.c: 22:         case 1:
  1260                           
  1261                           
  1262                           ;OSCCON.c: 23:             OSCCONbits.IRCF2 = 1;
  1263  0351  1683               	bsf	3,5	;RP0=1, select bank1
  1264  0352  1303               	bcf	3,6	;RP1=0, select bank1
  1265  0353  170F               	bsf	15,6	;volatile
  1266                           
  1267                           ;OSCCON.c: 24:             OSCCONbits.IRCF1 = 1;
  1268  0354  168F               	bsf	15,5	;volatile
  1269                           
  1270                           ;OSCCON.c: 25:             OSCCONbits.IRCF0 = 0;
  1271  0355  120F               	bcf	15,4	;volatile
  1272                           
  1273                           ;OSCCON.c: 26:             OSCCONbits.OSTS = 0;
  1274  0356  118F               	bcf	15,3	;volatile
  1275                           
  1276                           ;OSCCON.c: 27:             OSCCONbits.HTS = 1;
  1277  0357  150F               	bsf	15,2	;volatile
  1278                           
  1279                           ;OSCCON.c: 28:             OSCCONbits.LTS = 0;
  1280  0358  108F               	bcf	15,1	;volatile
  1281                           
  1282                           ;OSCCON.c: 29:             OSCCONbits.SCS = 1;
  1283  0359  140F               	bsf	15,0	;volatile
  1284                           
  1285                           ;OSCCON.c: 30:             break;
  1286  035A  2BB9               	goto	l159
  1287  035B                     l153:	
  1288                           ;OSCCON.c: 31:         case 2:
  1289                           
  1290                           
  1291                           ;OSCCON.c: 32:             OSCCONbits.IRCF2 = 1;
  1292  035B  1683               	bsf	3,5	;RP0=1, select bank1
  1293  035C  1303               	bcf	3,6	;RP1=0, select bank1
  1294  035D  170F               	bsf	15,6	;volatile
  1295                           
  1296                           ;OSCCON.c: 33:             OSCCONbits.IRCF1 = 0;
  1297  035E  128F               	bcf	15,5	;volatile
  1298                           
  1299                           ;OSCCON.c: 34:             OSCCONbits.IRCF0 = 1;
  1300  035F  160F               	bsf	15,4	;volatile
  1301                           
  1302                           ;OSCCON.c: 35:             OSCCONbits.OSTS = 0;
  1303  0360  118F               	bcf	15,3	;volatile
  1304                           
  1305                           ;OSCCON.c: 36:             OSCCONbits.HTS = 1;
  1306  0361  150F               	bsf	15,2	;volatile
  1307                           
  1308                           ;OSCCON.c: 37:             OSCCONbits.LTS = 0;
  1309  0362  108F               	bcf	15,1	;volatile
  1310                           
  1311                           ;OSCCON.c: 38:             OSCCONbits.SCS = 1;
  1312  0363  140F               	bsf	15,0	;volatile
  1313                           
  1314                           ;OSCCON.c: 39:             break;
  1315  0364  2BB9               	goto	l159
  1316  0365                     l154:	
  1317                           ;OSCCON.c: 40:         case 3:
  1318                           
  1319                           
  1320                           ;OSCCON.c: 41:             OSCCONbits.IRCF2 = 1;
  1321  0365  1683               	bsf	3,5	;RP0=1, select bank1
  1322  0366  1303               	bcf	3,6	;RP1=0, select bank1
  1323  0367  170F               	bsf	15,6	;volatile
  1324                           
  1325                           ;OSCCON.c: 42:             OSCCONbits.IRCF1 = 0;
  1326  0368  128F               	bcf	15,5	;volatile
  1327                           
  1328                           ;OSCCON.c: 43:             OSCCONbits.IRCF0 = 0;
  1329  0369  120F               	bcf	15,4	;volatile
  1330                           
  1331                           ;OSCCON.c: 44:             OSCCONbits.OSTS = 0;
  1332  036A  118F               	bcf	15,3	;volatile
  1333                           
  1334                           ;OSCCON.c: 45:             OSCCONbits.HTS = 1;
  1335  036B  150F               	bsf	15,2	;volatile
  1336                           
  1337                           ;OSCCON.c: 46:             OSCCONbits.LTS = 0;
  1338  036C  108F               	bcf	15,1	;volatile
  1339                           
  1340                           ;OSCCON.c: 47:             OSCCONbits.SCS = 1;
  1341  036D  140F               	bsf	15,0	;volatile
  1342                           
  1343                           ;OSCCON.c: 48:             break;
  1344  036E  2BB9               	goto	l159
  1345  036F                     l155:	
  1346                           ;OSCCON.c: 49:         case 4:
  1347                           
  1348                           
  1349                           ;OSCCON.c: 50:             OSCCONbits.IRCF2 = 0;
  1350  036F  1683               	bsf	3,5	;RP0=1, select bank1
  1351  0370  1303               	bcf	3,6	;RP1=0, select bank1
  1352  0371  130F               	bcf	15,6	;volatile
  1353                           
  1354                           ;OSCCON.c: 51:             OSCCONbits.IRCF1 = 1;
  1355  0372  168F               	bsf	15,5	;volatile
  1356                           
  1357                           ;OSCCON.c: 52:             OSCCONbits.IRCF0 = 1;
  1358  0373  160F               	bsf	15,4	;volatile
  1359                           
  1360                           ;OSCCON.c: 53:             OSCCONbits.OSTS = 0;
  1361  0374  118F               	bcf	15,3	;volatile
  1362                           
  1363                           ;OSCCON.c: 54:             OSCCONbits.HTS = 1;
  1364  0375  150F               	bsf	15,2	;volatile
  1365                           
  1366                           ;OSCCON.c: 55:             OSCCONbits.LTS = 0;
  1367  0376  108F               	bcf	15,1	;volatile
  1368                           
  1369                           ;OSCCON.c: 56:             OSCCONbits.SCS = 1;
  1370  0377  140F               	bsf	15,0	;volatile
  1371                           
  1372                           ;OSCCON.c: 57:             break;
  1373  0378  2BB9               	goto	l159
  1374  0379                     l156:	
  1375                           ;OSCCON.c: 58:         case 5:
  1376                           
  1377                           
  1378                           ;OSCCON.c: 59:             OSCCONbits.IRCF2 = 0;
  1379  0379  1683               	bsf	3,5	;RP0=1, select bank1
  1380  037A  1303               	bcf	3,6	;RP1=0, select bank1
  1381  037B  130F               	bcf	15,6	;volatile
  1382                           
  1383                           ;OSCCON.c: 60:             OSCCONbits.IRCF1 = 1;
  1384  037C  168F               	bsf	15,5	;volatile
  1385                           
  1386                           ;OSCCON.c: 61:             OSCCONbits.IRCF0 = 0;
  1387  037D  120F               	bcf	15,4	;volatile
  1388                           
  1389                           ;OSCCON.c: 62:             OSCCONbits.OSTS = 0;
  1390  037E  118F               	bcf	15,3	;volatile
  1391                           
  1392                           ;OSCCON.c: 63:             OSCCONbits.HTS = 1;
  1393  037F  150F               	bsf	15,2	;volatile
  1394                           
  1395                           ;OSCCON.c: 64:             OSCCONbits.LTS = 0;
  1396  0380  108F               	bcf	15,1	;volatile
  1397                           
  1398                           ;OSCCON.c: 65:             OSCCONbits.SCS = 1;
  1399  0381  140F               	bsf	15,0	;volatile
  1400                           
  1401                           ;OSCCON.c: 66:             break;
  1402  0382  2BB9               	goto	l159
  1403  0383                     l157:	
  1404                           ;OSCCON.c: 67:         case 6:
  1405                           
  1406                           
  1407                           ;OSCCON.c: 68:             OSCCONbits.IRCF2 = 0;
  1408  0383  1683               	bsf	3,5	;RP0=1, select bank1
  1409  0384  1303               	bcf	3,6	;RP1=0, select bank1
  1410  0385  130F               	bcf	15,6	;volatile
  1411                           
  1412                           ;OSCCON.c: 69:             OSCCONbits.IRCF1 = 0;
  1413  0386  128F               	bcf	15,5	;volatile
  1414                           
  1415                           ;OSCCON.c: 70:             OSCCONbits.IRCF0 = 1;
  1416  0387  160F               	bsf	15,4	;volatile
  1417                           
  1418                           ;OSCCON.c: 71:             OSCCONbits.OSTS = 0;
  1419  0388  118F               	bcf	15,3	;volatile
  1420                           
  1421                           ;OSCCON.c: 72:             OSCCONbits.HTS = 1;
  1422  0389  150F               	bsf	15,2	;volatile
  1423                           
  1424                           ;OSCCON.c: 73:             OSCCONbits.LTS = 0;
  1425  038A  108F               	bcf	15,1	;volatile
  1426                           
  1427                           ;OSCCON.c: 74:             OSCCONbits.SCS = 1;
  1428  038B  140F               	bsf	15,0	;volatile
  1429                           
  1430                           ;OSCCON.c: 75:             break;
  1431  038C  2BB9               	goto	l159
  1432  038D                     l158:	
  1433                           ;OSCCON.c: 76:         case 7:
  1434                           
  1435                           
  1436                           ;OSCCON.c: 77:             OSCCONbits.IRCF2 = 0;
  1437  038D  1683               	bsf	3,5	;RP0=1, select bank1
  1438  038E  1303               	bcf	3,6	;RP1=0, select bank1
  1439  038F  130F               	bcf	15,6	;volatile
  1440                           
  1441                           ;OSCCON.c: 78:             OSCCONbits.IRCF1 = 0;
  1442  0390  128F               	bcf	15,5	;volatile
  1443                           
  1444                           ;OSCCON.c: 79:             OSCCONbits.IRCF0 = 0;
  1445  0391  120F               	bcf	15,4	;volatile
  1446                           
  1447                           ;OSCCON.c: 80:             OSCCONbits.OSTS = 0;
  1448  0392  118F               	bcf	15,3	;volatile
  1449                           
  1450                           ;OSCCON.c: 81:             OSCCONbits.HTS = 0;
  1451  0393  110F               	bcf	15,2	;volatile
  1452                           
  1453                           ;OSCCON.c: 82:             OSCCONbits.LTS = 1;
  1454  0394  148F               	bsf	15,1	;volatile
  1455                           
  1456                           ;OSCCON.c: 83:             OSCCONbits.SCS = 1;
  1457  0395  140F               	bsf	15,0	;volatile
  1458                           
  1459                           ;OSCCON.c: 84:             break;
  1460  0396  2BB9               	goto	l159
  1461  0397                     l1339:	
  1462  0397  0872               	movf	oscInit@freq,w
  1463  0398  00F0               	movwf	??_oscInit
  1464  0399  01F1               	clrf	??_oscInit+1
  1465                           
  1466                           ; Switch on 2 bytes has been partitioned into a top level switch of size 1, and 1 sub-sw
      +                          itches
  1467                           ; Switch size 1, requested type "simple"
  1468                           ; Number of cases is 1, Range of values is 0 to 0
  1469                           ; switch strategies available:
  1470                           ; Name         Instructions Cycles
  1471                           ; simple_byte            4     3 (average)
  1472                           ; direct_byte           11     8 (fixed)
  1473                           ; jumptable            260     6 (fixed)
  1474                           ;	Chosen strategy is simple_byte
  1475  039A  0871               	movf	??_oscInit+1,w
  1476  039B  3A00               	xorlw	0	; case 0
  1477  039C  1903               	skipnz
  1478  039D  2B9F               	goto	l1777
  1479  039E  2BB9               	goto	l159
  1480  039F                     l1777:	
  1481                           
  1482                           ; Switch size 1, requested type "simple"
  1483                           ; Number of cases is 8, Range of values is 0 to 7
  1484                           ; switch strategies available:
  1485                           ; Name         Instructions Cycles
  1486                           ; simple_byte           25    13 (average)
  1487                           ; direct_byte           32     8 (fixed)
  1488                           ; jumptable            260     6 (fixed)
  1489                           ;	Chosen strategy is simple_byte
  1490  039F  0870               	movf	??_oscInit,w
  1491  03A0  3A00               	xorlw	0	; case 0
  1492  03A1  1903               	skipnz
  1493  03A2  2B47               	goto	l150
  1494  03A3  3A01               	xorlw	1	; case 1
  1495  03A4  1903               	skipnz
  1496  03A5  2B51               	goto	l152
  1497  03A6  3A03               	xorlw	3	; case 2
  1498  03A7  1903               	skipnz
  1499  03A8  2B5B               	goto	l153
  1500  03A9  3A01               	xorlw	1	; case 3
  1501  03AA  1903               	skipnz
  1502  03AB  2B65               	goto	l154
  1503  03AC  3A07               	xorlw	7	; case 4
  1504  03AD  1903               	skipnz
  1505  03AE  2B6F               	goto	l155
  1506  03AF  3A01               	xorlw	1	; case 5
  1507  03B0  1903               	skipnz
  1508  03B1  2B79               	goto	l156
  1509  03B2  3A03               	xorlw	3	; case 6
  1510  03B3  1903               	skipnz
  1511  03B4  2B83               	goto	l157
  1512  03B5  3A01               	xorlw	1	; case 7
  1513  03B6  1903               	skipnz
  1514  03B7  2B8D               	goto	l158
  1515  03B8  2BB9               	goto	l159
  1516  03B9                     l159:	
  1517  03B9  0008               	return
  1518  03BA                     __end_of_oscInit:	
  1519                           
  1520                           	psect	text3
  1521  015C                     __ptext3:	
  1522 ;; *************** function _lcd8_setCursor *****************
  1523 ;; Defined at:
  1524 ;;		line 62 in file "LCD.c"
  1525 ;; Parameters:    Size  Location     Type
  1526 ;;  fila            1    wreg     unsigned char 
  1527 ;;  columna         1    3[COMMON] unsigned char 
  1528 ;; Auto vars:     Size  Location     Type
  1529 ;;  fila            1    4[COMMON] unsigned char 
  1530 ;; Return value:  Size  Location     Type
  1531 ;;                  1    wreg      void 
  1532 ;; Registers used:
  1533 ;;		wreg, status,2, status,0, btemp+1, pclath, cstack
  1534 ;; Tracked objects:
  1535 ;;		On entry : 0/0
  1536 ;;		On exit  : 0/0
  1537 ;;		Unchanged: 0/0
  1538 ;; Data sizes:     COMMON   BANK0   BANK1   BANK3   BANK2
  1539 ;;      Params:         1       0       0       0       0
  1540 ;;      Locals:         1       0       0       0       0
  1541 ;;      Temps:          0       0       0       0       0
  1542 ;;      Totals:         2       0       0       0       0
  1543 ;;Total ram usage:        2 bytes
  1544 ;; Hardware stack levels used:    1
  1545 ;; Hardware stack levels required when called:    2
  1546 ;; This function calls:
  1547 ;;		_lcd8_cmd
  1548 ;; This function is called by:
  1549 ;;		_main
  1550 ;; This function uses a non-reentrant model
  1551 ;;
  1552                           
  1553                           
  1554                           ;psect for function _lcd8_setCursor
  1555  015C                     _lcd8_setCursor:	
  1556                           
  1557                           ;incstack = 0
  1558                           ; Regs used in _lcd8_setCursor: [wreg+status,2+status,0+btemp+1+pclath+cstack]
  1559                           ;lcd8_setCursor@fila stored from wreg
  1560  015C  00F4               	movwf	lcd8_setCursor@fila
  1561  015D                     l1411:	
  1562                           
  1563                           ;LCD.c: 63:     if (fila == 1){
  1564  015D  0374               	decf	lcd8_setCursor@fila,w
  1565  015E  1D03               	btfss	3,2
  1566  015F  2961               	goto	u961
  1567  0160  2962               	goto	u960
  1568  0161                     u961:	
  1569  0161  296A               	goto	l1415
  1570  0162                     u960:	
  1571  0162                     l1413:	
  1572                           
  1573                           ;LCD.c: 64:         lcd8_cmd(0x80 + columna);
  1574  0162  0873               	movf	lcd8_setCursor@columna,w
  1575  0163  3E80               	addlw	128
  1576  0164  120A  118A  2135  120A  118A  	fcall	_lcd8_cmd
  1577                           
  1578                           ;LCD.c: 65:     }
  1579  0169  2977               	goto	l139
  1580  016A                     l1415:	
  1581  016A  3002               	movlw	2
  1582  016B  0674               	xorwf	lcd8_setCursor@fila,w
  1583  016C  1D03               	btfss	3,2
  1584  016D  296F               	goto	u971
  1585  016E  2970               	goto	u970
  1586  016F                     u971:	
  1587  016F  2977               	goto	l139
  1588  0170                     u970:	
  1589  0170                     l1417:	
  1590                           
  1591                           ;LCD.c: 67:         lcd8_cmd(0xC0 + columna);
  1592  0170  0873               	movf	lcd8_setCursor@columna,w
  1593  0171  3EC0               	addlw	192
  1594  0172  120A  118A  2135  120A  118A  	fcall	_lcd8_cmd
  1595  0177                     l139:	
  1596  0177  0008               	return
  1597  0178                     __end_of_lcd8_setCursor:	
  1598                           
  1599                           	psect	text4
  1600  0289                     __ptext4:	
  1601 ;; *************** function _lcd8_init *****************
  1602 ;; Defined at:
  1603 ;;		line 18 in file "LCD.c"
  1604 ;; Parameters:    Size  Location     Type
  1605 ;;		None
  1606 ;; Auto vars:     Size  Location     Type
  1607 ;;		None
  1608 ;; Return value:  Size  Location     Type
  1609 ;;                  1    wreg      void 
  1610 ;; Registers used:
  1611 ;;		wreg, status,2, status,0, btemp+1, pclath, cstack
  1612 ;; Tracked objects:
  1613 ;;		On entry : 0/0
  1614 ;;		On exit  : 0/0
  1615 ;;		Unchanged: 0/0
  1616 ;; Data sizes:     COMMON   BANK0   BANK1   BANK3   BANK2
  1617 ;;      Params:         0       0       0       0       0
  1618 ;;      Locals:         0       0       0       0       0
  1619 ;;      Temps:          2       0       0       0       0
  1620 ;;      Totals:         2       0       0       0       0
  1621 ;;Total ram usage:        2 bytes
  1622 ;; Hardware stack levels used:    1
  1623 ;; Hardware stack levels required when called:    2
  1624 ;; This function calls:
  1625 ;;		_lcd8_cmd
  1626 ;; This function is called by:
  1627 ;;		_main
  1628 ;; This function uses a non-reentrant model
  1629 ;;
  1630                           
  1631                           
  1632                           ;psect for function _lcd8_init
  1633  0289                     _lcd8_init:	
  1634  0289                     l1357:	
  1635                           ;incstack = 0
  1636                           ; Regs used in _lcd8_init: [wreg+status,2+status,0+btemp+1+pclath+cstack]
  1637                           
  1638                           
  1639                           ;LCD.c: 19:     _delay((unsigned long)((20)*(4000000/4000.0)));
  1640  0289  301A               	movlw	26
  1641  028A  00F4               	movwf	??_lcd8_init+1
  1642  028B  30F8               	movlw	248
  1643  028C  00F3               	movwf	??_lcd8_init
  1644  028D                     u1667:	
  1645  028D  0BF3               	decfsz	??_lcd8_init,f
  1646  028E  2A8D               	goto	u1667
  1647  028F  0BF4               	decfsz	??_lcd8_init+1,f
  1648  0290  2A8D               	goto	u1667
  1649  0291  0000               	nop
  1650  0292                     l1359:	
  1651                           
  1652                           ;LCD.c: 20:     lcd8_cmd(0x30);
  1653  0292  3030               	movlw	48
  1654  0293  120A  118A  2135  120A  118A  	fcall	_lcd8_cmd
  1655  0298                     l1361:	
  1656                           
  1657                           ;LCD.c: 21:     _delay((unsigned long)((5)*(4000000/4000.0)));
  1658  0298  3007               	movlw	7
  1659  0299  00F4               	movwf	??_lcd8_init+1
  1660  029A  307D               	movlw	125
  1661  029B  00F3               	movwf	??_lcd8_init
  1662  029C                     u1677:	
  1663  029C  0BF3               	decfsz	??_lcd8_init,f
  1664  029D  2A9C               	goto	u1677
  1665  029E  0BF4               	decfsz	??_lcd8_init+1,f
  1666  029F  2A9C               	goto	u1677
  1667                           
  1668                           ;LCD.c: 22:     lcd8_cmd(0x30);
  1669  02A0  3030               	movlw	48
  1670  02A1  120A  118A  2135  120A  118A  	fcall	_lcd8_cmd
  1671  02A6                     l1363:	
  1672                           
  1673                           ;LCD.c: 23:     _delay((unsigned long)((1)*(4000000/4000.0)));
  1674  02A6  30C7               	movlw	199
  1675  02A7  00F3               	movwf	??_lcd8_init
  1676  02A8                     u1687:	
  1677  02A8  2AA9               	nop2
  1678  02A9  0BF3               	decfsz	??_lcd8_init,f
  1679  02AA  2AA8               	goto	u1687
  1680  02AB  2AAC               	nop2
  1681  02AC  2AAD               	nop2
  1682  02AD                     l1365:	
  1683                           
  1684                           ;LCD.c: 24:     lcd8_cmd(0x30);
  1685  02AD  3030               	movlw	48
  1686  02AE  120A  118A  2135  120A  118A  	fcall	_lcd8_cmd
  1687                           
  1688                           ;LCD.c: 25:     _delay((unsigned long)((1)*(4000000/4000.0)));
  1689  02B3  30C7               	movlw	199
  1690  02B4  00F3               	movwf	??_lcd8_init
  1691  02B5                     u1697:	
  1692  02B5  2AB6               	nop2
  1693  02B6  0BF3               	decfsz	??_lcd8_init,f
  1694  02B7  2AB5               	goto	u1697
  1695  02B8  2AB9               	nop2
  1696  02B9  2ABA               	nop2
  1697  02BA                     l1367:	
  1698                           
  1699                           ;LCD.c: 26:     lcd8_cmd(0x38);
  1700  02BA  3038               	movlw	56
  1701  02BB  120A  118A  2135  120A  118A  	fcall	_lcd8_cmd
  1702  02C0                     l1369:	
  1703                           
  1704                           ;LCD.c: 27:     lcd8_cmd(0x10);
  1705  02C0  3010               	movlw	16
  1706  02C1  120A  118A  2135  120A  118A  	fcall	_lcd8_cmd
  1707  02C6                     l1371:	
  1708                           
  1709                           ;LCD.c: 28:     lcd8_cmd(0x01);
  1710  02C6  3001               	movlw	1
  1711  02C7  120A  118A  2135  120A  118A  	fcall	_lcd8_cmd
  1712  02CC                     l1373:	
  1713                           
  1714                           ;LCD.c: 29:     lcd8_cmd(0x06);
  1715  02CC  3006               	movlw	6
  1716  02CD  120A  118A  2135  120A  118A  	fcall	_lcd8_cmd
  1717  02D2                     l1375:	
  1718                           
  1719                           ;LCD.c: 30:     lcd8_cmd(0x0C);
  1720  02D2  300C               	movlw	12
  1721  02D3  120A  118A  2135  120A  118A  	fcall	_lcd8_cmd
  1722  02D8                     l1377:	
  1723                           
  1724                           ;LCD.c: 31:     lcd8_cmd(0x80);
  1725  02D8  3080               	movlw	128
  1726  02D9  120A  118A  2135  120A  118A  	fcall	_lcd8_cmd
  1727  02DE                     l118:	
  1728  02DE  0008               	return
  1729  02DF                     __end_of_lcd8_init:	
  1730                           
  1731                           	psect	text5
  1732  0135                     __ptext5:	
  1733 ;; *************** function _lcd8_cmd *****************
  1734 ;; Defined at:
  1735 ;;		line 34 in file "LCD.c"
  1736 ;; Parameters:    Size  Location     Type
  1737 ;;  cmd             1    wreg     unsigned char 
  1738 ;; Auto vars:     Size  Location     Type
  1739 ;;  cmd             1    2[COMMON] unsigned char 
  1740 ;; Return value:  Size  Location     Type
  1741 ;;                  1    wreg      void 
  1742 ;; Registers used:
  1743 ;;		wreg, status,2, status,0, btemp+1, pclath, cstack
  1744 ;; Tracked objects:
  1745 ;;		On entry : 0/0
  1746 ;;		On exit  : 0/0
  1747 ;;		Unchanged: 0/0
  1748 ;; Data sizes:     COMMON   BANK0   BANK1   BANK3   BANK2
  1749 ;;      Params:         0       0       0       0       0
  1750 ;;      Locals:         1       0       0       0       0
  1751 ;;      Temps:          0       0       0       0       0
  1752 ;;      Totals:         1       0       0       0       0
  1753 ;;Total ram usage:        1 bytes
  1754 ;; Hardware stack levels used:    1
  1755 ;; Hardware stack levels required when called:    1
  1756 ;; This function calls:
  1757 ;;		_delay_1ms
  1758 ;; This function is called by:
  1759 ;;		_lcd8_init
  1760 ;;		_lcd8_setCursor
  1761 ;; This function uses a non-reentrant model
  1762 ;;
  1763                           
  1764                           
  1765                           ;psect for function _lcd8_cmd
  1766  0135                     _lcd8_cmd:	
  1767                           
  1768                           ;incstack = 0
  1769                           ; Regs used in _lcd8_cmd: [wreg+status,2+status,0+btemp+1+pclath+cstack]
  1770                           ;lcd8_cmd@cmd stored from wreg
  1771  0135  00F2               	movwf	lcd8_cmd@cmd
  1772  0136                     l1285:	
  1773                           
  1774                           ;LCD.c: 35:     PORTA = cmd;
  1775  0136  0872               	movf	lcd8_cmd@cmd,w
  1776  0137  1283               	bcf	3,5	;RP0=0, select bank0
  1777  0138  1303               	bcf	3,6	;RP1=0, select bank0
  1778  0139  0085               	movwf	5	;volatile
  1779  013A                     l1287:	
  1780                           
  1781                           ;LCD.c: 36:     PORTEbits.RE0 = 0;
  1782  013A  1009               	bcf	9,0	;volatile
  1783  013B                     l1289:	
  1784                           
  1785                           ;LCD.c: 37:     PORTEbits.RE1 = 0;
  1786  013B  1089               	bcf	9,1	;volatile
  1787  013C                     l1291:	
  1788                           
  1789                           ;LCD.c: 38:     PORTEbits.RE2 = 1;
  1790  013C  1509               	bsf	9,2	;volatile
  1791  013D                     l1293:	
  1792                           
  1793                           ;LCD.c: 39:     delay_1ms();
  1794  013D  120A  118A  2146  120A  118A  	fcall	_delay_1ms
  1795  0142                     l1295:	
  1796                           
  1797                           ;LCD.c: 40:     PORTEbits.RE2 = 0;
  1798  0142  1283               	bcf	3,5	;RP0=0, select bank0
  1799  0143  1303               	bcf	3,6	;RP1=0, select bank0
  1800  0144  1109               	bcf	9,2	;volatile
  1801  0145                     l121:	
  1802  0145  0008               	return
  1803  0146                     __end_of_lcd8_cmd:	
  1804                           
  1805                           	psect	text6
  1806  0178                     __ptext6:	
  1807 ;; *************** function _lcd8_dispString *****************
  1808 ;; Defined at:
  1809 ;;		line 52 in file "LCD.c"
  1810 ;; Parameters:    Size  Location     Type
  1811 ;;  value           1    wreg     PTR unsigned char 
  1812 ;;		 -> STR_2(3), STR_1(3), 
  1813 ;; Auto vars:     Size  Location     Type
  1814 ;;  value           1    6[COMMON] PTR unsigned char 
  1815 ;;		 -> STR_2(3), STR_1(3), 
  1816 ;; Return value:  Size  Location     Type
  1817 ;;                  1    wreg      void 
  1818 ;; Registers used:
  1819 ;;		wreg, fsr0l, fsr0h, status,2, status,0, btemp+1, pclath, cstack
  1820 ;; Tracked objects:
  1821 ;;		On entry : 0/0
  1822 ;;		On exit  : 0/0
  1823 ;;		Unchanged: 0/0
  1824 ;; Data sizes:     COMMON   BANK0   BANK1   BANK3   BANK2
  1825 ;;      Params:         0       0       0       0       0
  1826 ;;      Locals:         1       0       0       0       0
  1827 ;;      Temps:          2       0       0       0       0
  1828 ;;      Totals:         3       0       0       0       0
  1829 ;;Total ram usage:        3 bytes
  1830 ;; Hardware stack levels used:    1
  1831 ;; Hardware stack levels required when called:    2
  1832 ;; This function calls:
  1833 ;;		_lcd8_write
  1834 ;; This function is called by:
  1835 ;;		_main
  1836 ;; This function uses a non-reentrant model
  1837 ;;
  1838                           
  1839                           
  1840                           ;psect for function _lcd8_dispString
  1841  0178                     _lcd8_dispString:	
  1842                           
  1843                           ;incstack = 0
  1844                           ; Regs used in _lcd8_dispString: [wreg-fsr0h+status,2+status,0+btemp+1+pclath+cstack]
  1845                           ;lcd8_dispString@value stored from wreg
  1846  0178  00F6               	movwf	lcd8_dispString@value
  1847  0179                     l1419:	
  1848                           
  1849                           ;LCD.c: 53:     while(*value){
  1850  0179  2990               	goto	l1425
  1851  017A                     l1421:	
  1852                           
  1853                           ;LCD.c: 54:         lcd8_write(*value++);
  1854  017A  0876               	movf	lcd8_dispString@value,w
  1855  017B  0084               	movwf	4
  1856  017C  120A  118A  2003  120A  118A  	fcall	stringdir
  1857  0181  00F4               	movwf	??_lcd8_dispString
  1858  0182  01F5               	clrf	??_lcd8_dispString+1
  1859  0183  0874               	movf	??_lcd8_dispString,w
  1860  0184  00F2               	movwf	lcd8_write@dat
  1861  0185  0875               	movf	??_lcd8_dispString+1,w
  1862  0186  00F3               	movwf	lcd8_write@dat+1
  1863  0187  120A  118A  2125  120A  118A  	fcall	_lcd8_write
  1864  018C                     l1423:	
  1865  018C  3001               	movlw	1
  1866  018D  00F4               	movwf	??_lcd8_dispString
  1867  018E  0874               	movf	??_lcd8_dispString,w
  1868  018F  07F6               	addwf	lcd8_dispString@value,f
  1869  0190                     l1425:	
  1870                           
  1871                           ;LCD.c: 53:     while(*value){
  1872  0190  0876               	movf	lcd8_dispString@value,w
  1873  0191  0084               	movwf	4
  1874  0192  120A  118A  2003  120A  118A  	fcall	stringdir
  1875  0197  3A00               	xorlw	0
  1876  0198  1D03               	skipz
  1877  0199  299B               	goto	u981
  1878  019A  299C               	goto	u980
  1879  019B                     u981:	
  1880  019B  297A               	goto	l1421
  1881  019C                     u980:	
  1882  019C                     l130:	
  1883  019C  0008               	return
  1884  019D                     __end_of_lcd8_dispString:	
  1885                           
  1886                           	psect	text7
  1887  0117                     __ptext7:	
  1888 ;; *************** function _lcd8_dispChar *****************
  1889 ;; Defined at:
  1890 ;;		line 58 in file "LCD.c"
  1891 ;; Parameters:    Size  Location     Type
  1892 ;;  val_num         1    wreg     unsigned char 
  1893 ;; Auto vars:     Size  Location     Type
  1894 ;;  val_num         1    4[COMMON] unsigned char 
  1895 ;; Return value:  Size  Location     Type
  1896 ;;                  1    wreg      void 
  1897 ;; Registers used:
  1898 ;;		wreg, status,2, status,0, btemp+1, pclath, cstack
  1899 ;; Tracked objects:
  1900 ;;		On entry : 0/0
  1901 ;;		On exit  : 0/0
  1902 ;;		Unchanged: 0/0
  1903 ;; Data sizes:     COMMON   BANK0   BANK1   BANK3   BANK2
  1904 ;;      Params:         0       0       0       0       0
  1905 ;;      Locals:         1       0       0       0       0
  1906 ;;      Temps:          0       0       0       0       0
  1907 ;;      Totals:         1       0       0       0       0
  1908 ;;Total ram usage:        1 bytes
  1909 ;; Hardware stack levels used:    1
  1910 ;; Hardware stack levels required when called:    2
  1911 ;; This function calls:
  1912 ;;		_lcd8_write
  1913 ;; This function is called by:
  1914 ;;		_main
  1915 ;; This function uses a non-reentrant model
  1916 ;;
  1917                           
  1918                           
  1919                           ;psect for function _lcd8_dispChar
  1920  0117                     _lcd8_dispChar:	
  1921                           
  1922                           ;incstack = 0
  1923                           ; Regs used in _lcd8_dispChar: [wreg+status,2+status,0+btemp+1+pclath+cstack]
  1924                           ;lcd8_dispChar@val_num stored from wreg
  1925  0117  00F4               	movwf	lcd8_dispChar@val_num
  1926  0118                     l1427:	
  1927                           
  1928                           ;LCD.c: 59:     lcd8_write(val_num + 0x30);
  1929  0118  0874               	movf	lcd8_dispChar@val_num,w
  1930  0119  3E30               	addlw	48
  1931  011A  00F2               	movwf	lcd8_write@dat
  1932  011B  3000               	movlw	0
  1933  011C  1803               	skipnc
  1934  011D  3001               	movlw	1
  1935  011E  00F3               	movwf	lcd8_write@dat+1
  1936  011F  120A  118A  2125  120A  118A  	fcall	_lcd8_write
  1937  0124                     l133:	
  1938  0124  0008               	return
  1939  0125                     __end_of_lcd8_dispChar:	
  1940                           
  1941                           	psect	text8
  1942  0125                     __ptext8:	
  1943 ;; *************** function _lcd8_write *****************
  1944 ;; Defined at:
  1945 ;;		line 43 in file "LCD.c"
  1946 ;; Parameters:    Size  Location     Type
  1947 ;;  dat             2    2[COMMON] unsigned int 
  1948 ;; Auto vars:     Size  Location     Type
  1949 ;;		None
  1950 ;; Return value:  Size  Location     Type
  1951 ;;                  1    wreg      void 
  1952 ;; Registers used:
  1953 ;;		wreg, status,2, status,0, btemp+1, pclath, cstack
  1954 ;; Tracked objects:
  1955 ;;		On entry : 0/0
  1956 ;;		On exit  : 0/0
  1957 ;;		Unchanged: 0/0
  1958 ;; Data sizes:     COMMON   BANK0   BANK1   BANK3   BANK2
  1959 ;;      Params:         2       0       0       0       0
  1960 ;;      Locals:         0       0       0       0       0
  1961 ;;      Temps:          0       0       0       0       0
  1962 ;;      Totals:         2       0       0       0       0
  1963 ;;Total ram usage:        2 bytes
  1964 ;; Hardware stack levels used:    1
  1965 ;; Hardware stack levels required when called:    1
  1966 ;; This function calls:
  1967 ;;		_delay_1ms
  1968 ;; This function is called by:
  1969 ;;		_lcd8_dispString
  1970 ;;		_lcd8_dispChar
  1971 ;; This function uses a non-reentrant model
  1972 ;;
  1973                           
  1974                           
  1975                           ;psect for function _lcd8_write
  1976  0125                     _lcd8_write:	
  1977  0125                     l1297:	
  1978                           ;incstack = 0
  1979                           ; Regs used in _lcd8_write: [wreg+status,2+status,0+btemp+1+pclath+cstack]
  1980                           
  1981                           
  1982                           ;LCD.c: 44:     PORTA = dat;
  1983  0125  0872               	movf	lcd8_write@dat,w
  1984  0126  1283               	bcf	3,5	;RP0=0, select bank0
  1985  0127  1303               	bcf	3,6	;RP1=0, select bank0
  1986  0128  0085               	movwf	5	;volatile
  1987  0129                     l1299:	
  1988                           
  1989                           ;LCD.c: 45:     PORTEbits.RE0 = 1;
  1990  0129  1409               	bsf	9,0	;volatile
  1991  012A                     l1301:	
  1992                           
  1993                           ;LCD.c: 46:     PORTEbits.RE1 = 0;
  1994  012A  1089               	bcf	9,1	;volatile
  1995  012B                     l1303:	
  1996                           
  1997                           ;LCD.c: 47:     PORTEbits.RE2 = 1;
  1998  012B  1509               	bsf	9,2	;volatile
  1999  012C                     l1305:	
  2000                           
  2001                           ;LCD.c: 48:     delay_1ms();
  2002  012C  120A  118A  2146  120A  118A  	fcall	_delay_1ms
  2003  0131                     l1307:	
  2004                           
  2005                           ;LCD.c: 49:     PORTEbits.RE2 = 0;
  2006  0131  1283               	bcf	3,5	;RP0=0, select bank0
  2007  0132  1303               	bcf	3,6	;RP1=0, select bank0
  2008  0133  1109               	bcf	9,2	;volatile
  2009  0134                     l124:	
  2010  0134  0008               	return
  2011  0135                     __end_of_lcd8_write:	
  2012                           
  2013                           	psect	text9
  2014  0146                     __ptext9:	
  2015 ;; *************** function _delay_1ms *****************
  2016 ;; Defined at:
  2017 ;;		line 71 in file "LCD.c"
  2018 ;; Parameters:    Size  Location     Type
  2019 ;;		None
  2020 ;; Auto vars:     Size  Location     Type
  2021 ;;  i               2    0[COMMON] int 
  2022 ;; Return value:  Size  Location     Type
  2023 ;;                  1    wreg      void 
  2024 ;; Registers used:
  2025 ;;		wreg, status,2, btemp+1
  2026 ;; Tracked objects:
  2027 ;;		On entry : 0/0
  2028 ;;		On exit  : 0/0
  2029 ;;		Unchanged: 0/0
  2030 ;; Data sizes:     COMMON   BANK0   BANK1   BANK3   BANK2
  2031 ;;      Params:         0       0       0       0       0
  2032 ;;      Locals:         2       0       0       0       0
  2033 ;;      Temps:          0       0       0       0       0
  2034 ;;      Totals:         2       0       0       0       0
  2035 ;;Total ram usage:        2 bytes
  2036 ;; Hardware stack levels used:    1
  2037 ;; This function calls:
  2038 ;;		Nothing
  2039 ;; This function is called by:
  2040 ;;		_main
  2041 ;;		_lcd8_cmd
  2042 ;;		_lcd8_write
  2043 ;; This function uses a non-reentrant model
  2044 ;;
  2045                           
  2046                           
  2047                           ;psect for function _delay_1ms
  2048  0146                     _delay_1ms:	
  2049  0146                     l1271:	
  2050                           ;incstack = 0
  2051                           ; Regs used in _delay_1ms: [wreg+status,2+btemp+1]
  2052                           
  2053                           
  2054                           ;LCD.c: 72:     for (int i = 0; i < 50; i++);
  2055  0146  01F0               	clrf	delay_1ms@i
  2056  0147  01F1               	clrf	delay_1ms@i+1
  2057  0148                     l1277:	
  2058  0148  3001               	movlw	1
  2059  0149  07F0               	addwf	delay_1ms@i,f
  2060  014A  1803               	skipnc
  2061  014B  0AF1               	incf	delay_1ms@i+1,f
  2062  014C  3000               	movlw	0
  2063  014D  07F1               	addwf	delay_1ms@i+1,f
  2064  014E                     l1279:	
  2065  014E  0871               	movf	delay_1ms@i+1,w
  2066  014F  3A80               	xorlw	128
  2067  0150  00FF               	movwf	btemp+1
  2068  0151  3080               	movlw	128
  2069  0152  027F               	subwf	btemp+1,w
  2070  0153  1D03               	skipz
  2071  0154  2957               	goto	u835
  2072  0155  3032               	movlw	50
  2073  0156  0270               	subwf	delay_1ms@i,w
  2074  0157                     u835:	
  2075  0157  1C03               	skipc
  2076  0158  295A               	goto	u831
  2077  0159  295B               	goto	u830
  2078  015A                     u831:	
  2079  015A  2948               	goto	l1277
  2080  015B                     u830:	
  2081  015B                     l144:	
  2082  015B  0008               	return
  2083  015C                     __end_of_delay_1ms:	
  2084                           
  2085                           	psect	text10
  2086  01D3                     __ptext10:	
  2087 ;; *************** function _i2c_master_init *****************
  2088 ;; Defined at:
  2089 ;;		line 12 in file "I2C.c"
  2090 ;; Parameters:    Size  Location     Type
  2091 ;;  c               4    0[BANK0 ] unsigned long 
  2092 ;; Auto vars:     Size  Location     Type
  2093 ;;		None
  2094 ;; Return value:  Size  Location     Type
  2095 ;;                  1    wreg      void 
  2096 ;; Registers used:
  2097 ;;		wreg, status,2, status,0, pclath, cstack
  2098 ;; Tracked objects:
  2099 ;;		On entry : 0/0
  2100 ;;		On exit  : 0/0
  2101 ;;		Unchanged: 0/0
  2102 ;; Data sizes:     COMMON   BANK0   BANK1   BANK3   BANK2
  2103 ;;      Params:         0       4       0       0       0
  2104 ;;      Locals:         0       0       0       0       0
  2105 ;;      Temps:          0       4       0       0       0
  2106 ;;      Totals:         0       8       0       0       0
  2107 ;;Total ram usage:        8 bytes
  2108 ;; Hardware stack levels used:    1
  2109 ;; Hardware stack levels required when called:    1
  2110 ;; This function calls:
  2111 ;;		___lldiv
  2112 ;; This function is called by:
  2113 ;;		_main
  2114 ;; This function uses a non-reentrant model
  2115 ;;
  2116                           
  2117                           
  2118                           ;psect for function _i2c_master_init
  2119  01D3                     _i2c_master_init:	
  2120  01D3                     l1345:	
  2121                           ;incstack = 0
  2122                           ; Regs used in _i2c_master_init: [wreg+status,2+status,0+pclath+cstack]
  2123                           
  2124                           
  2125                           ;I2C.c: 13:     SSPCON = 0b00101000;
  2126  01D3  3028               	movlw	40
  2127  01D4  1283               	bcf	3,5	;RP0=0, select bank0
  2128  01D5  1303               	bcf	3,6	;RP1=0, select bank0
  2129  01D6  0094               	movwf	20	;volatile
  2130  01D7                     l1347:	
  2131                           
  2132                           ;I2C.c: 14:     SSPCON2 = 0;
  2133  01D7  1683               	bsf	3,5	;RP0=1, select bank1
  2134  01D8  1303               	bcf	3,6	;RP1=0, select bank1
  2135  01D9  0191               	clrf	17	;volatile
  2136  01DA                     l1349:	
  2137                           
  2138                           ;I2C.c: 15:     SSPADD = (4000000/(4*c))-1;
  2139  01DA  1283               	bcf	3,5	;RP0=0, select bank0
  2140  01DB  1303               	bcf	3,6	;RP1=0, select bank0
  2141  01DC  0820               	movf	i2c_master_init@c,w
  2142  01DD  00A4               	movwf	??_i2c_master_init
  2143  01DE  0821               	movf	i2c_master_init@c+1,w
  2144  01DF  00A5               	movwf	??_i2c_master_init+1
  2145  01E0  0822               	movf	i2c_master_init@c+2,w
  2146  01E1  00A6               	movwf	??_i2c_master_init+2
  2147  01E2  0823               	movf	i2c_master_init@c+3,w
  2148  01E3  00A7               	movwf	??_i2c_master_init+3
  2149  01E4  3002               	movlw	2
  2150  01E5                     u935:	
  2151  01E5  1003               	clrc
  2152  01E6  0DA4               	rlf	??_i2c_master_init,f
  2153  01E7  0DA5               	rlf	??_i2c_master_init+1,f
  2154  01E8  0DA6               	rlf	??_i2c_master_init+2,f
  2155  01E9  0DA7               	rlf	??_i2c_master_init+3,f
  2156  01EA                     u930:	
  2157  01EA  3EFF               	addlw	-1
  2158  01EB  1D03               	skipz
  2159  01EC  29E5               	goto	u935
  2160  01ED  0827               	movf	??_i2c_master_init+3,w
  2161  01EE  00F3               	movwf	___lldiv@divisor+3
  2162  01EF  0826               	movf	??_i2c_master_init+2,w
  2163  01F0  00F2               	movwf	___lldiv@divisor+2
  2164  01F1  0825               	movf	??_i2c_master_init+1,w
  2165  01F2  00F1               	movwf	___lldiv@divisor+1
  2166  01F3  0824               	movf	??_i2c_master_init,w
  2167  01F4  00F0               	movwf	___lldiv@divisor
  2168  01F5  3000               	movlw	0
  2169  01F6  00F7               	movwf	___lldiv@dividend+3
  2170  01F7  303D               	movlw	61
  2171  01F8  00F6               	movwf	___lldiv@dividend+2
  2172  01F9  3009               	movlw	9
  2173  01FA  00F5               	movwf	___lldiv@dividend+1
  2174  01FB  3000               	movlw	0
  2175  01FC  00F4               	movwf	___lldiv@dividend
  2176  01FD  120A  118A  22DF  120A  118A  	fcall	___lldiv
  2177  0202  0870               	movf	?___lldiv,w
  2178  0203  3EFF               	addlw	255
  2179  0204  1683               	bsf	3,5	;RP0=1, select bank1
  2180  0205  1303               	bcf	3,6	;RP1=0, select bank1
  2181  0206  0093               	movwf	19	;volatile
  2182  0207                     l1351:	
  2183                           
  2184                           ;I2C.c: 16:     SSPSTAT = 0;
  2185  0207  0194               	clrf	20	;volatile
  2186  0208                     l1353:	
  2187                           
  2188                           ;I2C.c: 17:     TRISCbits.TRISC3 = 1;
  2189  0208  1587               	bsf	7,3	;volatile
  2190  0209                     l1355:	
  2191                           
  2192                           ;I2C.c: 18:     TRISCbits.TRISC4 = 1;
  2193  0209  1607               	bsf	7,4	;volatile
  2194  020A                     l78:	
  2195  020A  0008               	return
  2196  020B                     __end_of_i2c_master_init:	
  2197                           
  2198                           	psect	text11
  2199  02DF                     __ptext11:	
  2200 ;; *************** function ___lldiv *****************
  2201 ;; Defined at:
  2202 ;;		line 5 in file "C:\Program Files (x86)\Microchip\xc8\v2.10\pic\sources\c90\common\__lldiv.c"
  2203 ;; Parameters:    Size  Location     Type
  2204 ;;  divisor         4    0[COMMON] unsigned long 
  2205 ;;  dividend        4    4[COMMON] unsigned long 
  2206 ;; Auto vars:     Size  Location     Type
  2207 ;;  quotient        4    9[COMMON] unsigned long 
  2208 ;;  counter         1   13[COMMON] unsigned char 
  2209 ;; Return value:  Size  Location     Type
  2210 ;;                  4    0[COMMON] unsigned long 
  2211 ;; Registers used:
  2212 ;;		wreg, status,2, status,0
  2213 ;; Tracked objects:
  2214 ;;		On entry : 0/0
  2215 ;;		On exit  : 0/0
  2216 ;;		Unchanged: 0/0
  2217 ;; Data sizes:     COMMON   BANK0   BANK1   BANK3   BANK2
  2218 ;;      Params:         8       0       0       0       0
  2219 ;;      Locals:         5       0       0       0       0
  2220 ;;      Temps:          1       0       0       0       0
  2221 ;;      Totals:        14       0       0       0       0
  2222 ;;Total ram usage:       14 bytes
  2223 ;; Hardware stack levels used:    1
  2224 ;; This function calls:
  2225 ;;		Nothing
  2226 ;; This function is called by:
  2227 ;;		_i2c_master_init
  2228 ;; This function uses a non-reentrant model
  2229 ;;
  2230                           
  2231                           
  2232                           ;psect for function ___lldiv
  2233  02DF                     ___lldiv:	
  2234  02DF                     l1309:	
  2235                           ;incstack = 0
  2236                           ; Regs used in ___lldiv: [wreg+status,2+status,0]
  2237                           
  2238  02DF  3000               	movlw	0
  2239  02E0  00FC               	movwf	___lldiv@quotient+3
  2240  02E1  3000               	movlw	0
  2241  02E2  00FB               	movwf	___lldiv@quotient+2
  2242  02E3  3000               	movlw	0
  2243  02E4  00FA               	movwf	___lldiv@quotient+1
  2244  02E5  3000               	movlw	0
  2245  02E6  00F9               	movwf	___lldiv@quotient
  2246  02E7  0873               	movf	___lldiv@divisor+3,w
  2247  02E8  0472               	iorwf	___lldiv@divisor+2,w
  2248  02E9  0471               	iorwf	___lldiv@divisor+1,w
  2249  02EA  0470               	iorwf	___lldiv@divisor,w
  2250  02EB  1903               	skipnz
  2251  02EC  2AEE               	goto	u861
  2252  02ED  2AEF               	goto	u860
  2253  02EE                     u861:	
  2254  02EE  2B3C               	goto	l1329
  2255  02EF                     u860:	
  2256  02EF                     l1311:	
  2257  02EF  01FD               	clrf	___lldiv@counter
  2258  02F0  0AFD               	incf	___lldiv@counter,f
  2259  02F1  2AFF               	goto	l1315
  2260  02F2                     l1313:	
  2261  02F2  3001               	movlw	1
  2262  02F3  00F8               	movwf	??___lldiv
  2263  02F4                     u875:	
  2264  02F4  1003               	clrc
  2265  02F5  0DF0               	rlf	___lldiv@divisor,f
  2266  02F6  0DF1               	rlf	___lldiv@divisor+1,f
  2267  02F7  0DF2               	rlf	___lldiv@divisor+2,f
  2268  02F8  0DF3               	rlf	___lldiv@divisor+3,f
  2269  02F9  0BF8               	decfsz	??___lldiv,f
  2270  02FA  2AF4               	goto	u875
  2271  02FB  3001               	movlw	1
  2272  02FC  00F8               	movwf	??___lldiv
  2273  02FD  0878               	movf	??___lldiv,w
  2274  02FE  07FD               	addwf	___lldiv@counter,f
  2275  02FF                     l1315:	
  2276  02FF  1FF3               	btfss	___lldiv@divisor+3,7
  2277  0300  2B02               	goto	u881
  2278  0301  2B03               	goto	u880
  2279  0302                     u881:	
  2280  0302  2AF2               	goto	l1313
  2281  0303                     u880:	
  2282  0303                     l1317:	
  2283  0303  3001               	movlw	1
  2284  0304  00F8               	movwf	??___lldiv
  2285  0305                     u895:	
  2286  0305  1003               	clrc
  2287  0306  0DF9               	rlf	___lldiv@quotient,f
  2288  0307  0DFA               	rlf	___lldiv@quotient+1,f
  2289  0308  0DFB               	rlf	___lldiv@quotient+2,f
  2290  0309  0DFC               	rlf	___lldiv@quotient+3,f
  2291  030A  0BF8               	decfsz	??___lldiv,f
  2292  030B  2B05               	goto	u895
  2293  030C                     l1319:	
  2294  030C  0873               	movf	___lldiv@divisor+3,w
  2295  030D  0277               	subwf	___lldiv@dividend+3,w
  2296  030E  1D03               	skipz
  2297  030F  2B1A               	goto	u905
  2298  0310  0872               	movf	___lldiv@divisor+2,w
  2299  0311  0276               	subwf	___lldiv@dividend+2,w
  2300  0312  1D03               	skipz
  2301  0313  2B1A               	goto	u905
  2302  0314  0871               	movf	___lldiv@divisor+1,w
  2303  0315  0275               	subwf	___lldiv@dividend+1,w
  2304  0316  1D03               	skipz
  2305  0317  2B1A               	goto	u905
  2306  0318  0870               	movf	___lldiv@divisor,w
  2307  0319  0274               	subwf	___lldiv@dividend,w
  2308  031A                     u905:	
  2309  031A  1C03               	skipc
  2310  031B  2B1D               	goto	u901
  2311  031C  2B1E               	goto	u900
  2312  031D                     u901:	
  2313  031D  2B2D               	goto	l1325
  2314  031E                     u900:	
  2315  031E                     l1321:	
  2316  031E  0870               	movf	___lldiv@divisor,w
  2317  031F  02F4               	subwf	___lldiv@dividend,f
  2318  0320  0871               	movf	___lldiv@divisor+1,w
  2319  0321  1C03               	skipc
  2320  0322  0F71               	incfsz	___lldiv@divisor+1,w
  2321  0323  02F5               	subwf	___lldiv@dividend+1,f
  2322  0324  0872               	movf	___lldiv@divisor+2,w
  2323  0325  1C03               	skipc
  2324  0326  0F72               	incfsz	___lldiv@divisor+2,w
  2325  0327  02F6               	subwf	___lldiv@dividend+2,f
  2326  0328  0873               	movf	___lldiv@divisor+3,w
  2327  0329  1C03               	skipc
  2328  032A  0F73               	incfsz	___lldiv@divisor+3,w
  2329  032B  02F7               	subwf	___lldiv@dividend+3,f
  2330  032C                     l1323:	
  2331  032C  1479               	bsf	___lldiv@quotient,0
  2332  032D                     l1325:	
  2333  032D  3001               	movlw	1
  2334  032E                     u915:	
  2335  032E  1003               	clrc
  2336  032F  0CF3               	rrf	___lldiv@divisor+3,f
  2337  0330  0CF2               	rrf	___lldiv@divisor+2,f
  2338  0331  0CF1               	rrf	___lldiv@divisor+1,f
  2339  0332  0CF0               	rrf	___lldiv@divisor,f
  2340  0333  3EFF               	addlw	-1
  2341  0334  1D03               	skipz
  2342  0335  2B2E               	goto	u915
  2343  0336                     l1327:	
  2344  0336  3001               	movlw	1
  2345  0337  02FD               	subwf	___lldiv@counter,f
  2346  0338  1D03               	btfss	3,2
  2347  0339  2B3B               	goto	u921
  2348  033A  2B3C               	goto	u920
  2349  033B                     u921:	
  2350  033B  2B03               	goto	l1317
  2351  033C                     u920:	
  2352  033C                     l1329:	
  2353  033C  087C               	movf	___lldiv@quotient+3,w
  2354  033D  00F3               	movwf	?___lldiv+3
  2355  033E  087B               	movf	___lldiv@quotient+2,w
  2356  033F  00F2               	movwf	?___lldiv+2
  2357  0340  087A               	movf	___lldiv@quotient+1,w
  2358  0341  00F1               	movwf	?___lldiv+1
  2359  0342  0879               	movf	___lldiv@quotient,w
  2360  0343  00F0               	movwf	?___lldiv
  2361  0344                     l281:	
  2362  0344  0008               	return
  2363  0345                     __end_of___lldiv:	
  2364                           
  2365                           	psect	text12
  2366  0100                     __ptext12:	
  2367 ;; *************** function _i2c_masterWrite *****************
  2368 ;; Defined at:
  2369 ;;		line 40 in file "I2C.c"
  2370 ;; Parameters:    Size  Location     Type
  2371 ;;  data            2    0[COMMON] unsigned int 
  2372 ;; Auto vars:     Size  Location     Type
  2373 ;;		None
  2374 ;; Return value:  Size  Location     Type
  2375 ;;                  1    wreg      void 
  2376 ;; Registers used:
  2377 ;;		wreg, status,2, status,0, pclath, cstack
  2378 ;; Tracked objects:
  2379 ;;		On entry : 0/0
  2380 ;;		On exit  : 0/0
  2381 ;;		Unchanged: 0/0
  2382 ;; Data sizes:     COMMON   BANK0   BANK1   BANK3   BANK2
  2383 ;;      Params:         2       0       0       0       0
  2384 ;;      Locals:         0       0       0       0       0
  2385 ;;      Temps:          0       0       0       0       0
  2386 ;;      Totals:         2       0       0       0       0
  2387 ;;Total ram usage:        2 bytes
  2388 ;; Hardware stack levels used:    1
  2389 ;; Hardware stack levels required when called:    1
  2390 ;; This function calls:
  2391 ;;		_i2c_masterWait
  2392 ;; This function is called by:
  2393 ;;		_main
  2394 ;; This function uses a non-reentrant model
  2395 ;;
  2396                           
  2397                           
  2398                           ;psect for function _i2c_masterWrite
  2399  0100                     _i2c_masterWrite:	
  2400  0100                     l1383:	
  2401                           ;incstack = 0
  2402                           ; Regs used in _i2c_masterWrite: [wreg+status,2+status,0+pclath+cstack]
  2403                           
  2404                           
  2405                           ;I2C.c: 41:     i2c_masterWait();
  2406  0100  120A  118A  210A  120A  118A  	fcall	_i2c_masterWait
  2407  0105                     l1385:	
  2408                           
  2409                           ;I2C.c: 42:     SSPBUF = data;
  2410  0105  0870               	movf	i2c_masterWrite@data,w
  2411  0106  1283               	bcf	3,5	;RP0=0, select bank0
  2412  0107  1303               	bcf	3,6	;RP1=0, select bank0
  2413  0108  0093               	movwf	19	;volatile
  2414  0109                     l96:	
  2415  0109  0008               	return
  2416  010A                     __end_of_i2c_masterWrite:	
  2417                           
  2418                           	psect	text13
  2419  00EE                     __ptext13:	
  2420 ;; *************** function _i2c_masterStop *****************
  2421 ;; Defined at:
  2422 ;;		line 35 in file "I2C.c"
  2423 ;; Parameters:    Size  Location     Type
  2424 ;;		None
  2425 ;; Auto vars:     Size  Location     Type
  2426 ;;		None
  2427 ;; Return value:  Size  Location     Type
  2428 ;;                  1    wreg      void 
  2429 ;; Registers used:
  2430 ;;		wreg, status,2, status,0, pclath, cstack
  2431 ;; Tracked objects:
  2432 ;;		On entry : 0/0
  2433 ;;		On exit  : 0/0
  2434 ;;		Unchanged: 0/0
  2435 ;; Data sizes:     COMMON   BANK0   BANK1   BANK3   BANK2
  2436 ;;      Params:         0       0       0       0       0
  2437 ;;      Locals:         0       0       0       0       0
  2438 ;;      Temps:          0       0       0       0       0
  2439 ;;      Totals:         0       0       0       0       0
  2440 ;;Total ram usage:        0 bytes
  2441 ;; Hardware stack levels used:    1
  2442 ;; Hardware stack levels required when called:    1
  2443 ;; This function calls:
  2444 ;;		_i2c_masterWait
  2445 ;; This function is called by:
  2446 ;;		_main
  2447 ;; This function uses a non-reentrant model
  2448 ;;
  2449                           
  2450                           
  2451                           ;psect for function _i2c_masterStop
  2452  00EE                     _i2c_masterStop:	
  2453  00EE                     l1407:	
  2454                           ;incstack = 0
  2455                           ; Regs used in _i2c_masterStop: [wreg+status,2+status,0+pclath+cstack]
  2456                           
  2457                           
  2458                           ;I2C.c: 36:     i2c_masterWait();
  2459  00EE  120A  118A  210A  120A  118A  	fcall	_i2c_masterWait
  2460  00F3                     l1409:	
  2461                           
  2462                           ;I2C.c: 37:     SSPCON2bits.PEN = 1;
  2463  00F3  1683               	bsf	3,5	;RP0=1, select bank1
  2464  00F4  1303               	bcf	3,6	;RP1=0, select bank1
  2465  00F5  1511               	bsf	17,2	;volatile
  2466  00F6                     l93:	
  2467  00F6  0008               	return
  2468  00F7                     __end_of_i2c_masterStop:	
  2469                           
  2470                           	psect	text14
  2471  00E5                     __ptext14:	
  2472 ;; *************** function _i2c_masterStart *****************
  2473 ;; Defined at:
  2474 ;;		line 25 in file "I2C.c"
  2475 ;; Parameters:    Size  Location     Type
  2476 ;;		None
  2477 ;; Auto vars:     Size  Location     Type
  2478 ;;		None
  2479 ;; Return value:  Size  Location     Type
  2480 ;;                  1    wreg      void 
  2481 ;; Registers used:
  2482 ;;		wreg, status,2, status,0, pclath, cstack
  2483 ;; Tracked objects:
  2484 ;;		On entry : 0/0
  2485 ;;		On exit  : 0/0
  2486 ;;		Unchanged: 0/0
  2487 ;; Data sizes:     COMMON   BANK0   BANK1   BANK3   BANK2
  2488 ;;      Params:         0       0       0       0       0
  2489 ;;      Locals:         0       0       0       0       0
  2490 ;;      Temps:          0       0       0       0       0
  2491 ;;      Totals:         0       0       0       0       0
  2492 ;;Total ram usage:        0 bytes
  2493 ;; Hardware stack levels used:    1
  2494 ;; Hardware stack levels required when called:    1
  2495 ;; This function calls:
  2496 ;;		_i2c_masterWait
  2497 ;; This function is called by:
  2498 ;;		_main
  2499 ;; This function uses a non-reentrant model
  2500 ;;
  2501                           
  2502                           
  2503                           ;psect for function _i2c_masterStart
  2504  00E5                     _i2c_masterStart:	
  2505  00E5                     l1379:	
  2506                           ;incstack = 0
  2507                           ; Regs used in _i2c_masterStart: [wreg+status,2+status,0+pclath+cstack]
  2508                           
  2509                           
  2510                           ;I2C.c: 26:     i2c_masterWait();
  2511  00E5  120A  118A  210A  120A  118A  	fcall	_i2c_masterWait
  2512  00EA                     l1381:	
  2513                           
  2514                           ;I2C.c: 27:     SSPCON2bits.SEN = 1;
  2515  00EA  1683               	bsf	3,5	;RP0=1, select bank1
  2516  00EB  1303               	bcf	3,6	;RP1=0, select bank1
  2517  00EC  1411               	bsf	17,0	;volatile
  2518  00ED                     l87:	
  2519  00ED  0008               	return
  2520  00EE                     __end_of_i2c_masterStart:	
  2521                           
  2522                           	psect	text15
  2523  019D                     __ptext15:	
  2524 ;; *************** function _i2c_masterRead *****************
  2525 ;; Defined at:
  2526 ;;		line 45 in file "I2C.c"
  2527 ;; Parameters:    Size  Location     Type
  2528 ;;  a               2    0[COMMON] unsigned short 
  2529 ;; Auto vars:     Size  Location     Type
  2530 ;;  temp            2    4[COMMON] unsigned short 
  2531 ;; Return value:  Size  Location     Type
  2532 ;;                  2    0[COMMON] unsigned short 
  2533 ;; Registers used:
  2534 ;;		wreg, status,2, status,0, pclath, cstack
  2535 ;; Tracked objects:
  2536 ;;		On entry : 0/0
  2537 ;;		On exit  : 0/0
  2538 ;;		Unchanged: 0/0
  2539 ;; Data sizes:     COMMON   BANK0   BANK1   BANK3   BANK2
  2540 ;;      Params:         2       0       0       0       0
  2541 ;;      Locals:         2       0       0       0       0
  2542 ;;      Temps:          2       0       0       0       0
  2543 ;;      Totals:         6       0       0       0       0
  2544 ;;Total ram usage:        6 bytes
  2545 ;; Hardware stack levels used:    1
  2546 ;; Hardware stack levels required when called:    1
  2547 ;; This function calls:
  2548 ;;		_i2c_masterWait
  2549 ;; This function is called by:
  2550 ;;		_main
  2551 ;; This function uses a non-reentrant model
  2552 ;;
  2553                           
  2554                           
  2555                           ;psect for function _i2c_masterRead
  2556  019D                     _i2c_masterRead:	
  2557  019D                     l1387:	
  2558                           ;incstack = 0
  2559                           ; Regs used in _i2c_masterRead: [wreg+status,2+status,0+pclath+cstack]
  2560                           
  2561                           
  2562                           ;I2C.c: 46:     unsigned short temp;;I2C.c: 47:     i2c_masterWait();
  2563  019D  120A  118A  210A  120A  118A  	fcall	_i2c_masterWait
  2564  01A2                     l1389:	
  2565                           
  2566                           ;I2C.c: 48:     SSPCON2bits.RCEN = 1;
  2567  01A2  1683               	bsf	3,5	;RP0=1, select bank1
  2568  01A3  1303               	bcf	3,6	;RP1=0, select bank1
  2569  01A4  1591               	bsf	17,3	;volatile
  2570                           
  2571                           ;I2C.c: 49:     i2c_masterWait();
  2572  01A5  120A  118A  210A  120A  118A  	fcall	_i2c_masterWait
  2573  01AA                     l1391:	
  2574                           
  2575                           ;I2C.c: 50:     temp = SSPBUF;
  2576  01AA  1283               	bcf	3,5	;RP0=0, select bank0
  2577  01AB  1303               	bcf	3,6	;RP1=0, select bank0
  2578  01AC  0813               	movf	19,w	;volatile
  2579  01AD  00F2               	movwf	??_i2c_masterRead
  2580  01AE  01F3               	clrf	??_i2c_masterRead+1
  2581  01AF  0872               	movf	??_i2c_masterRead,w
  2582  01B0  00F4               	movwf	i2c_masterRead@temp
  2583  01B1  0873               	movf	??_i2c_masterRead+1,w
  2584  01B2  00F5               	movwf	i2c_masterRead@temp+1
  2585  01B3                     l1393:	
  2586                           
  2587                           ;I2C.c: 51:     i2c_masterWait();
  2588  01B3  120A  118A  210A  120A  118A  	fcall	_i2c_masterWait
  2589  01B8                     l1395:	
  2590                           
  2591                           ;I2C.c: 52:     if (a == 0){
  2592  01B8  0870               	movf	i2c_masterRead@a,w
  2593  01B9  0471               	iorwf	i2c_masterRead@a+1,w
  2594  01BA  1D03               	btfss	3,2
  2595  01BB  29BD               	goto	u941
  2596  01BC  29BE               	goto	u940
  2597  01BD                     u941:	
  2598  01BD  29C2               	goto	l1399
  2599  01BE                     u940:	
  2600  01BE                     l1397:	
  2601                           
  2602                           ;I2C.c: 53:         SSPCON2bits.ACKDT = 1;
  2603  01BE  1683               	bsf	3,5	;RP0=1, select bank1
  2604  01BF  1303               	bcf	3,6	;RP1=0, select bank1
  2605  01C0  1691               	bsf	17,5	;volatile
  2606                           
  2607                           ;I2C.c: 54:     }
  2608  01C1  29CB               	goto	l100
  2609  01C2                     l1399:	
  2610  01C2  0370               	decf	i2c_masterRead@a,w
  2611  01C3  0471               	iorwf	i2c_masterRead@a+1,w
  2612  01C4  1D03               	btfss	3,2
  2613  01C5  29C7               	goto	u951
  2614  01C6  29C8               	goto	u950
  2615  01C7                     u951:	
  2616  01C7  29CB               	goto	l100
  2617  01C8                     u950:	
  2618  01C8                     l1401:	
  2619                           
  2620                           ;I2C.c: 56:         SSPCON2bits.ACKDT = 0;
  2621  01C8  1683               	bsf	3,5	;RP0=1, select bank1
  2622  01C9  1303               	bcf	3,6	;RP1=0, select bank1
  2623  01CA  1291               	bcf	17,5	;volatile
  2624  01CB                     l100:	
  2625                           
  2626                           ;I2C.c: 58:     ACKEN = 1;
  2627  01CB  1683               	bsf	3,5	;RP0=1, select bank1
  2628  01CC  1303               	bcf	3,6	;RP1=0, select bank1
  2629  01CD  1611               	bsf	17,4	;volatile
  2630  01CE                     l1403:	
  2631                           
  2632                           ;I2C.c: 59:     return temp;
  2633  01CE  0875               	movf	i2c_masterRead@temp+1,w
  2634  01CF  00F1               	movwf	?_i2c_masterRead+1
  2635  01D0  0874               	movf	i2c_masterRead@temp,w
  2636  01D1  00F0               	movwf	?_i2c_masterRead
  2637  01D2                     l102:	
  2638  01D2  0008               	return
  2639  01D3                     __end_of_i2c_masterRead:	
  2640                           
  2641                           	psect	text16
  2642  010A                     __ptext16:	
  2643 ;; *************** function _i2c_masterWait *****************
  2644 ;; Defined at:
  2645 ;;		line 21 in file "I2C.c"
  2646 ;; Parameters:    Size  Location     Type
  2647 ;;		None
  2648 ;; Auto vars:     Size  Location     Type
  2649 ;;		None
  2650 ;; Return value:  Size  Location     Type
  2651 ;;                  1    wreg      void 
  2652 ;; Registers used:
  2653 ;;		wreg, status,2
  2654 ;; Tracked objects:
  2655 ;;		On entry : 0/0
  2656 ;;		On exit  : 0/0
  2657 ;;		Unchanged: 0/0
  2658 ;; Data sizes:     COMMON   BANK0   BANK1   BANK3   BANK2
  2659 ;;      Params:         0       0       0       0       0
  2660 ;;      Locals:         0       0       0       0       0
  2661 ;;      Temps:          0       0       0       0       0
  2662 ;;      Totals:         0       0       0       0       0
  2663 ;;Total ram usage:        0 bytes
  2664 ;; Hardware stack levels used:    1
  2665 ;; This function calls:
  2666 ;;		Nothing
  2667 ;; This function is called by:
  2668 ;;		_i2c_masterStart
  2669 ;;		_i2c_masterStop
  2670 ;;		_i2c_masterWrite
  2671 ;;		_i2c_masterRead
  2672 ;;		_i2c_master_RStart
  2673 ;; This function uses a non-reentrant model
  2674 ;;
  2675                           
  2676                           
  2677                           ;psect for function _i2c_masterWait
  2678  010A                     _i2c_masterWait:	
  2679  010A                     l1281:	
  2680                           ;incstack = 0
  2681                           ; Regs used in _i2c_masterWait: [wreg+status,2]
  2682                           
  2683  010A                     l81:	
  2684                           ;I2C.c: 22:     while ((SSPSTAT & 0x04) || (SSPCON2 & 0x1F));
  2685                           
  2686  010A  1683               	bsf	3,5	;RP0=1, select bank1
  2687  010B  1303               	bcf	3,6	;RP1=0, select bank1
  2688  010C  1914               	btfsc	20,2	;volatile
  2689  010D  290F               	goto	u841
  2690  010E  2910               	goto	u840
  2691  010F                     u841:	
  2692  010F  290A               	goto	l81
  2693  0110                     u840:	
  2694  0110                     l1283:	
  2695  0110  0811               	movf	17,w	;volatile
  2696  0111  391F               	andlw	31
  2697  0112  1D03               	btfss	3,2
  2698  0113  2915               	goto	u851
  2699  0114  2916               	goto	u850
  2700  0115                     u851:	
  2701  0115  290A               	goto	l81
  2702  0116                     u850:	
  2703  0116                     l84:	
  2704  0116  0008               	return
  2705  0117                     __end_of_i2c_masterWait:	
  2706                           
  2707                           	psect	text17
  2708  0436                     __ptext17:	
  2709 ;; *************** function ___xxtofl *****************
  2710 ;; Defined at:
  2711 ;;		line 10 in file "C:\Program Files (x86)\Microchip\xc8\v2.10\pic\sources\c90\common\xxtofl.c"
  2712 ;; Parameters:    Size  Location     Type
  2713 ;;  sign            1    wreg     unsigned char 
  2714 ;;  val             4    0[COMMON] long 
  2715 ;; Auto vars:     Size  Location     Type
  2716 ;;  sign            1    8[COMMON] unsigned char 
  2717 ;;  arg             4   10[COMMON] unsigned long 
  2718 ;;  exp             1    9[COMMON] unsigned char 
  2719 ;; Return value:  Size  Location     Type
  2720 ;;                  4    0[COMMON] unsigned char 
  2721 ;; Registers used:
  2722 ;;		wreg, status,2, status,0
  2723 ;; Tracked objects:
  2724 ;;		On entry : 0/0
  2725 ;;		On exit  : 0/0
  2726 ;;		Unchanged: 0/0
  2727 ;; Data sizes:     COMMON   BANK0   BANK1   BANK3   BANK2
  2728 ;;      Params:         4       0       0       0       0
  2729 ;;      Locals:         6       0       0       0       0
  2730 ;;      Temps:          4       0       0       0       0
  2731 ;;      Totals:        14       0       0       0       0
  2732 ;;Total ram usage:       14 bytes
  2733 ;; Hardware stack levels used:    1
  2734 ;; This function calls:
  2735 ;;		Nothing
  2736 ;; This function is called by:
  2737 ;;		_main
  2738 ;; This function uses a non-reentrant model
  2739 ;;
  2740                           
  2741                           
  2742                           ;psect for function ___xxtofl
  2743  0436                     ___xxtofl:	
  2744                           
  2745                           ;incstack = 0
  2746                           ; Regs used in ___xxtofl: [wreg+status,2+status,0]
  2747                           ;___xxtofl@sign stored from wreg
  2748  0436  00F8               	movwf	___xxtofl@sign
  2749  0437                     l1655:	
  2750  0437  0878               	movf	___xxtofl@sign,w
  2751  0438  1903               	btfsc	3,2
  2752  0439  2C3B               	goto	u1511
  2753  043A  2C3C               	goto	u1510
  2754  043B                     u1511:	
  2755  043B  2C50               	goto	l1661
  2756  043C                     u1510:	
  2757  043C                     l1657:	
  2758  043C  1FF3               	btfss	___xxtofl@val+3,7
  2759  043D  2C3F               	goto	u1521
  2760  043E  2C40               	goto	u1520
  2761  043F                     u1521:	
  2762  043F  2C50               	goto	l1661
  2763  0440                     u1520:	
  2764  0440                     l1659:	
  2765  0440  0970               	comf	___xxtofl@val,w
  2766  0441  00FA               	movwf	___xxtofl@arg
  2767  0442  0971               	comf	___xxtofl@val+1,w
  2768  0443  00FB               	movwf	___xxtofl@arg+1
  2769  0444  0972               	comf	___xxtofl@val+2,w
  2770  0445  00FC               	movwf	___xxtofl@arg+2
  2771  0446  0973               	comf	___xxtofl@val+3,w
  2772  0447  00FD               	movwf	___xxtofl@arg+3
  2773  0448  0AFA               	incf	___xxtofl@arg,f
  2774  0449  1903               	skipnz
  2775  044A  0AFB               	incf	___xxtofl@arg+1,f
  2776  044B  1903               	skipnz
  2777  044C  0AFC               	incf	___xxtofl@arg+2,f
  2778  044D  1903               	skipnz
  2779  044E  0AFD               	incf	___xxtofl@arg+3,f
  2780  044F  2C58               	goto	l672
  2781  0450                     l1661:	
  2782  0450  0873               	movf	___xxtofl@val+3,w
  2783  0451  00FD               	movwf	___xxtofl@arg+3
  2784  0452  0872               	movf	___xxtofl@val+2,w
  2785  0453  00FC               	movwf	___xxtofl@arg+2
  2786  0454  0871               	movf	___xxtofl@val+1,w
  2787  0455  00FB               	movwf	___xxtofl@arg+1
  2788  0456  0870               	movf	___xxtofl@val,w
  2789  0457  00FA               	movwf	___xxtofl@arg
  2790  0458                     l672:	
  2791  0458  0873               	movf	___xxtofl@val+3,w
  2792  0459  0472               	iorwf	___xxtofl@val+2,w
  2793  045A  0471               	iorwf	___xxtofl@val+1,w
  2794  045B  0470               	iorwf	___xxtofl@val,w
  2795  045C  1D03               	skipz
  2796  045D  2C5F               	goto	u1531
  2797  045E  2C60               	goto	u1530
  2798  045F                     u1531:	
  2799  045F  2C69               	goto	l1667
  2800  0460                     u1530:	
  2801  0460                     l1663:	
  2802  0460  3000               	movlw	0
  2803  0461  00F3               	movwf	?___xxtofl+3
  2804  0462  3000               	movlw	0
  2805  0463  00F2               	movwf	?___xxtofl+2
  2806  0464  3000               	movlw	0
  2807  0465  00F1               	movwf	?___xxtofl+1
  2808  0466  3000               	movlw	0
  2809  0467  00F0               	movwf	?___xxtofl
  2810  0468  2CEF               	goto	l674
  2811  0469                     l1667:	
  2812  0469  3096               	movlw	150
  2813  046A  00F4               	movwf	??___xxtofl
  2814  046B  0874               	movf	??___xxtofl,w
  2815  046C  00F9               	movwf	___xxtofl@exp
  2816  046D  2C7B               	goto	l1671
  2817  046E                     l1669:	
  2818  046E  3001               	movlw	1
  2819  046F  00F4               	movwf	??___xxtofl
  2820  0470  0874               	movf	??___xxtofl,w
  2821  0471  07F9               	addwf	___xxtofl@exp,f
  2822  0472  3001               	movlw	1
  2823  0473                     u1545:	
  2824  0473  1003               	clrc
  2825  0474  0CFD               	rrf	___xxtofl@arg+3,f
  2826  0475  0CFC               	rrf	___xxtofl@arg+2,f
  2827  0476  0CFB               	rrf	___xxtofl@arg+1,f
  2828  0477  0CFA               	rrf	___xxtofl@arg,f
  2829  0478  3EFF               	addlw	-1
  2830  0479  1D03               	skipz
  2831  047A  2C73               	goto	u1545
  2832  047B                     l1671:	
  2833  047B  30FE               	movlw	254
  2834  047C  057D               	andwf	___xxtofl@arg+3,w
  2835  047D  1D03               	btfss	3,2
  2836  047E  2C80               	goto	u1551
  2837  047F  2C81               	goto	u1550
  2838  0480                     u1551:	
  2839  0480  2C6E               	goto	l1669
  2840  0481                     u1550:	
  2841  0481  2C9D               	goto	l678
  2842  0482                     l1673:	
  2843  0482  3001               	movlw	1
  2844  0483  00F4               	movwf	??___xxtofl
  2845  0484  0874               	movf	??___xxtofl,w
  2846  0485  07F9               	addwf	___xxtofl@exp,f
  2847  0486                     l1675:	
  2848  0486  3001               	movlw	1
  2849  0487  07FA               	addwf	___xxtofl@arg,f
  2850  0488  3000               	movlw	0
  2851  0489  1803               	skipnc
  2852  048A  3001               	movlw	1
  2853  048B  07FB               	addwf	___xxtofl@arg+1,f
  2854  048C  3000               	movlw	0
  2855  048D  1803               	skipnc
  2856  048E  3001               	movlw	1
  2857  048F  07FC               	addwf	___xxtofl@arg+2,f
  2858  0490  3000               	movlw	0
  2859  0491  1803               	skipnc
  2860  0492  3001               	movlw	1
  2861  0493  07FD               	addwf	___xxtofl@arg+3,f
  2862  0494                     l1677:	
  2863  0494  3001               	movlw	1
  2864  0495                     u1565:	
  2865  0495  1003               	clrc
  2866  0496  0CFD               	rrf	___xxtofl@arg+3,f
  2867  0497  0CFC               	rrf	___xxtofl@arg+2,f
  2868  0498  0CFB               	rrf	___xxtofl@arg+1,f
  2869  0499  0CFA               	rrf	___xxtofl@arg,f
  2870  049A  3EFF               	addlw	-1
  2871  049B  1D03               	skipz
  2872  049C  2C95               	goto	u1565
  2873  049D                     l678:	
  2874  049D  30FF               	movlw	255
  2875  049E  057D               	andwf	___xxtofl@arg+3,w
  2876  049F  1D03               	btfss	3,2
  2877  04A0  2CA2               	goto	u1571
  2878  04A1  2CA3               	goto	u1570
  2879  04A2                     u1571:	
  2880  04A2  2C82               	goto	l1673
  2881  04A3                     u1570:	
  2882  04A3  2CAF               	goto	l1681
  2883  04A4                     l1679:	
  2884  04A4  3001               	movlw	1
  2885  04A5  02F9               	subwf	___xxtofl@exp,f
  2886  04A6  3001               	movlw	1
  2887  04A7  00F4               	movwf	??___xxtofl
  2888  04A8                     u1585:	
  2889  04A8  1003               	clrc
  2890  04A9  0DFA               	rlf	___xxtofl@arg,f
  2891  04AA  0DFB               	rlf	___xxtofl@arg+1,f
  2892  04AB  0DFC               	rlf	___xxtofl@arg+2,f
  2893  04AC  0DFD               	rlf	___xxtofl@arg+3,f
  2894  04AD  0BF4               	decfsz	??___xxtofl,f
  2895  04AE  2CA8               	goto	u1585
  2896  04AF                     l1681:	
  2897  04AF  1BFC               	btfsc	___xxtofl@arg+2,7
  2898  04B0  2CB2               	goto	u1591
  2899  04B1  2CB3               	goto	u1590
  2900  04B2                     u1591:	
  2901  04B2  2CB9               	goto	l685
  2902  04B3                     u1590:	
  2903  04B3                     l1683:	
  2904  04B3  3002               	movlw	2
  2905  04B4  0279               	subwf	___xxtofl@exp,w
  2906  04B5  1803               	skipnc
  2907  04B6  2CB8               	goto	u1601
  2908  04B7  2CB9               	goto	u1600
  2909  04B8                     u1601:	
  2910  04B8  2CA4               	goto	l1679
  2911  04B9                     u1600:	
  2912  04B9                     l685:	
  2913  04B9  1879               	btfsc	___xxtofl@exp,0
  2914  04BA  2CBC               	goto	u1611
  2915  04BB  2CBD               	goto	u1610
  2916  04BC                     u1611:	
  2917  04BC  2CC5               	goto	l686
  2918  04BD                     u1610:	
  2919  04BD                     l1685:	
  2920  04BD  30FF               	movlw	255
  2921  04BE  05FA               	andwf	___xxtofl@arg,f
  2922  04BF  30FF               	movlw	255
  2923  04C0  05FB               	andwf	___xxtofl@arg+1,f
  2924  04C1  307F               	movlw	127
  2925  04C2  05FC               	andwf	___xxtofl@arg+2,f
  2926  04C3  30FF               	movlw	255
  2927  04C4  05FD               	andwf	___xxtofl@arg+3,f
  2928  04C5                     l686:	
  2929  04C5  1003               	clrc
  2930  04C6  0CF9               	rrf	___xxtofl@exp,f
  2931  04C7                     l1687:	
  2932  04C7  0879               	movf	___xxtofl@exp,w
  2933  04C8  00F4               	movwf	??___xxtofl
  2934  04C9  01F5               	clrf	??___xxtofl+1
  2935  04CA  01F6               	clrf	??___xxtofl+2
  2936  04CB  01F7               	clrf	??___xxtofl+3
  2937  04CC  3018               	movlw	24
  2938  04CD                     u1625:	
  2939  04CD  1003               	clrc
  2940  04CE  0DF4               	rlf	??___xxtofl,f
  2941  04CF  0DF5               	rlf	??___xxtofl+1,f
  2942  04D0  0DF6               	rlf	??___xxtofl+2,f
  2943  04D1  0DF7               	rlf	??___xxtofl+3,f
  2944  04D2                     u1620:	
  2945  04D2  3EFF               	addlw	-1
  2946  04D3  1D03               	skipz
  2947  04D4  2CCD               	goto	u1625
  2948  04D5  0874               	movf	??___xxtofl,w
  2949  04D6  04FA               	iorwf	___xxtofl@arg,f
  2950  04D7  0875               	movf	??___xxtofl+1,w
  2951  04D8  04FB               	iorwf	___xxtofl@arg+1,f
  2952  04D9  0876               	movf	??___xxtofl+2,w
  2953  04DA  04FC               	iorwf	___xxtofl@arg+2,f
  2954  04DB  0877               	movf	??___xxtofl+3,w
  2955  04DC  04FD               	iorwf	___xxtofl@arg+3,f
  2956  04DD                     l1689:	
  2957  04DD  0878               	movf	___xxtofl@sign,w
  2958  04DE  1903               	btfsc	3,2
  2959  04DF  2CE1               	goto	u1631
  2960  04E0  2CE2               	goto	u1630
  2961  04E1                     u1631:	
  2962  04E1  2CE7               	goto	l1695
  2963  04E2                     u1630:	
  2964  04E2                     l1691:	
  2965  04E2  1FF3               	btfss	___xxtofl@val+3,7
  2966  04E3  2CE5               	goto	u1641
  2967  04E4  2CE6               	goto	u1640
  2968  04E5                     u1641:	
  2969  04E5  2CE7               	goto	l1695
  2970  04E6                     u1640:	
  2971  04E6                     l1693:	
  2972  04E6  17FD               	bsf	___xxtofl@arg+3,7
  2973  04E7                     l1695:	
  2974  04E7  087D               	movf	___xxtofl@arg+3,w
  2975  04E8  00F3               	movwf	?___xxtofl+3
  2976  04E9  087C               	movf	___xxtofl@arg+2,w
  2977  04EA  00F2               	movwf	?___xxtofl+2
  2978  04EB  087B               	movf	___xxtofl@arg+1,w
  2979  04EC  00F1               	movwf	?___xxtofl+1
  2980  04ED  087A               	movf	___xxtofl@arg,w
  2981  04EE  00F0               	movwf	?___xxtofl
  2982  04EF                     l674:	
  2983  04EF  0008               	return
  2984  04F0                     __end_of___xxtofl:	
  2985                           
  2986                           	psect	text18
  2987  020B                     __ptext18:	
  2988 ;; *************** function ___lwmod *****************
  2989 ;; Defined at:
  2990 ;;		line 5 in file "C:\Program Files (x86)\Microchip\xc8\v2.10\pic\sources\c90\common\lwmod.c"
  2991 ;; Parameters:    Size  Location     Type
  2992 ;;  divisor         2    0[COMMON] unsigned int 
  2993 ;;  dividend        2    2[COMMON] unsigned int 
  2994 ;; Auto vars:     Size  Location     Type
  2995 ;;  counter         1    5[COMMON] unsigned char 
  2996 ;; Return value:  Size  Location     Type
  2997 ;;                  2    0[COMMON] unsigned int 
  2998 ;; Registers used:
  2999 ;;		wreg, status,2, status,0
  3000 ;; Tracked objects:
  3001 ;;		On entry : 0/0
  3002 ;;		On exit  : 0/0
  3003 ;;		Unchanged: 0/0
  3004 ;; Data sizes:     COMMON   BANK0   BANK1   BANK3   BANK2
  3005 ;;      Params:         4       0       0       0       0
  3006 ;;      Locals:         1       0       0       0       0
  3007 ;;      Temps:          1       0       0       0       0
  3008 ;;      Totals:         6       0       0       0       0
  3009 ;;Total ram usage:        6 bytes
  3010 ;; Hardware stack levels used:    1
  3011 ;; This function calls:
  3012 ;;		Nothing
  3013 ;; This function is called by:
  3014 ;;		_main
  3015 ;; This function uses a non-reentrant model
  3016 ;;
  3017                           
  3018                           
  3019                           ;psect for function ___lwmod
  3020  020B                     ___lwmod:	
  3021  020B                     l1491:	
  3022                           ;incstack = 0
  3023                           ; Regs used in ___lwmod: [wreg+status,2+status,0]
  3024                           
  3025  020B  0870               	movf	___lwmod@divisor,w
  3026  020C  0471               	iorwf	___lwmod@divisor+1,w
  3027  020D  1903               	btfsc	3,2
  3028  020E  2A10               	goto	u1161
  3029  020F  2A11               	goto	u1160
  3030  0210                     u1161:	
  3031  0210  2A40               	goto	l1509
  3032  0211                     u1160:	
  3033  0211                     l1493:	
  3034  0211  01F5               	clrf	___lwmod@counter
  3035  0212  0AF5               	incf	___lwmod@counter,f
  3036  0213  2A1F               	goto	l1499
  3037  0214                     l1495:	
  3038  0214  3001               	movlw	1
  3039  0215                     u1175:	
  3040  0215  1003               	clrc
  3041  0216  0DF0               	rlf	___lwmod@divisor,f
  3042  0217  0DF1               	rlf	___lwmod@divisor+1,f
  3043  0218  3EFF               	addlw	-1
  3044  0219  1D03               	skipz
  3045  021A  2A15               	goto	u1175
  3046  021B                     l1497:	
  3047  021B  3001               	movlw	1
  3048  021C  00F4               	movwf	??___lwmod
  3049  021D  0874               	movf	??___lwmod,w
  3050  021E  07F5               	addwf	___lwmod@counter,f
  3051  021F                     l1499:	
  3052  021F  1FF1               	btfss	___lwmod@divisor+1,7
  3053  0220  2A22               	goto	u1181
  3054  0221  2A23               	goto	u1180
  3055  0222                     u1181:	
  3056  0222  2A14               	goto	l1495
  3057  0223                     u1180:	
  3058  0223                     l1501:	
  3059  0223  0871               	movf	___lwmod@divisor+1,w
  3060  0224  0273               	subwf	___lwmod@dividend+1,w
  3061  0225  1D03               	skipz
  3062  0226  2A29               	goto	u1195
  3063  0227  0870               	movf	___lwmod@divisor,w
  3064  0228  0272               	subwf	___lwmod@dividend,w
  3065  0229                     u1195:	
  3066  0229  1C03               	skipc
  3067  022A  2A2C               	goto	u1191
  3068  022B  2A2D               	goto	u1190
  3069  022C                     u1191:	
  3070  022C  2A33               	goto	l1505
  3071  022D                     u1190:	
  3072  022D                     l1503:	
  3073  022D  0870               	movf	___lwmod@divisor,w
  3074  022E  02F2               	subwf	___lwmod@dividend,f
  3075  022F  0871               	movf	___lwmod@divisor+1,w
  3076  0230  1C03               	skipc
  3077  0231  03F3               	decf	___lwmod@dividend+1,f
  3078  0232  02F3               	subwf	___lwmod@dividend+1,f
  3079  0233                     l1505:	
  3080  0233  3001               	movlw	1
  3081  0234                     u1205:	
  3082  0234  1003               	clrc
  3083  0235  0CF1               	rrf	___lwmod@divisor+1,f
  3084  0236  0CF0               	rrf	___lwmod@divisor,f
  3085  0237  3EFF               	addlw	-1
  3086  0238  1D03               	skipz
  3087  0239  2A34               	goto	u1205
  3088  023A                     l1507:	
  3089  023A  3001               	movlw	1
  3090  023B  02F5               	subwf	___lwmod@counter,f
  3091  023C  1D03               	btfss	3,2
  3092  023D  2A3F               	goto	u1211
  3093  023E  2A40               	goto	u1210
  3094  023F                     u1211:	
  3095  023F  2A23               	goto	l1501
  3096  0240                     u1210:	
  3097  0240                     l1509:	
  3098  0240  0873               	movf	___lwmod@dividend+1,w
  3099  0241  00F1               	movwf	?___lwmod+1
  3100  0242  0872               	movf	___lwmod@dividend,w
  3101  0243  00F0               	movwf	?___lwmod
  3102  0244                     l527:	
  3103  0244  0008               	return
  3104  0245                     __end_of___lwmod:	
  3105                           
  3106                           	psect	text19
  3107  0245                     __ptext19:	
  3108 ;; *************** function ___lwdiv *****************
  3109 ;; Defined at:
  3110 ;;		line 5 in file "C:\Program Files (x86)\Microchip\xc8\v2.10\pic\sources\c90\common\lwdiv.c"
  3111 ;; Parameters:    Size  Location     Type
  3112 ;;  divisor         2    0[COMMON] unsigned int 
  3113 ;;  dividend        2    2[COMMON] unsigned int 
  3114 ;; Auto vars:     Size  Location     Type
  3115 ;;  quotient        2    5[COMMON] unsigned int 
  3116 ;;  counter         1    7[COMMON] unsigned char 
  3117 ;; Return value:  Size  Location     Type
  3118 ;;                  2    0[COMMON] unsigned int 
  3119 ;; Registers used:
  3120 ;;		wreg, status,2, status,0
  3121 ;; Tracked objects:
  3122 ;;		On entry : 0/0
  3123 ;;		On exit  : 0/0
  3124 ;;		Unchanged: 0/0
  3125 ;; Data sizes:     COMMON   BANK0   BANK1   BANK3   BANK2
  3126 ;;      Params:         4       0       0       0       0
  3127 ;;      Locals:         3       0       0       0       0
  3128 ;;      Temps:          1       0       0       0       0
  3129 ;;      Totals:         8       0       0       0       0
  3130 ;;Total ram usage:        8 bytes
  3131 ;; Hardware stack levels used:    1
  3132 ;; This function calls:
  3133 ;;		Nothing
  3134 ;; This function is called by:
  3135 ;;		_main
  3136 ;; This function uses a non-reentrant model
  3137 ;;
  3138                           
  3139                           
  3140                           ;psect for function ___lwdiv
  3141  0245                     ___lwdiv:	
  3142  0245                     l1465:	
  3143                           ;incstack = 0
  3144                           ; Regs used in ___lwdiv: [wreg+status,2+status,0]
  3145                           
  3146  0245  01F5               	clrf	___lwdiv@quotient
  3147  0246  01F6               	clrf	___lwdiv@quotient+1
  3148  0247                     l1467:	
  3149  0247  0870               	movf	___lwdiv@divisor,w
  3150  0248  0471               	iorwf	___lwdiv@divisor+1,w
  3151  0249  1903               	btfsc	3,2
  3152  024A  2A4C               	goto	u1091
  3153  024B  2A4D               	goto	u1090
  3154  024C                     u1091:	
  3155  024C  2A84               	goto	l1487
  3156  024D                     u1090:	
  3157  024D                     l1469:	
  3158  024D  01F7               	clrf	___lwdiv@counter
  3159  024E  0AF7               	incf	___lwdiv@counter,f
  3160  024F  2A5B               	goto	l1475
  3161  0250                     l1471:	
  3162  0250  3001               	movlw	1
  3163  0251                     u1105:	
  3164  0251  1003               	clrc
  3165  0252  0DF0               	rlf	___lwdiv@divisor,f
  3166  0253  0DF1               	rlf	___lwdiv@divisor+1,f
  3167  0254  3EFF               	addlw	-1
  3168  0255  1D03               	skipz
  3169  0256  2A51               	goto	u1105
  3170  0257                     l1473:	
  3171  0257  3001               	movlw	1
  3172  0258  00F4               	movwf	??___lwdiv
  3173  0259  0874               	movf	??___lwdiv,w
  3174  025A  07F7               	addwf	___lwdiv@counter,f
  3175  025B                     l1475:	
  3176  025B  1FF1               	btfss	___lwdiv@divisor+1,7
  3177  025C  2A5E               	goto	u1111
  3178  025D  2A5F               	goto	u1110
  3179  025E                     u1111:	
  3180  025E  2A50               	goto	l1471
  3181  025F                     u1110:	
  3182  025F                     l1477:	
  3183  025F  3001               	movlw	1
  3184  0260                     u1125:	
  3185  0260  1003               	clrc
  3186  0261  0DF5               	rlf	___lwdiv@quotient,f
  3187  0262  0DF6               	rlf	___lwdiv@quotient+1,f
  3188  0263  3EFF               	addlw	-1
  3189  0264  1D03               	skipz
  3190  0265  2A60               	goto	u1125
  3191  0266  0871               	movf	___lwdiv@divisor+1,w
  3192  0267  0273               	subwf	___lwdiv@dividend+1,w
  3193  0268  1D03               	skipz
  3194  0269  2A6C               	goto	u1135
  3195  026A  0870               	movf	___lwdiv@divisor,w
  3196  026B  0272               	subwf	___lwdiv@dividend,w
  3197  026C                     u1135:	
  3198  026C  1C03               	skipc
  3199  026D  2A6F               	goto	u1131
  3200  026E  2A70               	goto	u1130
  3201  026F                     u1131:	
  3202  026F  2A77               	goto	l1483
  3203  0270                     u1130:	
  3204  0270                     l1479:	
  3205  0270  0870               	movf	___lwdiv@divisor,w
  3206  0271  02F2               	subwf	___lwdiv@dividend,f
  3207  0272  0871               	movf	___lwdiv@divisor+1,w
  3208  0273  1C03               	skipc
  3209  0274  03F3               	decf	___lwdiv@dividend+1,f
  3210  0275  02F3               	subwf	___lwdiv@dividend+1,f
  3211  0276                     l1481:	
  3212  0276  1475               	bsf	___lwdiv@quotient,0
  3213  0277                     l1483:	
  3214  0277  3001               	movlw	1
  3215  0278                     u1145:	
  3216  0278  1003               	clrc
  3217  0279  0CF1               	rrf	___lwdiv@divisor+1,f
  3218  027A  0CF0               	rrf	___lwdiv@divisor,f
  3219  027B  3EFF               	addlw	-1
  3220  027C  1D03               	skipz
  3221  027D  2A78               	goto	u1145
  3222  027E                     l1485:	
  3223  027E  3001               	movlw	1
  3224  027F  02F7               	subwf	___lwdiv@counter,f
  3225  0280  1D03               	btfss	3,2
  3226  0281  2A83               	goto	u1151
  3227  0282  2A84               	goto	u1150
  3228  0283                     u1151:	
  3229  0283  2A5F               	goto	l1477
  3230  0284                     u1150:	
  3231  0284                     l1487:	
  3232  0284  0876               	movf	___lwdiv@quotient+1,w
  3233  0285  00F1               	movwf	?___lwdiv+1
  3234  0286  0875               	movf	___lwdiv@quotient,w
  3235  0287  00F0               	movwf	?___lwdiv
  3236  0288                     l517:	
  3237  0288  0008               	return
  3238  0289                     __end_of___lwdiv:	
  3239                           
  3240                           	psect	text20
  3241  03BA                     __ptext20:	
  3242 ;; *************** function ___fltol *****************
  3243 ;; Defined at:
  3244 ;;		line 43 in file "C:\Program Files (x86)\Microchip\xc8\v2.10\pic\sources\c90\common\fltol.c"
  3245 ;; Parameters:    Size  Location     Type
  3246 ;;  f1              4   26[BANK0 ] unsigned int 
  3247 ;; Auto vars:     Size  Location     Type
  3248 ;;  exp1            1   36[BANK0 ] unsigned char 
  3249 ;;  sign1           1   35[BANK0 ] unsigned char 
  3250 ;; Return value:  Size  Location     Type
  3251 ;;                  4   26[BANK0 ] long 
  3252 ;; Registers used:
  3253 ;;		wreg, status,2, status,0
  3254 ;; Tracked objects:
  3255 ;;		On entry : 0/0
  3256 ;;		On exit  : 0/0
  3257 ;;		Unchanged: 0/0
  3258 ;; Data sizes:     COMMON   BANK0   BANK1   BANK3   BANK2
  3259 ;;      Params:         0       4       0       0       0
  3260 ;;      Locals:         0       2       0       0       0
  3261 ;;      Temps:          0       5       0       0       0
  3262 ;;      Totals:         0      11       0       0       0
  3263 ;;Total ram usage:       11 bytes
  3264 ;; Hardware stack levels used:    1
  3265 ;; This function calls:
  3266 ;;		Nothing
  3267 ;; This function is called by:
  3268 ;;		_main
  3269 ;; This function uses a non-reentrant model
  3270 ;;
  3271                           
  3272                           
  3273                           ;psect for function ___fltol
  3274  03BA                     ___fltol:	
  3275  03BA                     l1429:	
  3276                           ;incstack = 0
  3277                           ; Regs used in ___fltol: [wreg+status,2+status,0]
  3278                           
  3279  03BA  1003               	clrc
  3280  03BB  1283               	bcf	3,5	;RP0=0, select bank0
  3281  03BC  1303               	bcf	3,6	;RP1=0, select bank0
  3282  03BD  0D3C               	rlf	___fltol@f1+2,w
  3283  03BE  0D3D               	rlf	___fltol@f1+3,w
  3284  03BF  00BE               	movwf	??___fltol
  3285  03C0  083E               	movf	??___fltol,w
  3286  03C1  00C4               	movwf	___fltol@exp1
  3287  03C2  0844               	movf	___fltol@exp1,w
  3288  03C3  1D03               	btfss	3,2
  3289  03C4  2BC6               	goto	u991
  3290  03C5  2BC7               	goto	u990
  3291  03C6                     u991:	
  3292  03C6  2BD0               	goto	l1435
  3293  03C7                     u990:	
  3294  03C7                     l1431:	
  3295  03C7  3000               	movlw	0
  3296  03C8  00BD               	movwf	?___fltol+3
  3297  03C9  3000               	movlw	0
  3298  03CA  00BC               	movwf	?___fltol+2
  3299  03CB  3000               	movlw	0
  3300  03CC  00BB               	movwf	?___fltol+1
  3301  03CD  3000               	movlw	0
  3302  03CE  00BA               	movwf	?___fltol
  3303  03CF  2C35               	goto	l431
  3304  03D0                     l1435:	
  3305  03D0  083A               	movf	___fltol@f1,w
  3306  03D1  00BE               	movwf	??___fltol
  3307  03D2  083B               	movf	___fltol@f1+1,w
  3308  03D3  00BF               	movwf	??___fltol+1
  3309  03D4  083C               	movf	___fltol@f1+2,w
  3310  03D5  00C0               	movwf	??___fltol+2
  3311  03D6  083D               	movf	___fltol@f1+3,w
  3312  03D7  00C1               	movwf	??___fltol+3
  3313  03D8  301F               	movlw	31
  3314  03D9                     u1005:	
  3315  03D9  1003               	clrc
  3316  03DA  0CC1               	rrf	??___fltol+3,f
  3317  03DB  0CC0               	rrf	??___fltol+2,f
  3318  03DC  0CBF               	rrf	??___fltol+1,f
  3319  03DD  0CBE               	rrf	??___fltol,f
  3320  03DE                     u1000:	
  3321  03DE  3EFF               	addlw	-1
  3322  03DF  1D03               	skipz
  3323  03E0  2BD9               	goto	u1005
  3324  03E1  083E               	movf	??___fltol,w
  3325  03E2  00C2               	movwf	??___fltol+4
  3326  03E3  0842               	movf	??___fltol+4,w
  3327  03E4  00C3               	movwf	___fltol@sign1
  3328  03E5                     l1437:	
  3329  03E5  17BC               	bsf	___fltol@f1+2,7
  3330  03E6                     l1439:	
  3331  03E6  30FF               	movlw	255
  3332  03E7  05BA               	andwf	___fltol@f1,f
  3333  03E8  30FF               	movlw	255
  3334  03E9  05BB               	andwf	___fltol@f1+1,f
  3335  03EA  30FF               	movlw	255
  3336  03EB  05BC               	andwf	___fltol@f1+2,f
  3337  03EC  3000               	movlw	0
  3338  03ED  05BD               	andwf	___fltol@f1+3,f
  3339  03EE                     l1441:	
  3340  03EE  3096               	movlw	150
  3341  03EF  02C4               	subwf	___fltol@exp1,f
  3342  03F0                     l1443:	
  3343  03F0  1FC4               	btfss	___fltol@exp1,7
  3344  03F1  2BF3               	goto	u1011
  3345  03F2  2BF4               	goto	u1010
  3346  03F3                     u1011:	
  3347  03F3  2C0E               	goto	l1453
  3348  03F4                     u1010:	
  3349  03F4                     l1445:	
  3350  03F4  0844               	movf	___fltol@exp1,w
  3351  03F5  3A80               	xorlw	128
  3352  03F6  3E97               	addlw	151
  3353  03F7  1803               	skipnc
  3354  03F8  2BFA               	goto	u1021
  3355  03F9  2BFB               	goto	u1020
  3356  03FA                     u1021:	
  3357  03FA  2BFC               	goto	l1451
  3358  03FB                     u1020:	
  3359  03FB  2BC7               	goto	l1431
  3360  03FC                     l1451:	
  3361  03FC  3001               	movlw	1
  3362  03FD                     u1035:	
  3363  03FD  1003               	clrc
  3364  03FE  0CBD               	rrf	___fltol@f1+3,f
  3365  03FF  0CBC               	rrf	___fltol@f1+2,f
  3366  0400  0CBB               	rrf	___fltol@f1+1,f
  3367  0401  0CBA               	rrf	___fltol@f1,f
  3368  0402  3EFF               	addlw	-1
  3369  0403  1D03               	skipz
  3370  0404  2BFD               	goto	u1035
  3371  0405  3001               	movlw	1
  3372  0406  00BE               	movwf	??___fltol
  3373  0407  083E               	movf	??___fltol,w
  3374  0408  07C4               	addwf	___fltol@exp1,f
  3375  0409  1D03               	btfss	3,2
  3376  040A  2C0C               	goto	u1041
  3377  040B  2C0D               	goto	u1040
  3378  040C                     u1041:	
  3379  040C  2BFC               	goto	l1451
  3380  040D                     u1040:	
  3381  040D  2C25               	goto	l1461
  3382  040E                     l1453:	
  3383  040E  3020               	movlw	32
  3384  040F  0244               	subwf	___fltol@exp1,w
  3385  0410  1C03               	skipc
  3386  0411  2C13               	goto	u1051
  3387  0412  2C14               	goto	u1050
  3388  0413                     u1051:	
  3389  0413  2C20               	goto	l438
  3390  0414                     u1050:	
  3391  0414  2BC7               	goto	l1431
  3392  0415                     l1459:	
  3393  0415  3001               	movlw	1
  3394  0416  00BE               	movwf	??___fltol
  3395  0417                     u1065:	
  3396  0417  1003               	clrc
  3397  0418  0DBA               	rlf	___fltol@f1,f
  3398  0419  0DBB               	rlf	___fltol@f1+1,f
  3399  041A  0DBC               	rlf	___fltol@f1+2,f
  3400  041B  0DBD               	rlf	___fltol@f1+3,f
  3401  041C  0BBE               	decfsz	??___fltol,f
  3402  041D  2C17               	goto	u1065
  3403  041E  3001               	movlw	1
  3404  041F  02C4               	subwf	___fltol@exp1,f
  3405  0420                     l438:	
  3406  0420  0844               	movf	___fltol@exp1,w
  3407  0421  1D03               	btfss	3,2
  3408  0422  2C24               	goto	u1071
  3409  0423  2C25               	goto	u1070
  3410  0424                     u1071:	
  3411  0424  2C15               	goto	l1459
  3412  0425                     u1070:	
  3413  0425                     l1461:	
  3414  0425  0843               	movf	___fltol@sign1,w
  3415  0426  1903               	btfsc	3,2
  3416  0427  2C29               	goto	u1081
  3417  0428  2C2A               	goto	u1080
  3418  0429                     u1081:	
  3419  0429  2C35               	goto	l441
  3420  042A                     u1080:	
  3421  042A                     l1463:	
  3422  042A  09BA               	comf	___fltol@f1,f
  3423  042B  09BB               	comf	___fltol@f1+1,f
  3424  042C  09BC               	comf	___fltol@f1+2,f
  3425  042D  09BD               	comf	___fltol@f1+3,f
  3426  042E  0ABA               	incf	___fltol@f1,f
  3427  042F  1903               	skipnz
  3428  0430  0ABB               	incf	___fltol@f1+1,f
  3429  0431  1903               	skipnz
  3430  0432  0ABC               	incf	___fltol@f1+2,f
  3431  0433  1903               	skipnz
  3432  0434  0ABD               	incf	___fltol@f1+3,f
  3433  0435                     l441:	
  3434  0435                     l431:	
  3435  0435  0008               	return
  3436  0436                     __end_of___fltol:	
  3437                           
  3438                           	psect	text21
  3439  0615                     __ptext21:	
  3440 ;; *************** function ___fldiv *****************
  3441 ;; Defined at:
  3442 ;;		line 8 in file "C:\Program Files (x86)\Microchip\xc8\v2.10\pic\sources\c90\common\sprcdiv.c"
  3443 ;; Parameters:    Size  Location     Type
  3444 ;;  a               4    0[BANK0 ] long 
  3445 ;;  b               4    4[BANK0 ] long 
  3446 ;; Auto vars:     Size  Location     Type
  3447 ;;  grs             4   20[BANK0 ] unsigned long 
  3448 ;;  rem             4   13[BANK0 ] unsigned long 
  3449 ;;  new_exp         2   18[BANK0 ] int 
  3450 ;;  aexp            1   25[BANK0 ] unsigned char 
  3451 ;;  bexp            1   24[BANK0 ] unsigned char 
  3452 ;;  sign            1   17[BANK0 ] unsigned char 
  3453 ;; Return value:  Size  Location     Type
  3454 ;;                  4    0[BANK0 ] unsigned char 
  3455 ;; Registers used:
  3456 ;;		wreg, status,2, status,0, btemp+1
  3457 ;; Tracked objects:
  3458 ;;		On entry : 0/0
  3459 ;;		On exit  : 0/0
  3460 ;;		Unchanged: 0/0
  3461 ;; Data sizes:     COMMON   BANK0   BANK1   BANK3   BANK2
  3462 ;;      Params:         0       8       0       0       0
  3463 ;;      Locals:         0      13       0       0       0
  3464 ;;      Temps:          0       5       0       0       0
  3465 ;;      Totals:         0      26       0       0       0
  3466 ;;Total ram usage:       26 bytes
  3467 ;; Hardware stack levels used:    1
  3468 ;; This function calls:
  3469 ;;		Nothing
  3470 ;; This function is called by:
  3471 ;;		_main
  3472 ;; This function uses a non-reentrant model
  3473 ;;
  3474                           
  3475                           
  3476                           ;psect for function ___fldiv
  3477  0615                     ___fldiv:	
  3478  0615                     l1513:	
  3479                           ;incstack = 0
  3480                           ; Regs used in ___fldiv: [wreg+status,2+status,0+btemp+1]
  3481                           
  3482  0615  1283               	bcf	3,5	;RP0=0, select bank0
  3483  0616  1303               	bcf	3,6	;RP1=0, select bank0
  3484  0617  0827               	movf	___fldiv@b+3,w
  3485  0618  3980               	andlw	128
  3486  0619  00A8               	movwf	??___fldiv
  3487  061A  0828               	movf	??___fldiv,w
  3488  061B  00B1               	movwf	___fldiv@sign
  3489  061C                     l1515:	
  3490  061C  0827               	movf	___fldiv@b+3,w
  3491  061D  00A8               	movwf	??___fldiv
  3492  061E  0728               	addwf	??___fldiv,w
  3493  061F  00A9               	movwf	??___fldiv+1
  3494  0620  0829               	movf	??___fldiv+1,w
  3495  0621  00B8               	movwf	___fldiv@bexp
  3496  0622                     l1517:	
  3497  0622  1FA6               	btfss	___fldiv@b+2,7
  3498  0623  2E25               	goto	u1221
  3499  0624  2E26               	goto	u1220
  3500  0625                     u1221:	
  3501  0625  2E27               	goto	l1521
  3502  0626                     u1220:	
  3503  0626                     l1519:	
  3504  0626  1438               	bsf	___fldiv@bexp,0
  3505  0627                     l1521:	
  3506  0627  0838               	movf	___fldiv@bexp,w
  3507  0628  1903               	btfsc	3,2
  3508  0629  2E2B               	goto	u1231
  3509  062A  2E2C               	goto	u1230
  3510  062B                     u1231:	
  3511  062B  2E3C               	goto	l1531
  3512  062C                     u1230:	
  3513  062C                     l1523:	
  3514  062C  0A38               	incf	___fldiv@bexp,w
  3515  062D  1D03               	btfss	3,2
  3516  062E  2E30               	goto	u1241
  3517  062F  2E31               	goto	u1240
  3518  0630                     u1241:	
  3519  0630  2E39               	goto	l1527
  3520  0631                     u1240:	
  3521  0631                     l1525:	
  3522  0631  3000               	movlw	0
  3523  0632  00A7               	movwf	___fldiv@b+3
  3524  0633  3000               	movlw	0
  3525  0634  00A6               	movwf	___fldiv@b+2
  3526  0635  3000               	movlw	0
  3527  0636  00A5               	movwf	___fldiv@b+1
  3528  0637  3000               	movlw	0
  3529  0638  00A4               	movwf	___fldiv@b
  3530  0639                     l1527:	
  3531  0639  17A6               	bsf	___fldiv@b+2,7
  3532  063A                     l1529:	
  3533  063A  01A7               	clrf	___fldiv@b+3
  3534  063B  2E44               	goto	l1533
  3535  063C                     l1531:	
  3536  063C  3000               	movlw	0
  3537  063D  00A7               	movwf	___fldiv@b+3
  3538  063E  3000               	movlw	0
  3539  063F  00A6               	movwf	___fldiv@b+2
  3540  0640  3000               	movlw	0
  3541  0641  00A5               	movwf	___fldiv@b+1
  3542  0642  3000               	movlw	0
  3543  0643  00A4               	movwf	___fldiv@b
  3544  0644                     l1533:	
  3545  0644  0823               	movf	___fldiv@a+3,w
  3546  0645  3980               	andlw	128
  3547  0646  00A8               	movwf	??___fldiv
  3548  0647  0828               	movf	??___fldiv,w
  3549  0648  06B1               	xorwf	___fldiv@sign,f
  3550  0649                     l1535:	
  3551  0649  0823               	movf	___fldiv@a+3,w
  3552  064A  00A8               	movwf	??___fldiv
  3553  064B  0728               	addwf	??___fldiv,w
  3554  064C  00A9               	movwf	??___fldiv+1
  3555  064D  0829               	movf	??___fldiv+1,w
  3556  064E  00B9               	movwf	___fldiv@aexp
  3557  064F                     l1537:	
  3558  064F  1FA2               	btfss	___fldiv@a+2,7
  3559  0650  2E52               	goto	u1251
  3560  0651  2E53               	goto	u1250
  3561  0652                     u1251:	
  3562  0652  2E54               	goto	l1541
  3563  0653                     u1250:	
  3564  0653                     l1539:	
  3565  0653  1439               	bsf	___fldiv@aexp,0
  3566  0654                     l1541:	
  3567  0654  0839               	movf	___fldiv@aexp,w
  3568  0655  1903               	btfsc	3,2
  3569  0656  2E58               	goto	u1261
  3570  0657  2E59               	goto	u1260
  3571  0658                     u1261:	
  3572  0658  2E69               	goto	l1551
  3573  0659                     u1260:	
  3574  0659                     l1543:	
  3575  0659  0A39               	incf	___fldiv@aexp,w
  3576  065A  1D03               	btfss	3,2
  3577  065B  2E5D               	goto	u1271
  3578  065C  2E5E               	goto	u1270
  3579  065D                     u1271:	
  3580  065D  2E66               	goto	l1547
  3581  065E                     u1270:	
  3582  065E                     l1545:	
  3583  065E  3000               	movlw	0
  3584  065F  00A3               	movwf	___fldiv@a+3
  3585  0660  3000               	movlw	0
  3586  0661  00A2               	movwf	___fldiv@a+2
  3587  0662  3000               	movlw	0
  3588  0663  00A1               	movwf	___fldiv@a+1
  3589  0664  3000               	movlw	0
  3590  0665  00A0               	movwf	___fldiv@a
  3591  0666                     l1547:	
  3592  0666  17A2               	bsf	___fldiv@a+2,7
  3593  0667                     l1549:	
  3594  0667  01A3               	clrf	___fldiv@a+3
  3595  0668  2E71               	goto	l594
  3596  0669                     l1551:	
  3597  0669  3000               	movlw	0
  3598  066A  00A3               	movwf	___fldiv@a+3
  3599  066B  3000               	movlw	0
  3600  066C  00A2               	movwf	___fldiv@a+2
  3601  066D  3000               	movlw	0
  3602  066E  00A1               	movwf	___fldiv@a+1
  3603  066F  3000               	movlw	0
  3604  0670  00A0               	movwf	___fldiv@a
  3605  0671                     l594:	
  3606  0671  0823               	movf	___fldiv@a+3,w
  3607  0672  0422               	iorwf	___fldiv@a+2,w
  3608  0673  0421               	iorwf	___fldiv@a+1,w
  3609  0674  0420               	iorwf	___fldiv@a,w
  3610  0675  1D03               	skipz
  3611  0676  2E78               	goto	u1281
  3612  0677  2E79               	goto	u1280
  3613  0678                     u1281:	
  3614  0678  2E92               	goto	l1561
  3615  0679                     u1280:	
  3616  0679                     l1553:	
  3617  0679  3000               	movlw	0
  3618  067A  00A7               	movwf	___fldiv@b+3
  3619  067B  3000               	movlw	0
  3620  067C  00A6               	movwf	___fldiv@b+2
  3621  067D  3000               	movlw	0
  3622  067E  00A5               	movwf	___fldiv@b+1
  3623  067F  3000               	movlw	0
  3624  0680  00A4               	movwf	___fldiv@b
  3625  0681  3080               	movlw	128
  3626  0682  04A6               	iorwf	___fldiv@b+2,f
  3627  0683  307F               	movlw	127
  3628  0684  04A7               	iorwf	___fldiv@b+3,f
  3629  0685                     l1555:	
  3630  0685  0831               	movf	___fldiv@sign,w
  3631  0686  00A8               	movwf	??___fldiv
  3632  0687  0828               	movf	??___fldiv,w
  3633  0688  04A7               	iorwf	___fldiv@b+3,f
  3634  0689                     l1557:	
  3635  0689  0827               	movf	___fldiv@b+3,w
  3636  068A  00A3               	movwf	?___fldiv+3
  3637  068B  0826               	movf	___fldiv@b+2,w
  3638  068C  00A2               	movwf	?___fldiv+2
  3639  068D  0825               	movf	___fldiv@b+1,w
  3640  068E  00A1               	movwf	?___fldiv+1
  3641  068F  0824               	movf	___fldiv@b,w
  3642  0690  00A0               	movwf	?___fldiv
  3643  0691  2FF1               	goto	l596
  3644  0692                     l1561:	
  3645  0692  0838               	movf	___fldiv@bexp,w
  3646  0693  1D03               	btfss	3,2
  3647  0694  2E96               	goto	u1291
  3648  0695  2E97               	goto	u1290
  3649  0696                     u1291:	
  3650  0696  2EA0               	goto	l1567
  3651  0697                     u1290:	
  3652  0697                     l1563:	
  3653  0697  3000               	movlw	0
  3654  0698  00A3               	movwf	?___fldiv+3
  3655  0699  3000               	movlw	0
  3656  069A  00A2               	movwf	?___fldiv+2
  3657  069B  3000               	movlw	0
  3658  069C  00A1               	movwf	?___fldiv+1
  3659  069D  3000               	movlw	0
  3660  069E  00A0               	movwf	?___fldiv
  3661  069F  2FF1               	goto	l596
  3662  06A0                     l1567:	
  3663  06A0  0838               	movf	___fldiv@bexp,w
  3664  06A1  00A8               	movwf	??___fldiv
  3665  06A2  01A9               	clrf	??___fldiv+1
  3666  06A3  0829               	movf	??___fldiv+1,w
  3667  06A4  00AB               	movwf	??___fldiv+3
  3668  06A5  0839               	movf	___fldiv@aexp,w
  3669  06A6  0228               	subwf	??___fldiv,w
  3670  06A7  00AA               	movwf	??___fldiv+2
  3671  06A8  1C03               	skipc
  3672  06A9  03AB               	decf	??___fldiv+3,f
  3673  06AA  082A               	movf	??___fldiv+2,w
  3674  06AB  3E7F               	addlw	127
  3675  06AC  00B2               	movwf	___fldiv@new_exp
  3676  06AD  082B               	movf	??___fldiv+3,w
  3677  06AE  1803               	skipnc
  3678  06AF  3E01               	addlw	1
  3679  06B0  3E00               	addlw	0
  3680  06B1  00B3               	movwf	___fldiv@new_exp+1
  3681  06B2                     l1569:	
  3682  06B2  0827               	movf	___fldiv@b+3,w
  3683  06B3  00B0               	movwf	___fldiv@rem+3
  3684  06B4  0826               	movf	___fldiv@b+2,w
  3685  06B5  00AF               	movwf	___fldiv@rem+2
  3686  06B6  0825               	movf	___fldiv@b+1,w
  3687  06B7  00AE               	movwf	___fldiv@rem+1
  3688  06B8  0824               	movf	___fldiv@b,w
  3689  06B9  00AD               	movwf	___fldiv@rem
  3690  06BA                     l1571:	
  3691  06BA  3000               	movlw	0
  3692  06BB  00A7               	movwf	___fldiv@b+3
  3693  06BC  3000               	movlw	0
  3694  06BD  00A6               	movwf	___fldiv@b+2
  3695  06BE  3000               	movlw	0
  3696  06BF  00A5               	movwf	___fldiv@b+1
  3697  06C0  3000               	movlw	0
  3698  06C1  00A4               	movwf	___fldiv@b
  3699  06C2                     l1573:	
  3700  06C2  3000               	movlw	0
  3701  06C3  00B7               	movwf	___fldiv@grs+3
  3702  06C4  3000               	movlw	0
  3703  06C5  00B6               	movwf	___fldiv@grs+2
  3704  06C6  3000               	movlw	0
  3705  06C7  00B5               	movwf	___fldiv@grs+1
  3706  06C8  3000               	movlw	0
  3707  06C9  00B4               	movwf	___fldiv@grs
  3708  06CA                     l1575:	
  3709  06CA  01B9               	clrf	___fldiv@aexp
  3710  06CB  2F16               	goto	l1595
  3711  06CC                     l1577:	
  3712  06CC  0839               	movf	___fldiv@aexp,w
  3713  06CD  1903               	btfsc	3,2
  3714  06CE  2ED0               	goto	u1301
  3715  06CF  2ED1               	goto	u1300
  3716  06D0                     u1301:	
  3717  06D0  2EF1               	goto	l1587
  3718  06D1                     u1300:	
  3719  06D1                     l1579:	
  3720  06D1  3001               	movlw	1
  3721  06D2  00A8               	movwf	??___fldiv
  3722  06D3                     u1315:	
  3723  06D3  1003               	clrc
  3724  06D4  0DAD               	rlf	___fldiv@rem,f
  3725  06D5  0DAE               	rlf	___fldiv@rem+1,f
  3726  06D6  0DAF               	rlf	___fldiv@rem+2,f
  3727  06D7  0DB0               	rlf	___fldiv@rem+3,f
  3728  06D8  0BA8               	decfsz	??___fldiv,f
  3729  06D9  2ED3               	goto	u1315
  3730  06DA  3001               	movlw	1
  3731  06DB  00A8               	movwf	??___fldiv
  3732  06DC                     u1325:	
  3733  06DC  1003               	clrc
  3734  06DD  0DA4               	rlf	___fldiv@b,f
  3735  06DE  0DA5               	rlf	___fldiv@b+1,f
  3736  06DF  0DA6               	rlf	___fldiv@b+2,f
  3737  06E0  0DA7               	rlf	___fldiv@b+3,f
  3738  06E1  0BA8               	decfsz	??___fldiv,f
  3739  06E2  2EDC               	goto	u1325
  3740  06E3                     l1581:	
  3741  06E3  1FB7               	btfss	___fldiv@grs+3,7
  3742  06E4  2EE6               	goto	u1331
  3743  06E5  2EE7               	goto	u1330
  3744  06E6                     u1331:	
  3745  06E6  2EE8               	goto	l1585
  3746  06E7                     u1330:	
  3747  06E7                     l1583:	
  3748  06E7  1424               	bsf	___fldiv@b,0
  3749  06E8                     l1585:	
  3750  06E8  3001               	movlw	1
  3751  06E9  00A8               	movwf	??___fldiv
  3752  06EA                     u1345:	
  3753  06EA  1003               	clrc
  3754  06EB  0DB4               	rlf	___fldiv@grs,f
  3755  06EC  0DB5               	rlf	___fldiv@grs+1,f
  3756  06ED  0DB6               	rlf	___fldiv@grs+2,f
  3757  06EE  0DB7               	rlf	___fldiv@grs+3,f
  3758  06EF  0BA8               	decfsz	??___fldiv,f
  3759  06F0  2EEA               	goto	u1345
  3760  06F1                     l1587:	
  3761  06F1  0823               	movf	___fldiv@a+3,w
  3762  06F2  0230               	subwf	___fldiv@rem+3,w
  3763  06F3  1D03               	skipz
  3764  06F4  2EFF               	goto	u1355
  3765  06F5  0822               	movf	___fldiv@a+2,w
  3766  06F6  022F               	subwf	___fldiv@rem+2,w
  3767  06F7  1D03               	skipz
  3768  06F8  2EFF               	goto	u1355
  3769  06F9  0821               	movf	___fldiv@a+1,w
  3770  06FA  022E               	subwf	___fldiv@rem+1,w
  3771  06FB  1D03               	skipz
  3772  06FC  2EFF               	goto	u1355
  3773  06FD  0820               	movf	___fldiv@a,w
  3774  06FE  022D               	subwf	___fldiv@rem,w
  3775  06FF                     u1355:	
  3776  06FF  1C03               	skipc
  3777  0700  2F02               	goto	u1351
  3778  0701  2F03               	goto	u1350
  3779  0702                     u1351:	
  3780  0702  2F12               	goto	l1593
  3781  0703                     u1350:	
  3782  0703                     l1589:	
  3783  0703  1737               	bsf	___fldiv@grs+3,6
  3784  0704                     l1591:	
  3785  0704  0820               	movf	___fldiv@a,w
  3786  0705  02AD               	subwf	___fldiv@rem,f
  3787  0706  0821               	movf	___fldiv@a+1,w
  3788  0707  1C03               	skipc
  3789  0708  0F21               	incfsz	___fldiv@a+1,w
  3790  0709  02AE               	subwf	___fldiv@rem+1,f
  3791  070A  0822               	movf	___fldiv@a+2,w
  3792  070B  1C03               	skipc
  3793  070C  0F22               	incfsz	___fldiv@a+2,w
  3794  070D  02AF               	subwf	___fldiv@rem+2,f
  3795  070E  0823               	movf	___fldiv@a+3,w
  3796  070F  1C03               	skipc
  3797  0710  0F23               	incfsz	___fldiv@a+3,w
  3798  0711  02B0               	subwf	___fldiv@rem+3,f
  3799  0712                     l1593:	
  3800  0712  3001               	movlw	1
  3801  0713  00A8               	movwf	??___fldiv
  3802  0714  0828               	movf	??___fldiv,w
  3803  0715  07B9               	addwf	___fldiv@aexp,f
  3804  0716                     l1595:	
  3805  0716  301A               	movlw	26
  3806  0717  0239               	subwf	___fldiv@aexp,w
  3807  0718  1C03               	skipc
  3808  0719  2F1B               	goto	u1361
  3809  071A  2F1C               	goto	u1360
  3810  071B                     u1361:	
  3811  071B  2ECC               	goto	l1577
  3812  071C                     u1360:	
  3813  071C                     l1597:	
  3814  071C  0830               	movf	___fldiv@rem+3,w
  3815  071D  042F               	iorwf	___fldiv@rem+2,w
  3816  071E  042E               	iorwf	___fldiv@rem+1,w
  3817  071F  042D               	iorwf	___fldiv@rem,w
  3818  0720  1903               	skipnz
  3819  0721  2F23               	goto	u1371
  3820  0722  2F24               	goto	u1370
  3821  0723                     u1371:	
  3822  0723  2F43               	goto	l1611
  3823  0724                     u1370:	
  3824  0724                     l1599:	
  3825  0724  1434               	bsf	___fldiv@grs,0
  3826  0725  2F43               	goto	l1611
  3827  0726                     l1601:	
  3828  0726  3001               	movlw	1
  3829  0727  00A8               	movwf	??___fldiv
  3830  0728                     u1385:	
  3831  0728  1003               	clrc
  3832  0729  0DA4               	rlf	___fldiv@b,f
  3833  072A  0DA5               	rlf	___fldiv@b+1,f
  3834  072B  0DA6               	rlf	___fldiv@b+2,f
  3835  072C  0DA7               	rlf	___fldiv@b+3,f
  3836  072D  0BA8               	decfsz	??___fldiv,f
  3837  072E  2F28               	goto	u1385
  3838  072F                     l1603:	
  3839  072F  1FB7               	btfss	___fldiv@grs+3,7
  3840  0730  2F32               	goto	u1391
  3841  0731  2F33               	goto	u1390
  3842  0732                     u1391:	
  3843  0732  2F34               	goto	l1607
  3844  0733                     u1390:	
  3845  0733                     l1605:	
  3846  0733  1424               	bsf	___fldiv@b,0
  3847  0734                     l1607:	
  3848  0734  3001               	movlw	1
  3849  0735  00A8               	movwf	??___fldiv
  3850  0736                     u1405:	
  3851  0736  1003               	clrc
  3852  0737  0DB4               	rlf	___fldiv@grs,f
  3853  0738  0DB5               	rlf	___fldiv@grs+1,f
  3854  0739  0DB6               	rlf	___fldiv@grs+2,f
  3855  073A  0DB7               	rlf	___fldiv@grs+3,f
  3856  073B  0BA8               	decfsz	??___fldiv,f
  3857  073C  2F36               	goto	u1405
  3858  073D                     l1609:	
  3859  073D  30FF               	movlw	255
  3860  073E  07B2               	addwf	___fldiv@new_exp,f
  3861  073F  1803               	skipnc
  3862  0740  0AB3               	incf	___fldiv@new_exp+1,f
  3863  0741  30FF               	movlw	255
  3864  0742  07B3               	addwf	___fldiv@new_exp+1,f
  3865  0743                     l1611:	
  3866  0743  1FA6               	btfss	___fldiv@b+2,7
  3867  0744  2F46               	goto	u1411
  3868  0745  2F47               	goto	u1410
  3869  0746                     u1411:	
  3870  0746  2F26               	goto	l1601
  3871  0747                     u1410:	
  3872  0747                     l1613:	
  3873  0747  01B9               	clrf	___fldiv@aexp
  3874  0748                     l1615:	
  3875  0748  1FB7               	btfss	___fldiv@grs+3,7
  3876  0749  2F4B               	goto	u1421
  3877  074A  2F4C               	goto	u1420
  3878  074B                     u1421:	
  3879  074B  2F68               	goto	l1623
  3880  074C                     u1420:	
  3881  074C                     l1617:	
  3882  074C  30FF               	movlw	255
  3883  074D  0534               	andwf	___fldiv@grs,w
  3884  074E  00A8               	movwf	??___fldiv
  3885  074F  30FF               	movlw	255
  3886  0750  0535               	andwf	___fldiv@grs+1,w
  3887  0751  00A9               	movwf	??___fldiv+1
  3888  0752  30FF               	movlw	255
  3889  0753  0536               	andwf	___fldiv@grs+2,w
  3890  0754  00AA               	movwf	??___fldiv+2
  3891  0755  307F               	movlw	127
  3892  0756  0537               	andwf	___fldiv@grs+3,w
  3893  0757  00AB               	movwf	??___fldiv+3
  3894  0758  082B               	movf	??___fldiv+3,w
  3895  0759  042A               	iorwf	??___fldiv+2,w
  3896  075A  0429               	iorwf	??___fldiv+1,w
  3897  075B  0428               	iorwf	??___fldiv,w
  3898  075C  1903               	skipnz
  3899  075D  2F5F               	goto	u1431
  3900  075E  2F60               	goto	u1430
  3901  075F                     u1431:	
  3902  075F  2F63               	goto	l610
  3903  0760                     u1430:	
  3904  0760                     l1619:	
  3905  0760  01B9               	clrf	___fldiv@aexp
  3906  0761  0AB9               	incf	___fldiv@aexp,f
  3907  0762  2F68               	goto	l1623
  3908  0763                     l610:	
  3909  0763  1C24               	btfss	___fldiv@b,0
  3910  0764  2F66               	goto	u1441
  3911  0765  2F67               	goto	u1440
  3912  0766                     u1441:	
  3913  0766  2F68               	goto	l1623
  3914  0767                     u1440:	
  3915  0767  2F60               	goto	l1619
  3916  0768                     l1623:	
  3917  0768  0839               	movf	___fldiv@aexp,w
  3918  0769  1903               	btfsc	3,2
  3919  076A  2F6C               	goto	u1451
  3920  076B  2F6D               	goto	u1450
  3921  076C                     u1451:	
  3922  076C  2F9E               	goto	l1633
  3923  076D                     u1450:	
  3924  076D                     l1625:	
  3925  076D  3001               	movlw	1
  3926  076E  07A4               	addwf	___fldiv@b,f
  3927  076F  3000               	movlw	0
  3928  0770  1803               	skipnc
  3929  0771  3001               	movlw	1
  3930  0772  07A5               	addwf	___fldiv@b+1,f
  3931  0773  3000               	movlw	0
  3932  0774  1803               	skipnc
  3933  0775  3001               	movlw	1
  3934  0776  07A6               	addwf	___fldiv@b+2,f
  3935  0777  3000               	movlw	0
  3936  0778  1803               	skipnc
  3937  0779  3001               	movlw	1
  3938  077A  07A7               	addwf	___fldiv@b+3,f
  3939  077B                     l1627:	
  3940  077B  1C27               	btfss	___fldiv@b+3,0
  3941  077C  2F7E               	goto	u1461
  3942  077D  2F7F               	goto	u1460
  3943  077E                     u1461:	
  3944  077E  2F9E               	goto	l1633
  3945  077F                     u1460:	
  3946  077F                     l1629:	
  3947  077F  0824               	movf	___fldiv@b,w
  3948  0780  00A8               	movwf	??___fldiv
  3949  0781  0825               	movf	___fldiv@b+1,w
  3950  0782  00A9               	movwf	??___fldiv+1
  3951  0783  0826               	movf	___fldiv@b+2,w
  3952  0784  00AA               	movwf	??___fldiv+2
  3953  0785  0827               	movf	___fldiv@b+3,w
  3954  0786  00AB               	movwf	??___fldiv+3
  3955  0787  3001               	movlw	1
  3956  0788  00AC               	movwf	??___fldiv+4
  3957  0789                     u1475:	
  3958  0789  0D2B               	rlf	??___fldiv+3,w
  3959  078A  0CAB               	rrf	??___fldiv+3,f
  3960  078B  0CAA               	rrf	??___fldiv+2,f
  3961  078C  0CA9               	rrf	??___fldiv+1,f
  3962  078D  0CA8               	rrf	??___fldiv,f
  3963  078E                     u1470:	
  3964  078E  0BAC               	decfsz	??___fldiv+4,f
  3965  078F  2F89               	goto	u1475
  3966  0790  082B               	movf	??___fldiv+3,w
  3967  0791  00A7               	movwf	___fldiv@b+3
  3968  0792  082A               	movf	??___fldiv+2,w
  3969  0793  00A6               	movwf	___fldiv@b+2
  3970  0794  0829               	movf	??___fldiv+1,w
  3971  0795  00A5               	movwf	___fldiv@b+1
  3972  0796  0828               	movf	??___fldiv,w
  3973  0797  00A4               	movwf	___fldiv@b
  3974  0798                     l1631:	
  3975  0798  3001               	movlw	1
  3976  0799  07B2               	addwf	___fldiv@new_exp,f
  3977  079A  1803               	skipnc
  3978  079B  0AB3               	incf	___fldiv@new_exp+1,f
  3979  079C  3000               	movlw	0
  3980  079D  07B3               	addwf	___fldiv@new_exp+1,f
  3981  079E                     l1633:	
  3982  079E  0833               	movf	___fldiv@new_exp+1,w
  3983  079F  3A80               	xorlw	128
  3984  07A0  00FF               	movwf	btemp+1
  3985  07A1  3080               	movlw	128
  3986  07A2  027F               	subwf	btemp+1,w
  3987  07A3  1D03               	skipz
  3988  07A4  2FA7               	goto	u1485
  3989  07A5  30FF               	movlw	255
  3990  07A6  0232               	subwf	___fldiv@new_exp,w
  3991  07A7                     u1485:	
  3992  07A7  1C03               	skipc
  3993  07A8  2FAA               	goto	u1481
  3994  07A9  2FAB               	goto	u1480
  3995  07AA                     u1481:	
  3996  07AA  2FB9               	goto	l1637
  3997  07AB                     u1480:	
  3998  07AB                     l1635:	
  3999  07AB  30FF               	movlw	255
  4000  07AC  1283               	bcf	3,5	;RP0=0, select bank0
  4001  07AD  1303               	bcf	3,6	;RP1=0, select bank0
  4002  07AE  00B2               	movwf	___fldiv@new_exp
  4003  07AF  3000               	movlw	0
  4004  07B0  00B3               	movwf	___fldiv@new_exp+1
  4005  07B1  3000               	movlw	0
  4006  07B2  00A7               	movwf	___fldiv@b+3
  4007  07B3  3000               	movlw	0
  4008  07B4  00A6               	movwf	___fldiv@b+2
  4009  07B5  3000               	movlw	0
  4010  07B6  00A5               	movwf	___fldiv@b+1
  4011  07B7  3000               	movlw	0
  4012  07B8  00A4               	movwf	___fldiv@b
  4013  07B9                     l1637:	
  4014  07B9  1283               	bcf	3,5	;RP0=0, select bank0
  4015  07BA  1303               	bcf	3,6	;RP1=0, select bank0
  4016  07BB  0833               	movf	___fldiv@new_exp+1,w
  4017  07BC  3A80               	xorlw	128
  4018  07BD  00FF               	movwf	btemp+1
  4019  07BE  3080               	movlw	128
  4020  07BF  027F               	subwf	btemp+1,w
  4021  07C0  1D03               	skipz
  4022  07C1  2FC4               	goto	u1495
  4023  07C2  3001               	movlw	1
  4024  07C3  0232               	subwf	___fldiv@new_exp,w
  4025  07C4                     u1495:	
  4026  07C4  1803               	skipnc
  4027  07C5  2FC7               	goto	u1491
  4028  07C6  2FC8               	goto	u1490
  4029  07C7                     u1491:	
  4030  07C7  2FD5               	goto	l616
  4031  07C8                     u1490:	
  4032  07C8                     l1639:	
  4033  07C8  1283               	bcf	3,5	;RP0=0, select bank0
  4034  07C9  1303               	bcf	3,6	;RP1=0, select bank0
  4035  07CA  01B2               	clrf	___fldiv@new_exp
  4036  07CB  01B3               	clrf	___fldiv@new_exp+1
  4037  07CC                     l1641:	
  4038  07CC  3000               	movlw	0
  4039  07CD  00A7               	movwf	___fldiv@b+3
  4040  07CE  3000               	movlw	0
  4041  07CF  00A6               	movwf	___fldiv@b+2
  4042  07D0  3000               	movlw	0
  4043  07D1  00A5               	movwf	___fldiv@b+1
  4044  07D2  3000               	movlw	0
  4045  07D3  00A4               	movwf	___fldiv@b
  4046  07D4                     l1643:	
  4047  07D4  01B1               	clrf	___fldiv@sign
  4048  07D5                     l616:	
  4049  07D5  1283               	bcf	3,5	;RP0=0, select bank0
  4050  07D6  1303               	bcf	3,6	;RP1=0, select bank0
  4051  07D7  0832               	movf	___fldiv@new_exp,w
  4052  07D8  00A8               	movwf	??___fldiv
  4053  07D9  0828               	movf	??___fldiv,w
  4054  07DA  00B8               	movwf	___fldiv@bexp
  4055  07DB                     l1645:	
  4056  07DB  1C38               	btfss	___fldiv@bexp,0
  4057  07DC  2FDE               	goto	u1501
  4058  07DD  2FDF               	goto	u1500
  4059  07DE                     u1501:	
  4060  07DE  2FE1               	goto	l1649
  4061  07DF                     u1500:	
  4062  07DF                     l1647:	
  4063  07DF  17A6               	bsf	___fldiv@b+2,7
  4064  07E0  2FE5               	goto	l618
  4065  07E1                     l1649:	
  4066  07E1  307F               	movlw	127
  4067  07E2  00A8               	movwf	??___fldiv
  4068  07E3  0828               	movf	??___fldiv,w
  4069  07E4  05A6               	andwf	___fldiv@b+2,f
  4070  07E5                     l618:	
  4071  07E5  0838               	movf	___fldiv@bexp,w
  4072  07E6  00A8               	movwf	??___fldiv
  4073  07E7  1003               	clrc
  4074  07E8  0C28               	rrf	??___fldiv,w
  4075  07E9  00A9               	movwf	??___fldiv+1
  4076  07EA  0829               	movf	??___fldiv+1,w
  4077  07EB  00A7               	movwf	___fldiv@b+3
  4078  07EC  0831               	movf	___fldiv@sign,w
  4079  07ED  00A8               	movwf	??___fldiv
  4080  07EE  0828               	movf	??___fldiv,w
  4081  07EF  04A7               	iorwf	___fldiv@b+3,f
  4082  07F0  2E89               	goto	l1557
  4083  07F1                     l596:	
  4084  07F1  0008               	return
  4085  07F2                     __end_of___fldiv:	
  4086  007E                     btemp	set	126	;btemp
  4087  007E                     wtemp0	set	126


Data Sizes:
    Strings     6
    Constant    0
    Data        0
    BSS         8
    Persistent  0
    Stack       0

Auto Spaces:
    Space          Size  Autos    Used
    COMMON           14     14      14
    BANK0            80     38      46
    BANK1            80      0       0
    BANK3            96      0       0
    BANK2            96      0       0

Pointer List with Targets:

    lcd8_dispString@value	PTR unsigned char  size(1) Largest target is 3
		 -> STR_2(CODE[3]), STR_1(CODE[3]), 


Critical Paths under _main in COMMON

    _main->___xxtofl
    _lcd8_setCursor->_lcd8_cmd
    _lcd8_init->_lcd8_cmd
    _lcd8_cmd->_delay_1ms
    _lcd8_dispString->_lcd8_write
    _lcd8_dispChar->_lcd8_write
    _lcd8_write->_delay_1ms
    _i2c_master_init->___lldiv
    ___fltol->___xxtofl
    ___fldiv->___xxtofl

Critical Paths under _main in BANK0

    _main->___fltol
    ___fltol->___fldiv

Critical Paths under _main in BANK1

    None.

Critical Paths under _main in BANK3

    None.

Critical Paths under _main in BANK2

    None.

Call Graph Tables:

 ---------------------------------------------------------------------------------
 (Depth) Function   	        Calls       Base Space   Used Autos Params    Refs
 ---------------------------------------------------------------------------------
 (0) _main                                                 1     1      0    4581
                                             37 BANK0      1     1      0
                            ___fldiv
                            ___fltol
                            ___lwdiv
                            ___lwmod
                           ___xxtofl
                          _delay_1ms
                     _i2c_masterRead
                    _i2c_masterStart
                     _i2c_masterStop
                    _i2c_masterWrite
                    _i2c_master_init
                      _lcd8_dispChar
                    _lcd8_dispString
                          _lcd8_init
                     _lcd8_setCursor
                            _oscInit
                              _setup
 ---------------------------------------------------------------------------------
 (1) _setup                                                0     0      0       0
 ---------------------------------------------------------------------------------
 (1) _oscInit                                              3     3      0      28
                                              0 COMMON     3     3      0
 ---------------------------------------------------------------------------------
 (1) _lcd8_setCursor                                       2     1      1     460
                                              3 COMMON     2     1      1
                           _lcd8_cmd
 ---------------------------------------------------------------------------------
 (1) _lcd8_init                                            2     2      0      68
                                              3 COMMON     2     2      0
                           _lcd8_cmd
 ---------------------------------------------------------------------------------
 (2) _lcd8_cmd                                             1     1      0      68
                                              2 COMMON     1     1      0
                          _delay_1ms
 ---------------------------------------------------------------------------------
 (1) _lcd8_dispString                                      3     3      0     331
                                              4 COMMON     3     3      0
                         _lcd8_write
 ---------------------------------------------------------------------------------
 (1) _lcd8_dispChar                                        1     1      0     242
                                              4 COMMON     1     1      0
                         _lcd8_write
 ---------------------------------------------------------------------------------
 (2) _lcd8_write                                           2     0      2     220
                                              2 COMMON     2     0      2
                          _delay_1ms
 ---------------------------------------------------------------------------------
 (3) _delay_1ms                                            2     2      0      46
                                              0 COMMON     2     2      0
 ---------------------------------------------------------------------------------
 (1) _i2c_master_init                                      8     4      4     412
                                              0 BANK0      8     4      4
                            ___lldiv
 ---------------------------------------------------------------------------------
 (2) ___lldiv                                             14     6      8     314
                                              0 COMMON    14     6      8
 ---------------------------------------------------------------------------------
 (1) _i2c_masterWrite                                      2     0      2      98
                                              0 COMMON     2     0      2
                     _i2c_masterWait
 ---------------------------------------------------------------------------------
 (1) _i2c_masterStop                                       0     0      0       0
                     _i2c_masterWait
 ---------------------------------------------------------------------------------
 (1) _i2c_masterStart                                      0     0      0       0
                     _i2c_masterWait
 ---------------------------------------------------------------------------------
 (1) _i2c_masterRead                                       6     4      2     143
                                              0 COMMON     6     4      2
                     _i2c_masterWait
 ---------------------------------------------------------------------------------
 (2) _i2c_masterWait                                       0     0      0       0
 ---------------------------------------------------------------------------------
 (1) ___xxtofl                                            14    10      4     398
                                              0 COMMON    14    10      4
 ---------------------------------------------------------------------------------
 (1) ___lwmod                                              6     2      4     463
                                              0 COMMON     6     2      4
 ---------------------------------------------------------------------------------
 (1) ___lwdiv                                              8     4      4     314
                                              0 COMMON     8     4      4
 ---------------------------------------------------------------------------------
 (1) ___fltol                                             11     7      4     305
                                             26 BANK0     11     7      4
                            ___fldiv (ARG)
                           ___xxtofl (ARG)
 ---------------------------------------------------------------------------------
 (1) ___fldiv                                             26    18      8    1273
                                              0 BANK0     26    18      8
                           ___xxtofl (ARG)
 ---------------------------------------------------------------------------------
 Estimated maximum stack depth 3
 ---------------------------------------------------------------------------------

 Call Graph Graphs:

 _main (ROOT)
   ___fldiv
     ___xxtofl (ARG)
   ___fltol
     ___fldiv (ARG)
       ___xxtofl (ARG)
     ___xxtofl (ARG)
   ___lwdiv
   ___lwmod
   ___xxtofl
   _delay_1ms
   _i2c_masterRead
     _i2c_masterWait
   _i2c_masterStart
     _i2c_masterWait
   _i2c_masterStop
     _i2c_masterWait
   _i2c_masterWrite
     _i2c_masterWait
   _i2c_master_init
     ___lldiv
   _lcd8_dispChar
     _lcd8_write
       _delay_1ms
   _lcd8_dispString
     _lcd8_write
       _delay_1ms
   _lcd8_init
     _lcd8_cmd
       _delay_1ms
   _lcd8_setCursor
     _lcd8_cmd
       _delay_1ms
   _oscInit
   _setup

 Address spaces:
Name               Size   Autos  Total    Cost      Usage
BITCOMMON            E      0       0       0        0.0%
EEDATA             100      0       0       0        0.0%
NULL                 0      0       0       0        0.0%
CODE                 0      0       0       0        0.0%
COMMON               E      E       E       1      100.0%
BITSFR0              0      0       0       1        0.0%
SFR0                 0      0       0       1        0.0%
BITSFR1              0      0       0       2        0.0%
SFR1                 0      0       0       2        0.0%
STACK                0      0       0       2        0.0%
ABS                  0      0      3C       3        0.0%
BITBANK0            50      0       0       4        0.0%
BITSFR3              0      0       0       4        0.0%
SFR3                 0      0       0       4        0.0%
BANK0               50     26      2E       5       57.5%
BITSFR2              0      0       0       5        0.0%
SFR2                 0      0       0       5        0.0%
BITBANK1            50      0       0       6        0.0%
BANK1               50      0       0       7        0.0%
BITBANK3            60      0       0       8        0.0%
BANK3               60      0       0       9        0.0%
BITBANK2            60      0       0      10        0.0%
BANK2               60      0       0      11        0.0%
DATA                 0      0      3C      12        0.0%


Microchip Technology PIC Macro Assembler V2.10 build 88905656 
Symbol Table                                                                                   Sun Mar 08 19:17:42 2020

            ___fldiv@aexp 0039              ___fldiv@bexp 0038                         pc 0002  
            ___fldiv@sign 0031               __CFG_CP$OFF 0000                        l53 00FF  
                      l81 010A                        l84 0116                        l93 00F6  
                      l78 020A                        l87 00ED                        l96 0109  
                      fsr 0004                       l100 01CB                       l102 01D2  
                     l121 0145                       l130 019C                       l124 0134  
                     l133 0124                       l118 02DE                       l150 0347  
                     l144 015B                       l152 0351                       l153 035B  
                     l154 0365                       l139 0177                       l155 036F  
                     l156 0379                       l157 0383                       l158 038D  
                     l431 0435                       l159 03B9                       l441 0435  
                     l281 0344                       l610 0763                       l517 0288  
                     l438 0420                       l527 0244                       l616 07D5  
                     l618 07E5                       l672 0458                       l594 0671  
                     l674 04EF                       l596 07F1                       l685 04B9  
                     l686 04C5                       l678 049D              __CFG_CPD$OFF 0000  
                     u900 031E                       u901 031D                       u830 015B  
                     u831 015A                       u840 0110                       u920 033C  
                     u841 010F                       u921 033B                       u905 031A  
                     u850 0116                       u930 01EA                       u851 0115  
                     u915 032E                       u835 0157                       u940 01BE  
                     u860 02EF                       u941 01BD                       u861 02EE  
                     u950 01C8                       u951 01C7                       u935 01E5  
                     u880 0303                       u960 0162                       u881 0302  
                     u961 0161                       u970 0170                       u875 02F4  
                     u971 016F                       u980 019C                       u981 019B  
                     u990 03C7                       u991 03C6                       u895 0305  
                     fsr0 0004              __CFG_LVP$OFF 0000              ___fltol@exp1 0044  
                    l1301 012A                      l1311 02EF                      l1303 012B  
                    l1401 01C8                      l1321 031E                      l1313 02F2  
                    l1305 012C                      l1403 01CE                      l1323 032C  
                    l1315 02FF                      l1307 0131                      l1411 015D  
                    l1501 0223                      l1325 032D                      l1317 0303  
                    l1309 02DF                      l1421 017A                      l1413 0162  
                    l1333 00F7                      l1431 03C7                      l1503 022D  
                    l1407 00EE                      l1327 0336                      l1319 030C  
                    l1351 0207                      l1271 0146                      l1423 018C  
                    l1415 016A                      l1335 0346                      l1601 0726  
                    l1521 0627                      l1513 0615                      l1441 03EE  
                    l1505 0233                      l1281 010A                      l1409 00F3  
                    l1329 033C                      l1353 0208                      l1345 01D3  
                    l1425 0190                      l1361 0298                      l1417 0170  
                    l1603 072F                      l1611 0743                      l1523 062C  
                    l1531 063C                      l1515 061C                      l1451 03FC  
                    l1443 03F0                      l1435 03D0                      l1507 023A  
                    l1283 0110                      l1355 0209                      l1347 01D7  
                    l1427 0118                      l1419 0179                      l1291 013C  
                    l1371 02C6                      l1363 02A6                      l1339 0397  
                    l1613 0747                      l1605 0733                      l1541 0654  
                    l1533 0644                      l1525 0631                      l1517 0622  
                    l1461 0425                      l1445 03F4                      l1453 040E  
                    l1437 03E5                      l1429 03BA                      l1509 0240  
                    l1381 00EA                      l1349 01DA                      l1277 0148  
                    l1293 013D                      l1285 0136                      l1373 02CC  
                    l1365 02AD                      l1357 0289                      l1701 04F5  
                    l1631 0798                      l1623 0768                      l1615 0748  
                    l1607 0734                      l1543 0659                      l1551 0669  
                    l1535 0649                      l1527 0639                      l1519 0626  
                    l1463 042A                      l1439 03E6                      l1471 0250  
                    l1391 01AA                      l1383 0100                      l1279 014E  
                    l1295 0142                      l1287 013A                      l1375 02D2  
                    l1367 02BA                      l1359 0292                      l1711 051D  
                    l1703 04FB                      l1641 07CC                      l1625 076D  
                    l1633 079E                      l1617 074C                      l1609 073D  
                    l1553 0679                      l1561 0692                      l1545 065E  
                    l1537 064F                      l1529 063A                      l1481 0276  
                    l1473 0257                      l1465 0245                      l1393 01B3  
                    l1385 0105                      l1297 0125                      l1289 013B  
                    l1377 02D8                      l1369 02C0                      l1721 057A  
                    l1713 052B                      l1705 050A                      l1643 07D4  
                    l1635 07AB                      l1627 077B                      l1619 0760  
                    l1571 06BA                      l1563 0697                      l1555 0685  
                    l1547 0666                      l1539 0653                      l1459 0415  
                    l1483 0277                      l1475 025B                      l1467 0247  
                    l1491 020B                      l1395 01B8                      l1387 019D  
                    l1379 00E5                      l1299 0129                      l1731 059D  
                    l1723 0581                      l1715 0530                      l1707 050F  
                    l1645 07DB                      l1637 07B9                      l1629 077F  
                    l1581 06E3                      l1573 06C2                      l1557 0689  
                    l1549 0667                      l1485 027E                      l1477 025F  
                    l1469 024D                      l1493 0211                      l1661 0450  
                    l1397 01BE                      l1389 01A2                      l1741 05CD  
                    l1733 05A2                      l1725 0586                      l1717 0538  
                    l1709 0514                      l1647 07DF                      l1639 07C8  
                    l1591 0704                      l1583 06E7                      l1575 06CA  
                    l1567 06A0                      l1479 0270                      l1487 0284  
                    l1495 0214                      l1671 047B                      l1663 0460  
                    l1655 0437                      l1399 01C2                      l1751 060B  
                    l1743 05E2                      l1735 05B7                      l1727 058C  
                    l1719 0572                      l1649 07E1                      l1593 0712  
                    l1585 06E8                      l1577 06CC                      l1569 06B2  
                    l1497 021B                      l1681 04AF                      l1673 0482  
                    l1657 043C                      l1745 05F5                      l1737 05BC  
                    l1729 0591                      l1579 06D1                      l1587 06F1  
                    l1595 0716                      l1499 021F                      l1691 04E2  
                    l1683 04B3                      l1675 0486                      l1667 0469  
                    l1659 0440                      l1747 05FA                      l1739 05C8  
                    l1597 071C                      l1589 0703                      l1693 04E6  
                    l1685 04BD                      l1677 0494                      l1669 046E  
                    l1749 0606                      l1599 0724                      l1695 04E7  
                    l1687 04C7                      l1679 04A4                      l1689 04DD  
                    l1777 039F                      l1699 04F0                      STR_1 0009  
                    STR_2 000C                      u1000 03DE                      u1010 03F4  
                    u1011 03F3                      u1020 03FB                      u1021 03FA  
                    u1005 03D9                      u1110 025F                      u1111 025E  
                    u1040 040D                      u1041 040C                      u1105 0251  
                    u1050 0414                      u1130 0270                      u1210 0240  
                    u1051 0413                      u1035 03FD                      u1131 026F  
                    u1211 023F                      u1300 06D1                      u1220 0626  
                    u1301 06D0                      u1221 0625                      u1125 0260  
                    u1205 0234                      u1230 062C                      u1070 0425  
                    u1150 0284                      u1231 062B                      u1071 0424  
                    u1151 0283                      u1135 026C                      u1240 0631  
                    u1080 042A                      u1160 0211                      u1241 0630  
                    u1081 0429                      u1065 0417                      u1145 0278  
                    u1161 0210                      u1410 0747                      u1330 06E7  
                    u1250 0653                      u1090 024D                      u1411 0746  
                    u1331 06E6                      u1315 06D3                      u1251 0652  
                    u1091 024C                      u1500 07DF                      u1420 074C  
                    u1260 0659                      u1180 0223                      u1501 07DE  
                    u1421 074B                      u1405 0736                      u1325 06DC  
                    u1261 0658                      u1181 0222                      u1430 0760  
                    u1350 0703                      u1270 065E                      u1190 022D  
                    u1510 043C                      u1431 075F                      u1351 0702  
                    u1271 065D                      u1191 022C                      u1175 0215  
                    u1511 043B                      u1440 0767                      u1360 071C  
                    u1280 0679                      u1600 04B9                      u1520 0440  
                    u1441 0766                      u1361 071B                      u1345 06EA  
                    u1281 0678                      u1601 04B8                      u1521 043F  
                    u1450 076D                      u1370 0724                      u1290 0697  
                    u1610 04BD                      u1530 0460                      u1451 076C  
                    u1371 0723                      u1355 06FF                      u1291 0696  
                    u1195 0229                      u1611 04BC                      u1531 045F  
                    u1460 077F                      u1620 04D2                      u1461 077E  
                    u1470 078E                      u1390 0733                      u1630 04E2  
                    u1550 0481                      u1391 0732                      u1631 04E1  
                    u1551 0480                      u1480 07AB                      u1640 04E6  
                    u1481 07AA                      u1385 0728                      u1641 04E5  
                    u1625 04CD                      u1545 0473                      u1490 07C8  
                    u1570 04A3                      u1491 07C7                      u1475 0789  
                    u1571 04A2                      u1485 07A7                      u1565 0495  
                    u1590 04B3                      u1495 07C4                      u1591 04B2  
                    u1585 04A8                      u1657 0534                      u1667 028D  
                    u1677 029C                      u1687 02A8                      u1697 02B5  
            __CFG_WRT$OFF 0000                      _main 04F0                      btemp 007E  
                    start 0000             __CFG_IESO$OFF 0000           ___fldiv@new_exp 0032  
    lcd8_dispString@value 0076     __end_of_lcd8_dispChar 0125               _ultrasonico 004C  
           ___fltol@sign1 0043                     ?_main 0070                     _ACKEN 048C  
         __end_of___fldiv 07F2             __CFG_WDTE$OFF 0000           __end_of___fltol 0436  
                   _ANSEL 0188           __end_of___lldiv 0345           __end_of___lwdiv 0289  
         __end_of___lwmod 0245                     _PORTA 0005                     _TRISA 0085  
                   _TRISE 0089            __CFG_FCMEN$OFF 0000            _i2c_masterRead 019D  
          _i2c_masterWait 010A            _i2c_masterStop 00EE                     _setup 00F7  
         __end_of_oscInit 03BA            __CFG_BOREN$OFF 0000                     pclath 000A  
          _lcd8_setCursor 015C                     status 0003                     wtemp0 007E  
          __CFG_MCLRE$OFF 0000           __initialization 07F2              __end_of_main 0615  
    lcd8_dispChar@val_num 0074           _lcd8_dispString 0178                    ??_main 0045  
  __end_of_i2c_masterRead 01D3    __end_of_i2c_masterWait 0117    __end_of_i2c_masterStop 00F7  
  __end_of_lcd8_setCursor 0178                    ?_setup 0070                    _ANSELH 0189  
                  _SSPADD 0093                    _SSPCON 0014                    _SSPBUF 0013  
        __end_of___xxtofl 04F0          __end_of_lcd8_cmd 0146            __CFG_PWRTE$OFF 0000  
         _i2c_masterStart 00E5           _i2c_masterWrite 0100                 ??___fldiv 0028  
         _i2c_master_init 01D3                 ??___fltol 003E                 ??___lldiv 0078  
               ??___lwdiv 0074                 ??___lwmod 0074           ?_i2c_masterRead 0070  
         ?_i2c_masterWait 0070           ?_i2c_masterStop 0070                 ??_oscInit 0070  
         ?_lcd8_setCursor 0073              ___xxtofl@arg 007A              ___xxtofl@exp 0079  
            ___xxtofl@val 0070   __end_of__initialization 07FC                ___fltol@f1 003A  
 __end_of_lcd8_dispString 019D            __pcstackCOMMON 0070        __size_of_lcd8_init 0056  
           __end_of_setup 0100        __size_of_delay_1ms 0016               oscInit@freq 0072  
                 ??_setup 0070                __pbssBANK0 0046   __end_of_i2c_masterStart 00EE  
              _lcd8_write 0125   __end_of_i2c_masterWrite 010A   __end_of_i2c_master_init 020B  
      lcd8_setCursor@fila 0074                __pmaintext 04F0                 ?___xxtofl 0070  
               ?_lcd8_cmd 0070                   _SSPCON2 0091                   _SSPSTAT 0094  
              __stringtab 0003         __end_of_lcd8_init 02DF         __end_of_delay_1ms 015C  
        ?_lcd8_dispString 0070                   ___fldiv 0615                   ___fltol 03BA  
                 ___lldiv 02DF                   ___lwdiv 0245                   ___lwmod 020B  
                 __ptext1 00F7                   __ptext2 0345                   __ptext3 015C  
                 __ptext4 0289                   __ptext5 0135                   __ptext6 0178  
                 __ptext7 0117                   __ptext8 0125                   __ptext9 0146  
              ??___xxtofl 0074                delay_1ms@i 0070                ??_lcd8_cmd 0072  
                 _oscInit 0345             lcd8_write@dat 0072    __size_of_lcd8_dispChar 000E  
    end_of_initialization 07FC                _usCentenas 004A               ?_lcd8_write 0072  
        ?_i2c_masterStart 0070          ?_i2c_masterWrite 0070          ?_i2c_master_init 0020  
         ___lldiv@divisor 0070           ___lldiv@counter 007D          ??_i2c_masterRead 0072  
        ??_i2c_masterWait 0070          ??_i2c_masterStop 0070           i2c_masterRead@a 0070  
               _PORTEbits 0009                _usUnidades 0046          ??_lcd8_setCursor 0074  
           ___xxtofl@sign 0078                 _TRISCbits 0087               ___fldiv@grs 0034  
             ___fldiv@rem 002D             _lcd8_dispChar 0117       __size_of_lcd8_write 0010  
     start_initialization 07F2  __CFG_FOSC$INTRC_NOCLKOUT 0000            ?_lcd8_dispChar 0070  
               ___fldiv@a 0020                 ___fldiv@b 0024                 ___latbits 0002  
           __pcstackBANK0 0020         __size_of___xxtofl 00BA         __size_of_lcd8_cmd 0011  
               _lcd8_init 0289     lcd8_setCursor@columna 0073                 _delay_1ms 0146  
        ___lwdiv@dividend 0072                  ?___fldiv 0020                  ?___fltol 003A  
                ?___lldiv 0070                  ?___lwdiv 0070                  ?___lwmod 0070  
               __pstrings 0003                  ?_oscInit 0070          ___lwdiv@quotient 0075  
          __size_of_setup 0009                 _usDecenas 0048              ??_lcd8_write 0074  
         ??_lcd8_dispChar 0074                  _PIE1bits 008C                ?_lcd8_init 0070  
              ?_delay_1ms 0070                  _PIR1bits 000C               __stringbase 0008  
__size_of_lcd8_dispString 0025        __end_of_lcd8_write 0135  __size_of_i2c_masterStart 0009  
        __size_of___fldiv 01DD  __size_of_i2c_masterWrite 000A          __size_of___fltol 007C  
__size_of_i2c_master_init 0038          __size_of___lldiv 0066          __size_of___lwdiv 0044  
        __size_of___lwmod 003A        __end_of__stringtab 0009               lcd8_cmd@cmd 0072  
                ___xxtofl 0436                  _lcd8_cmd 0135           ___lwdiv@divisor 0070  
        __size_of_oscInit 0075           ___lwdiv@counter 0077                  __ptext10 01D3  
                __ptext11 02DF                  __ptext20 03BA                  __ptext12 0100  
                __ptext21 0615                  __ptext13 00EE                  __ptext14 00E5  
                __ptext15 019D                  __ptext16 010A                  __ptext17 0436  
                __ptext18 020B                  __ptext19 0245         __CFG_BOR4V$BOR40V 0000  
           __size_of_main 0125               ??_lcd8_init 0073               ??_delay_1ms 0070  
      i2c_masterRead@temp 0074       i2c_masterWrite@data 0070                _INTCONbits 000B  
 __size_of_i2c_masterRead 0036         ??_lcd8_dispString 0074   __size_of_i2c_masterWait 000D  
 __size_of_i2c_masterStop 0009   __size_of_lcd8_setCursor 001C          ___lwmod@dividend 0072  
        ___lldiv@dividend 0074                 stringcode 0003                _OSCCONbits 008F  
        ___lldiv@quotient 0079           ___lwmod@divisor 0070         ??_i2c_masterStart 0070  
       ??_i2c_masterWrite 0072           ___lwmod@counter 0075         ??_i2c_master_init 0024  
                stringdir 0003                  stringtab 0003               _SSPCON2bits 0091  
        i2c_master_init@c 0020  
