

Microchip MPLAB XC8 Assembler V2.10 build 88905656 
                                                                                               Thu Mar 12 15:29:14 2020

Microchip MPLAB XC8 C Compiler v2.10 (Free license) build 20190730164152 Og1 
     1                           	processor	16F887
     2                           	opt	pw 120
     3                           	opt	flic
     4                           	psect	strings,global,class=STRING,delta=2
     5                           	psect	cinit,global,class=CODE,merge=1,delta=2
     6                           	psect	bssCOMMON,global,class=COMMON,space=1,delta=1
     7                           	psect	bssBANK0,global,class=BANK0,space=1,delta=1
     8                           	psect	bssBANK1,global,class=BANK1,space=1,delta=1
     9                           	psect	clrtext,global,class=CODE,delta=2
    10                           	psect	cstackBANK1,global,class=BANK1,space=1,delta=1
    11                           	psect	cstackCOMMON,global,class=COMMON,space=1,delta=1
    12                           	psect	cstackBANK0,global,class=BANK0,space=1,delta=1
    13                           	psect	maintext,global,class=CODE,split=1,delta=2
    14                           	psect	text1,local,class=CODE,merge=1,delta=2
    15                           	psect	text2,local,class=CODE,merge=1,delta=2
    16                           	psect	text3,local,class=CODE,merge=1,delta=2
    17                           	psect	text4,local,class=CODE,merge=1,delta=2
    18                           	psect	text5,local,class=CODE,merge=1,delta=2
    19                           	psect	text6,local,class=CODE,merge=1,delta=2
    20                           	psect	text7,local,class=CODE,merge=1,delta=2
    21                           	psect	text8,local,class=CODE,merge=1,delta=2,group=1
    22                           	psect	text9,local,class=CODE,merge=1,delta=2,group=1
    23                           	psect	text10,local,class=CODE,merge=1,delta=2
    24                           	psect	text11,local,class=CODE,merge=1,delta=2
    25                           	psect	text12,local,class=CODE,merge=1,delta=2
    26                           	psect	text13,local,class=CODE,merge=1,delta=2
    27                           	psect	text14,local,class=CODE,merge=1,delta=2
    28                           	psect	text15,local,class=CODE,merge=1,delta=2
    29                           	psect	text16,local,class=CODE,merge=1,delta=2
    30                           	psect	text17,local,class=CODE,merge=1,delta=2
    31                           	psect	text18,local,class=CODE,merge=1,delta=2,group=1
    32                           	psect	text19,local,class=CODE,merge=1,delta=2
    33                           	psect	text20,local,class=CODE,merge=1,delta=2
    34                           	psect	text21,local,class=CODE,merge=1,delta=2
    35                           	psect	text22,local,class=CODE,merge=1,delta=2,group=1
    36                           	psect	text23,local,class=CODE,merge=1,delta=2,group=1
    37                           	psect	text24,local,class=CODE,merge=1,delta=2,group=1
    38                           	psect	text25,local,class=CODE,merge=1,delta=2,group=1
    39                           	psect	text26,local,class=CODE,merge=1,delta=2
    40                           	psect	intentry,global,class=CODE,delta=2
    41                           	dabs	1,0x7E,2
    42  0000                     
    43                           ; Version 2.10
    44                           ; Generated 31/07/2019 GMT
    45                           ; 
    46                           ; Copyright © 2019, Microchip Technology Inc. and its subsidiaries ("Microchip")
    47                           ; All rights reserved.
    48                           ; 
    49                           ; This software is developed by Microchip Technology Inc. and its subsidiaries ("Microch
      +                          ip").
    50                           ; 
    51                           ; Redistribution and use in source and binary forms, with or without modification, are
    52                           ; permitted provided that the following conditions are met:
    53                           ; 
    54                           ;     1. Redistributions of source code must retain the above copyright notice, this lis
      +                          t of
    55                           ;        conditions and the following disclaimer.
    56                           ; 
    57                           ;     2. Redistributions in binary form must reproduce the above copyright notice, this 
      +                          list
    58                           ;        of conditions and the following disclaimer in the documentation and/or other
    59                           ;        materials provided with the distribution.
    60                           ; 
    61                           ;     3. Microchip's name may not be used to endorse or promote products derived from th
      +                          is
    62                           ;        software without specific prior written permission.
    63                           ; 
    64                           ; THIS SOFTWARE IS PROVIDED BY MICROCHIP "AS IS" AND ANY EXPRESS OR IMPLIED WARRANTIES,
    65                           ; INCLUDING, BUT NOT LIMITED TO, THE IMPLIED WARRANTIES OF MERCHANTABILITY AND FITNESS F
      +                          OR
    66                           ; PURPOSE ARE DISCLAIMED.  IN NO EVENT SHALL MICROCHIP BE LIABLE FOR ANY DIRECT, INDIREC
      +                          T,
    67                           ; INCIDENTAL, SPECIAL, EXEMPLARY, OR CONSEQUENTIAL DAMAGES (INCLUDING BUT NOT LIMITED TO
    68                           ; PROCUREMENT OF SUBSTITUTE GOODS OR SERVICES; LOSS OF USE, DATA OR PROFITS; OR BUSINESS
    69                           ; INTERRUPTION) HOWSOEVER CAUSED AND ON ANY THEORY OF LIABILITY, WHETHER IN CONTRACT, ST
      +                          RICT
    70                           ; LIABILITY, OR TORT (INCLUDING NEGLIGENCE OR OTHERWISE) ARISING IN ANY WAY OUT OF THE U
      +                          SE OF
    71                           ; THIS SOFTWARE, EVEN IF ADVISED OF THE POSSIBILITY OF SUCH DAMAGE.
    72                           ; 
    73                           ; 
    74                           ; Code-generator required, PIC16F887 Definitions
    75                           ; 
    76                           ; SFR Addresses
    77  0000                     	;# 
    78  0001                     	;# 
    79  0002                     	;# 
    80  0003                     	;# 
    81  0004                     	;# 
    82  0005                     	;# 
    83  0006                     	;# 
    84  0007                     	;# 
    85  0008                     	;# 
    86  0009                     	;# 
    87  000A                     	;# 
    88  000B                     	;# 
    89  000C                     	;# 
    90  000D                     	;# 
    91  000E                     	;# 
    92  000E                     	;# 
    93  000F                     	;# 
    94  0010                     	;# 
    95  0011                     	;# 
    96  0012                     	;# 
    97  0013                     	;# 
    98  0014                     	;# 
    99  0015                     	;# 
   100  0015                     	;# 
   101  0016                     	;# 
   102  0017                     	;# 
   103  0018                     	;# 
   104  0019                     	;# 
   105  001A                     	;# 
   106  001B                     	;# 
   107  001B                     	;# 
   108  001C                     	;# 
   109  001D                     	;# 
   110  001E                     	;# 
   111  001F                     	;# 
   112  0081                     	;# 
   113  0085                     	;# 
   114  0086                     	;# 
   115  0087                     	;# 
   116  0088                     	;# 
   117  0089                     	;# 
   118  008C                     	;# 
   119  008D                     	;# 
   120  008E                     	;# 
   121  008F                     	;# 
   122  0090                     	;# 
   123  0091                     	;# 
   124  0092                     	;# 
   125  0093                     	;# 
   126  0093                     	;# 
   127  0093                     	;# 
   128  0094                     	;# 
   129  0095                     	;# 
   130  0096                     	;# 
   131  0097                     	;# 
   132  0098                     	;# 
   133  0099                     	;# 
   134  009A                     	;# 
   135  009B                     	;# 
   136  009C                     	;# 
   137  009D                     	;# 
   138  009E                     	;# 
   139  009F                     	;# 
   140  0105                     	;# 
   141  0107                     	;# 
   142  0108                     	;# 
   143  0109                     	;# 
   144  010C                     	;# 
   145  010C                     	;# 
   146  010D                     	;# 
   147  010E                     	;# 
   148  010F                     	;# 
   149  0185                     	;# 
   150  0187                     	;# 
   151  0188                     	;# 
   152  0189                     	;# 
   153  018C                     	;# 
   154  018D                     	;# 
   155  0000                     	;# 
   156  0001                     	;# 
   157  0002                     	;# 
   158  0003                     	;# 
   159  0004                     	;# 
   160  0005                     	;# 
   161  0006                     	;# 
   162  0007                     	;# 
   163  0008                     	;# 
   164  0009                     	;# 
   165  000A                     	;# 
   166  000B                     	;# 
   167  000C                     	;# 
   168  000D                     	;# 
   169  000E                     	;# 
   170  000E                     	;# 
   171  000F                     	;# 
   172  0010                     	;# 
   173  0011                     	;# 
   174  0012                     	;# 
   175  0013                     	;# 
   176  0014                     	;# 
   177  0015                     	;# 
   178  0015                     	;# 
   179  0016                     	;# 
   180  0017                     	;# 
   181  0018                     	;# 
   182  0019                     	;# 
   183  001A                     	;# 
   184  001B                     	;# 
   185  001B                     	;# 
   186  001C                     	;# 
   187  001D                     	;# 
   188  001E                     	;# 
   189  001F                     	;# 
   190  0081                     	;# 
   191  0085                     	;# 
   192  0086                     	;# 
   193  0087                     	;# 
   194  0088                     	;# 
   195  0089                     	;# 
   196  008C                     	;# 
   197  008D                     	;# 
   198  008E                     	;# 
   199  008F                     	;# 
   200  0090                     	;# 
   201  0091                     	;# 
   202  0092                     	;# 
   203  0093                     	;# 
   204  0093                     	;# 
   205  0093                     	;# 
   206  0094                     	;# 
   207  0095                     	;# 
   208  0096                     	;# 
   209  0097                     	;# 
   210  0098                     	;# 
   211  0099                     	;# 
   212  009A                     	;# 
   213  009B                     	;# 
   214  009C                     	;# 
   215  009D                     	;# 
   216  009E                     	;# 
   217  009F                     	;# 
   218  0105                     	;# 
   219  0107                     	;# 
   220  0108                     	;# 
   221  0109                     	;# 
   222  010C                     	;# 
   223  010C                     	;# 
   224  010D                     	;# 
   225  010E                     	;# 
   226  010F                     	;# 
   227  0185                     	;# 
   228  0187                     	;# 
   229  0188                     	;# 
   230  0189                     	;# 
   231  018C                     	;# 
   232  018D                     	;# 
   233  0000                     	;# 
   234  0001                     	;# 
   235  0002                     	;# 
   236  0003                     	;# 
   237  0004                     	;# 
   238  0005                     	;# 
   239  0006                     	;# 
   240  0007                     	;# 
   241  0008                     	;# 
   242  0009                     	;# 
   243  000A                     	;# 
   244  000B                     	;# 
   245  000C                     	;# 
   246  000D                     	;# 
   247  000E                     	;# 
   248  000E                     	;# 
   249  000F                     	;# 
   250  0010                     	;# 
   251  0011                     	;# 
   252  0012                     	;# 
   253  0013                     	;# 
   254  0014                     	;# 
   255  0015                     	;# 
   256  0015                     	;# 
   257  0016                     	;# 
   258  0017                     	;# 
   259  0018                     	;# 
   260  0019                     	;# 
   261  001A                     	;# 
   262  001B                     	;# 
   263  001B                     	;# 
   264  001C                     	;# 
   265  001D                     	;# 
   266  001E                     	;# 
   267  001F                     	;# 
   268  0081                     	;# 
   269  0085                     	;# 
   270  0086                     	;# 
   271  0087                     	;# 
   272  0088                     	;# 
   273  0089                     	;# 
   274  008C                     	;# 
   275  008D                     	;# 
   276  008E                     	;# 
   277  008F                     	;# 
   278  0090                     	;# 
   279  0091                     	;# 
   280  0092                     	;# 
   281  0093                     	;# 
   282  0093                     	;# 
   283  0093                     	;# 
   284  0094                     	;# 
   285  0095                     	;# 
   286  0096                     	;# 
   287  0097                     	;# 
   288  0098                     	;# 
   289  0099                     	;# 
   290  009A                     	;# 
   291  009B                     	;# 
   292  009C                     	;# 
   293  009D                     	;# 
   294  009E                     	;# 
   295  009F                     	;# 
   296  0105                     	;# 
   297  0107                     	;# 
   298  0108                     	;# 
   299  0109                     	;# 
   300  010C                     	;# 
   301  010C                     	;# 
   302  010D                     	;# 
   303  010E                     	;# 
   304  010F                     	;# 
   305  0185                     	;# 
   306  0187                     	;# 
   307  0188                     	;# 
   308  0189                     	;# 
   309  018C                     	;# 
   310  018D                     	;# 
   311  0000                     	;# 
   312  0001                     	;# 
   313  0002                     	;# 
   314  0003                     	;# 
   315  0004                     	;# 
   316  0005                     	;# 
   317  0006                     	;# 
   318  0007                     	;# 
   319  0008                     	;# 
   320  0009                     	;# 
   321  000A                     	;# 
   322  000B                     	;# 
   323  000C                     	;# 
   324  000D                     	;# 
   325  000E                     	;# 
   326  000E                     	;# 
   327  000F                     	;# 
   328  0010                     	;# 
   329  0011                     	;# 
   330  0012                     	;# 
   331  0013                     	;# 
   332  0014                     	;# 
   333  0015                     	;# 
   334  0015                     	;# 
   335  0016                     	;# 
   336  0017                     	;# 
   337  0018                     	;# 
   338  0019                     	;# 
   339  001A                     	;# 
   340  001B                     	;# 
   341  001B                     	;# 
   342  001C                     	;# 
   343  001D                     	;# 
   344  001E                     	;# 
   345  001F                     	;# 
   346  0081                     	;# 
   347  0085                     	;# 
   348  0086                     	;# 
   349  0087                     	;# 
   350  0088                     	;# 
   351  0089                     	;# 
   352  008C                     	;# 
   353  008D                     	;# 
   354  008E                     	;# 
   355  008F                     	;# 
   356  0090                     	;# 
   357  0091                     	;# 
   358  0092                     	;# 
   359  0093                     	;# 
   360  0093                     	;# 
   361  0093                     	;# 
   362  0094                     	;# 
   363  0095                     	;# 
   364  0096                     	;# 
   365  0097                     	;# 
   366  0098                     	;# 
   367  0099                     	;# 
   368  009A                     	;# 
   369  009B                     	;# 
   370  009C                     	;# 
   371  009D                     	;# 
   372  009E                     	;# 
   373  009F                     	;# 
   374  0105                     	;# 
   375  0107                     	;# 
   376  0108                     	;# 
   377  0109                     	;# 
   378  010C                     	;# 
   379  010C                     	;# 
   380  010D                     	;# 
   381  010E                     	;# 
   382  010F                     	;# 
   383  0185                     	;# 
   384  0187                     	;# 
   385  0188                     	;# 
   386  0189                     	;# 
   387  018C                     	;# 
   388  018D                     	;# 
   389  0000                     	;# 
   390  0001                     	;# 
   391  0002                     	;# 
   392  0003                     	;# 
   393  0004                     	;# 
   394  0005                     	;# 
   395  0006                     	;# 
   396  0007                     	;# 
   397  0008                     	;# 
   398  0009                     	;# 
   399  000A                     	;# 
   400  000B                     	;# 
   401  000C                     	;# 
   402  000D                     	;# 
   403  000E                     	;# 
   404  000E                     	;# 
   405  000F                     	;# 
   406  0010                     	;# 
   407  0011                     	;# 
   408  0012                     	;# 
   409  0013                     	;# 
   410  0014                     	;# 
   411  0015                     	;# 
   412  0015                     	;# 
   413  0016                     	;# 
   414  0017                     	;# 
   415  0018                     	;# 
   416  0019                     	;# 
   417  001A                     	;# 
   418  001B                     	;# 
   419  001B                     	;# 
   420  001C                     	;# 
   421  001D                     	;# 
   422  001E                     	;# 
   423  001F                     	;# 
   424  0081                     	;# 
   425  0085                     	;# 
   426  0086                     	;# 
   427  0087                     	;# 
   428  0088                     	;# 
   429  0089                     	;# 
   430  008C                     	;# 
   431  008D                     	;# 
   432  008E                     	;# 
   433  008F                     	;# 
   434  0090                     	;# 
   435  0091                     	;# 
   436  0092                     	;# 
   437  0093                     	;# 
   438  0093                     	;# 
   439  0093                     	;# 
   440  0094                     	;# 
   441  0095                     	;# 
   442  0096                     	;# 
   443  0097                     	;# 
   444  0098                     	;# 
   445  0099                     	;# 
   446  009A                     	;# 
   447  009B                     	;# 
   448  009C                     	;# 
   449  009D                     	;# 
   450  009E                     	;# 
   451  009F                     	;# 
   452  0105                     	;# 
   453  0107                     	;# 
   454  0108                     	;# 
   455  0109                     	;# 
   456  010C                     	;# 
   457  010C                     	;# 
   458  010D                     	;# 
   459  010E                     	;# 
   460  010F                     	;# 
   461  0185                     	;# 
   462  0187                     	;# 
   463  0188                     	;# 
   464  0189                     	;# 
   465  018C                     	;# 
   466  018D                     	;# 
   467  0000                     	;# 
   468  0001                     	;# 
   469  0002                     	;# 
   470  0003                     	;# 
   471  0004                     	;# 
   472  0005                     	;# 
   473  0006                     	;# 
   474  0007                     	;# 
   475  0008                     	;# 
   476  0009                     	;# 
   477  000A                     	;# 
   478  000B                     	;# 
   479  000C                     	;# 
   480  000D                     	;# 
   481  000E                     	;# 
   482  000E                     	;# 
   483  000F                     	;# 
   484  0010                     	;# 
   485  0011                     	;# 
   486  0012                     	;# 
   487  0013                     	;# 
   488  0014                     	;# 
   489  0015                     	;# 
   490  0015                     	;# 
   491  0016                     	;# 
   492  0017                     	;# 
   493  0018                     	;# 
   494  0019                     	;# 
   495  001A                     	;# 
   496  001B                     	;# 
   497  001B                     	;# 
   498  001C                     	;# 
   499  001D                     	;# 
   500  001E                     	;# 
   501  001F                     	;# 
   502  0081                     	;# 
   503  0085                     	;# 
   504  0086                     	;# 
   505  0087                     	;# 
   506  0088                     	;# 
   507  0089                     	;# 
   508  008C                     	;# 
   509  008D                     	;# 
   510  008E                     	;# 
   511  008F                     	;# 
   512  0090                     	;# 
   513  0091                     	;# 
   514  0092                     	;# 
   515  0093                     	;# 
   516  0093                     	;# 
   517  0093                     	;# 
   518  0094                     	;# 
   519  0095                     	;# 
   520  0096                     	;# 
   521  0097                     	;# 
   522  0098                     	;# 
   523  0099                     	;# 
   524  009A                     	;# 
   525  009B                     	;# 
   526  009C                     	;# 
   527  009D                     	;# 
   528  009E                     	;# 
   529  009F                     	;# 
   530  0105                     	;# 
   531  0107                     	;# 
   532  0108                     	;# 
   533  0109                     	;# 
   534  010C                     	;# 
   535  010C                     	;# 
   536  010D                     	;# 
   537  010E                     	;# 
   538  010F                     	;# 
   539  0185                     	;# 
   540  0187                     	;# 
   541  0188                     	;# 
   542  0189                     	;# 
   543  018C                     	;# 
   544  018D                     	;# 
   545                           
   546                           	psect	strings
   547  0800                     __pstrings:	
   548  0800                     stringtab:	
   549  0800                     __stringtab:	
   550  0800                     stringcode:	
   551                           ;	String table - string pointers are 1 byte each
   552                           
   553  0800                     stringdir:	
   554  0800  3008               	movlw	high stringdir
   555  0801  008A               	movwf	10
   556  0802  0804               	movf	4,w
   557  0803  0A84               	incf	4,f
   558  0804  0782               	addwf	2,f
   559  0805                     __stringbase:	
   560  0805  3400               	retlw	0
   561  0806                     __end_of__stringtab:	
   562  0806                     _dpowers:	
   563  0806  3401               	retlw	1
   564  0807  3400               	retlw	0
   565  0808  340A               	retlw	10
   566  0809  3400               	retlw	0
   567  080A  3464               	retlw	100
   568  080B  3400               	retlw	0
   569  080C  34E8               	retlw	232
   570  080D  3403               	retlw	3
   571  080E  3410               	retlw	16
   572  080F  3427               	retlw	39
   573  0810                     __end_of_dpowers:	
   574  0019                     _TXREG	set	25
   575  0018                     _RCSTAbits	set	24
   576  0013                     _SSPBUF	set	19
   577  0014                     _SSPCON	set	20
   578  000B                     _INTCONbits	set	11
   579  0005                     _PORTA	set	5
   580  001A                     _RCREG	set	26
   581  000C                     _PIR1bits	set	12
   582  0099                     _SPBRG	set	153
   583  0098                     _TXSTAbits	set	152
   584  008F                     _OSCCONbits	set	143
   585  008C                     _PIE1bits	set	140
   586  0094                     _SSPSTATbits	set	148
   587  0091                     _SSPCON2bits	set	145
   588  0087                     _TRISCbits	set	135
   589  0094                     _SSPSTAT	set	148
   590  0093                     _SSPADD	set	147
   591  0091                     _SSPCON2	set	145
   592  0086                     _TRISB	set	134
   593  0085                     _TRISA	set	133
   594  0087                     _TRISC	set	135
   595  0488                     _SEN	set	1160
   596  0187                     _BAUDCTLbits	set	391
   597  0189                     _ANSELHbits	set	393
   598  0188                     _ANSEL	set	392
   599  0810                     STR_4:	
   600  0810  3420               	retlw	32	;' '
   601  0811  3454               	retlw	84	;'T'
   602  0812  3420               	retlw	32	;' '
   603  0813  343D               	retlw	61	;'='
   604  0814  3420               	retlw	32	;' '
   605  0815  3425               	retlw	37	;'%'
   606  0816  3464               	retlw	100	;'d'
   607  0817  3420               	retlw	32	;' '
   608  0818  3420               	retlw	32	;' '
   609  0819  3420               	retlw	32	;' '
   610  081A  3420               	retlw	32	;' '
   611  081B  3420               	retlw	32	;' '
   612  081C  3420               	retlw	32	;' '
   613  081D  3400               	retlw	0
   614  081E                     STR_5:	
   615  081E  3420               	retlw	32	;' '
   616  081F  3447               	retlw	71	;'G'
   617  0820  3478               	retlw	120	;'x'
   618  0821  3420               	retlw	32	;' '
   619  0822  343D               	retlw	61	;'='
   620  0823  3420               	retlw	32	;' '
   621  0824  3425               	retlw	37	;'%'
   622  0825  3464               	retlw	100	;'d'
   623  0826  3420               	retlw	32	;' '
   624  0827  3420               	retlw	32	;' '
   625  0828  3420               	retlw	32	;' '
   626  0829  3420               	retlw	32	;' '
   627  082A  3400               	retlw	0
   628  082B                     STR_6:	
   629  082B  3420               	retlw	32	;' '
   630  082C  3447               	retlw	71	;'G'
   631  082D  3479               	retlw	121	;'y'
   632  082E  3420               	retlw	32	;' '
   633  082F  343D               	retlw	61	;'='
   634  0830  3420               	retlw	32	;' '
   635  0831  3425               	retlw	37	;'%'
   636  0832  3464               	retlw	100	;'d'
   637  0833  3420               	retlw	32	;' '
   638  0834  3420               	retlw	32	;' '
   639  0835  3420               	retlw	32	;' '
   640  0836  3420               	retlw	32	;' '
   641  0837  3400               	retlw	0
   642  0838                     STR_3:	
   643  0838  3420               	retlw	32	;' '
   644  0839  3441               	retlw	65	;'A'
   645  083A  347A               	retlw	122	;'z'
   646  083B  3420               	retlw	32	;' '
   647  083C  343D               	retlw	61	;'='
   648  083D  3420               	retlw	32	;' '
   649  083E  3425               	retlw	37	;'%'
   650  083F  3464               	retlw	100	;'d'
   651  0840  3420               	retlw	32	;' '
   652  0841  3420               	retlw	32	;' '
   653  0842  3420               	retlw	32	;' '
   654  0843  3420               	retlw	32	;' '
   655  0844  3400               	retlw	0
   656  0845                     STR_1:	
   657  0845  3441               	retlw	65	;'A'
   658  0846  3478               	retlw	120	;'x'
   659  0847  3420               	retlw	32	;' '
   660  0848  343D               	retlw	61	;'='
   661  0849  3420               	retlw	32	;' '
   662  084A  3425               	retlw	37	;'%'
   663  084B  3464               	retlw	100	;'d'
   664  084C  3420               	retlw	32	;' '
   665  084D  3420               	retlw	32	;' '
   666  084E  3420               	retlw	32	;' '
   667  084F  3420               	retlw	32	;' '
   668  0850  3400               	retlw	0
   669  0851                     STR_2:	
   670  0851  3441               	retlw	65	;'A'
   671  0852  3479               	retlw	121	;'y'
   672  0853  3420               	retlw	32	;' '
   673  0854  343D               	retlw	61	;'='
   674  0855  3420               	retlw	32	;' '
   675  0856  3425               	retlw	37	;'%'
   676  0857  3464               	retlw	100	;'d'
   677  0858  3420               	retlw	32	;' '
   678  0859  3420               	retlw	32	;' '
   679  085A  3420               	retlw	32	;' '
   680  085B  3420               	retlw	32	;' '
   681  085C  3400               	retlw	0
   682  085D                     STR_7:	
   683  085D  3420               	retlw	32	;' '
   684  085E  3447               	retlw	71	;'G'
   685  085F  347A               	retlw	122	;'z'
   686  0860  3420               	retlw	32	;' '
   687  0861  343D               	retlw	61	;'='
   688  0862  3420               	retlw	32	;' '
   689  0863  3425               	retlw	37	;'%'
   690  0864  3464               	retlw	100	;'d'
   691  0865  340D               	retlw	13
   692  0866  340A               	retlw	10
   693  0867  3400               	retlw	0
   694                           
   695                           ; #config settings
   696  0000                     
   697                           	psect	cinit
   698  000F                     start_initialization:	
   699  000F                     __initialization:	
   700                           
   701                           ; Clear objects allocated to COMMON
   702  000F  01F9               	clrf	__pbssCOMMON& (0+127)
   703  0010  01FA               	clrf	(__pbssCOMMON+1)& (0+127)
   704                           
   705                           ; Clear objects allocated to BANK0
   706  0011  1383               	bcf	3,7	;select IRP bank0
   707  0012  3061               	movlw	low __pbssBANK0
   708  0013  0084               	movwf	4
   709  0014  306F               	movlw	low (__pbssBANK0+14)
   710  0015  120A  158A  2181  120A  118A  	fcall	clear_ram0
   711                           
   712                           ; Clear objects allocated to BANK1
   713  001A  30A0               	movlw	low __pbssBANK1
   714  001B  0084               	movwf	4
   715  001C  30C6               	movlw	low (__pbssBANK1+38)
   716  001D  120A  158A  2181  120A  118A  	fcall	clear_ram0
   717  0022                     end_of_initialization:	
   718                           ;End of C runtime variable initialization code
   719                           
   720  0022                     __end_of__initialization:	
   721  0022  0183               	clrf	3
   722  0023  120A  118A  2826   	ljmp	_main	;jump to C main() function
   723                           
   724                           	psect	bssCOMMON
   725  0079                     __pbssCOMMON:	
   726  0079                     _adc:	
   727  0079                     	ds	1
   728  007A                     _receive:	
   729  007A                     	ds	1
   730                           
   731                           	psect	bssBANK0
   732  0061                     __pbssBANK0:	
   733  0061                     _T:	
   734  0061                     	ds	2
   735  0063                     _Gz:	
   736  0063                     	ds	2
   737  0065                     _Gy:	
   738  0065                     	ds	2
   739  0067                     _Gx:	
   740  0067                     	ds	2
   741  0069                     _Az:	
   742  0069                     	ds	2
   743  006B                     _Ay:	
   744  006B                     	ds	2
   745  006D                     _Ax:	
   746  006D                     	ds	2
   747                           
   748                           	psect	bssBANK1
   749  00A0                     __pbssBANK1:	
   750  00A0                     _buffer2:	
   751  00A0                     	ds	12
   752  00AC                     _t:	
   753  00AC                     	ds	2
   754  00AE                     _GZ:	
   755  00AE                     	ds	2
   756  00B0                     _GY:	
   757  00B0                     	ds	2
   758  00B2                     _GX:	
   759  00B2                     	ds	2
   760  00B4                     _AZ:	
   761  00B4                     	ds	2
   762  00B6                     _AY:	
   763  00B6                     	ds	2
   764  00B8                     _AX:	
   765  00B8                     	ds	2
   766  00BA                     _buffer:	
   767  00BA                     	ds	12
   768                           
   769                           	psect	clrtext
   770  0981                     clear_ram0:	
   771                           ;	Called with FSR containing the base address, and
   772                           ;	W with the last address+1
   773                           
   774  0981  0064               	clrwdt	;clear the watchdog before getting into this loop
   775  0982                     clrloop0:	
   776  0982  0180               	clrf	0	;clear RAM location pointed to by FSR
   777  0983  0A84               	incf	4,f	;increment pointer
   778  0984  0604               	xorwf	4,w	;XOR with final address
   779  0985  1903               	btfsc	3,2	;have we reached the end yet?
   780  0986  3400               	retlw	0	;all done for this memory range, return
   781  0987  0604               	xorwf	4,w	;XOR again to restore value
   782  0988  2982               	goto	clrloop0	;do the next byte
   783                           
   784                           	psect	cstackBANK1
   785  00C6                     __pcstackBANK1:	
   786  00C6                     ??_main:	
   787                           
   788                           ; 1 bytes @ 0x0
   789  00C6                     	ds	3
   790                           
   791                           	psect	cstackCOMMON
   792  0070                     __pcstackCOMMON:	
   793  0070                     ?_setup:	
   794  0070                     ?_globalInt:	
   795                           ; 1 bytes @ 0x0
   796                           
   797  0070                     ?_oscInit:	
   798                           ; 1 bytes @ 0x0
   799                           
   800  0070                     ?_uart_init:	
   801                           ; 1 bytes @ 0x0
   802                           
   803  0070                     ?_mpu6050_init:	
   804                           ; 1 bytes @ 0x0
   805                           
   806  0070                     ?_i2c_addr_start:	
   807                           ; 1 bytes @ 0x0
   808                           
   809  0070                     ?_i2c_masterStop:	
   810                           ; 1 bytes @ 0x0
   811                           
   812  0070                     ?_uart_sendString:	
   813                           ; 1 bytes @ 0x0
   814                           
   815  0070                     ?_isr:	
   816                           ; 1 bytes @ 0x0
   817                           
   818  0070                     ??_isr:	
   819                           ; 1 bytes @ 0x0
   820                           
   821  0070                     ?_main:	
   822                           ; 1 bytes @ 0x0
   823                           
   824  0070                     ?_i2c_masterWait:	
   825                           ; 1 bytes @ 0x0
   826                           
   827  0070                     ?_uart_transmit:	
   828                           ; 1 bytes @ 0x0
   829                           
   830                           
   831                           ; 1 bytes @ 0x0
   832  0070                     	ds	3
   833  0073                     ??_setup:	
   834  0073                     ??_globalInt:	
   835                           ; 1 bytes @ 0x3
   836                           
   837  0073                     ??_oscInit:	
   838                           ; 1 bytes @ 0x3
   839                           
   840  0073                     ??_uart_init:	
   841                           ; 1 bytes @ 0x3
   842                           
   843  0073                     ?_uart_9bit:	
   844                           ; 1 bytes @ 0x3
   845                           
   846  0073                     ?_txrx_en:	
   847                           ; 1 bytes @ 0x3
   848                           
   849  0073                     ?_baudRate:	
   850                           ; 1 bytes @ 0x3
   851                           
   852  0073                     ?_uart_interrupts:	
   853                           ; 1 bytes @ 0x3
   854                           
   855  0073                     ?_i2c_masterWrite:	
   856                           ; 1 bytes @ 0x3
   857                           
   858  0073                     ??_i2c_masterStop:	
   859                           ; 1 bytes @ 0x3
   860                           
   861  0073                     ??_i2c_masterWait:	
   862                           ; 1 bytes @ 0x3
   863                           
   864  0073                     ??_uart_transmit:	
   865                           ; 1 bytes @ 0x3
   866                           
   867  0073                     ??___lldiv:	
   868                           ; 1 bytes @ 0x3
   869                           
   870  0073                     ?_i2c_masterRead:	
   871                           ; 1 bytes @ 0x3
   872                           
   873  0073                     ?___lwdiv:	
   874                           ; 2 bytes @ 0x3
   875                           
   876  0073                     ?___xxtofl:	
   877                           ; 2 bytes @ 0x3
   878                           
   879  0073                     uart_9bit@tx9:	
   880                           ; 4 bytes @ 0x3
   881                           
   882  0073                     txrx_en@rx:	
   883                           ; 1 bytes @ 0x3
   884                           
   885  0073                     baudRate@rateGen:	
   886                           ; 1 bytes @ 0x3
   887                           
   888  0073                     uart_interrupts@tx_int:	
   889                           ; 1 bytes @ 0x3
   890                           
   891  0073                     uart_transmit@transmit:	
   892                           ; 1 bytes @ 0x3
   893                           
   894  0073                     i2c_masterWrite@data:	
   895                           ; 1 bytes @ 0x3
   896                           
   897  0073                     i2c_masterRead@a:	
   898                           ; 2 bytes @ 0x3
   899                           
   900  0073                     ___lwdiv@divisor:	
   901                           ; 2 bytes @ 0x3
   902                           
   903  0073                     ___xxtofl@val:	
   904                           ; 2 bytes @ 0x3
   905                           
   906                           
   907                           ; 4 bytes @ 0x3
   908  0073                     	ds	1
   909  0074                     ??_uart_9bit:	
   910  0074                     ??_txrx_en:	
   911                           ; 1 bytes @ 0x4
   912                           
   913  0074                     ??_uart_interrupts:	
   914                           ; 1 bytes @ 0x4
   915                           
   916  0074                     ??_uart_sendString:	
   917                           ; 1 bytes @ 0x4
   918                           
   919  0074                     uart_9bit@rx9:	
   920                           ; 1 bytes @ 0x4
   921                           
   922  0074                     txrx_en@tx:	
   923                           ; 1 bytes @ 0x4
   924                           
   925  0074                     baudRate@baudN:	
   926                           ; 1 bytes @ 0x4
   927                           
   928  0074                     uart_interrupts@rx_int:	
   929                           ; 1 bytes @ 0x4
   930                           
   931  0074                     ___lldiv@quotient:	
   932                           ; 1 bytes @ 0x4
   933                           
   934                           
   935                           ; 4 bytes @ 0x4
   936  0074                     	ds	1
   937  0075                     ??_baudRate:	
   938  0075                     ??_i2c_addr_start:	
   939                           ; 1 bytes @ 0x5
   940                           
   941  0075                     ??_i2c_masterWrite:	
   942                           ; 1 bytes @ 0x5
   943                           
   944  0075                     ??_i2c_masterRead:	
   945                           ; 1 bytes @ 0x5
   946                           
   947  0075                     oscInit@freq:	
   948                           ; 1 bytes @ 0x5
   949                           
   950  0075                     baudRate@rateSel:	
   951                           ; 1 bytes @ 0x5
   952                           
   953  0075                     uart_sendString@i:	
   954                           ; 1 bytes @ 0x5
   955                           
   956  0075                     ___lwdiv@dividend:	
   957                           ; 2 bytes @ 0x5
   958                           
   959                           
   960                           ; 2 bytes @ 0x5
   961  0075                     	ds	2
   962  0077                     ??___lwdiv:	
   963  0077                     i2c_addr_start@addr:	
   964                           ; 1 bytes @ 0x7
   965                           
   966  0077                     i2c_masterRead@temp:	
   967                           ; 1 bytes @ 0x7
   968                           
   969  0077                     uart_sendString@text:	
   970                           ; 1 bytes @ 0x7
   971                           
   972  0077                     ___fltol@sign1:	
   973                           ; 1 bytes @ 0x7
   974                           
   975                           
   976                           ; 1 bytes @ 0x7
   977  0077                     	ds	1
   978  0078                     ??___lwmod:	
   979  0078                     ___lldiv@counter:	
   980                           ; 1 bytes @ 0x8
   981                           
   982  0078                     ___fltol@exp1:	
   983                           ; 1 bytes @ 0x8
   984                           
   985                           
   986                           ; 1 bytes @ 0x8
   987  0078                     	ds	1
   988                           
   989                           	psect	cstackBANK0
   990  0020                     __pcstackBANK0:	
   991  0020                     ??_mpu6050_init:	
   992  0020                     ??___xxtofl:	
   993                           ; 1 bytes @ 0x0
   994                           
   995  0020                     ?___lldiv:	
   996                           ; 1 bytes @ 0x0
   997                           
   998  0020                     ___lwdiv@counter:	
   999                           ; 4 bytes @ 0x0
  1000                           
  1001  0020                     ___lldiv@divisor:	
  1002                           ; 1 bytes @ 0x0
  1003                           
  1004                           
  1005                           ; 4 bytes @ 0x0
  1006  0020                     	ds	1
  1007  0021                     ___lwdiv@quotient:	
  1008                           
  1009                           ; 2 bytes @ 0x1
  1010  0021                     	ds	2
  1011  0023                     ?___lwmod:	
  1012  0023                     ___lwmod@divisor:	
  1013                           ; 2 bytes @ 0x3
  1014                           
  1015                           
  1016                           ; 2 bytes @ 0x3
  1017  0023                     	ds	1
  1018  0024                     ___xxtofl@sign:	
  1019  0024                     ___lldiv@dividend:	
  1020                           ; 1 bytes @ 0x4
  1021                           
  1022                           
  1023                           ; 4 bytes @ 0x4
  1024  0024                     	ds	1
  1025  0025                     ___xxtofl@exp:	
  1026  0025                     ___lwmod@dividend:	
  1027                           ; 1 bytes @ 0x5
  1028                           
  1029                           
  1030                           ; 2 bytes @ 0x5
  1031  0025                     	ds	1
  1032  0026                     ___xxtofl@arg:	
  1033                           
  1034                           ; 4 bytes @ 0x6
  1035  0026                     	ds	1
  1036  0027                     ___lwmod@counter:	
  1037                           
  1038                           ; 1 bytes @ 0x7
  1039  0027                     	ds	1
  1040  0028                     ?_i2c_master_init:	
  1041  0028                     ?_sprintf:	
  1042                           ; 1 bytes @ 0x8
  1043                           
  1044  0028                     sprintf@f:	
  1045                           ; 2 bytes @ 0x8
  1046                           
  1047  0028                     i2c_master_init@c:	
  1048                           ; 1 bytes @ 0x8
  1049                           
  1050                           
  1051                           ; 4 bytes @ 0x8
  1052  0028                     	ds	2
  1053  002A                     ?___fldiv:	
  1054  002A                     ___fldiv@a:	
  1055                           ; 4 bytes @ 0xA
  1056                           
  1057                           
  1058                           ; 4 bytes @ 0xA
  1059  002A                     	ds	1
  1060  002B                     ??_sprintf:	
  1061                           
  1062                           ; 1 bytes @ 0xB
  1063  002B                     	ds	1
  1064  002C                     ??_i2c_master_init:	
  1065                           
  1066                           ; 1 bytes @ 0xC
  1067  002C                     	ds	2
  1068  002E                     sprintf@ap:	
  1069  002E                     ___fldiv@b:	
  1070                           ; 1 bytes @ 0xE
  1071                           
  1072                           
  1073                           ; 4 bytes @ 0xE
  1074  002E                     	ds	1
  1075  002F                     sprintf@flag:	
  1076                           
  1077                           ; 1 bytes @ 0xF
  1078  002F                     	ds	1
  1079  0030                     sprintf@prec:	
  1080                           
  1081                           ; 1 bytes @ 0x10
  1082  0030                     	ds	1
  1083  0031                     sprintf@val:	
  1084                           
  1085                           ; 2 bytes @ 0x11
  1086  0031                     	ds	1
  1087  0032                     ??___fldiv:	
  1088                           
  1089                           ; 1 bytes @ 0x12
  1090  0032                     	ds	1
  1091  0033                     sprintf@sp:	
  1092                           
  1093                           ; 1 bytes @ 0x13
  1094  0033                     	ds	1
  1095  0034                     sprintf@c:	
  1096                           
  1097                           ; 1 bytes @ 0x14
  1098  0034                     	ds	3
  1099  0037                     ___fldiv@rem:	
  1100                           
  1101                           ; 4 bytes @ 0x17
  1102  0037                     	ds	4
  1103  003B                     ___fldiv@sign:	
  1104                           
  1105                           ; 1 bytes @ 0x1B
  1106  003B                     	ds	1
  1107  003C                     ___fldiv@new_exp:	
  1108                           
  1109                           ; 2 bytes @ 0x1C
  1110  003C                     	ds	2
  1111  003E                     ___fldiv@grs:	
  1112                           
  1113                           ; 4 bytes @ 0x1E
  1114  003E                     	ds	4
  1115  0042                     ___fldiv@bexp:	
  1116                           
  1117                           ; 1 bytes @ 0x22
  1118  0042                     	ds	1
  1119  0043                     ___fldiv@aexp:	
  1120                           
  1121                           ; 1 bytes @ 0x23
  1122  0043                     	ds	1
  1123  0044                     ?___fladd:	
  1124  0044                     ___fladd@b:	
  1125                           ; 4 bytes @ 0x24
  1126                           
  1127                           
  1128                           ; 4 bytes @ 0x24
  1129  0044                     	ds	4
  1130  0048                     ___fladd@a:	
  1131                           
  1132                           ; 4 bytes @ 0x28
  1133  0048                     	ds	4
  1134  004C                     ??___fladd:	
  1135                           
  1136                           ; 1 bytes @ 0x2C
  1137  004C                     	ds	8
  1138  0054                     ___fladd@signs:	
  1139                           
  1140                           ; 1 bytes @ 0x34
  1141  0054                     	ds	1
  1142  0055                     ___fladd@aexp:	
  1143                           
  1144                           ; 1 bytes @ 0x35
  1145  0055                     	ds	1
  1146  0056                     ___fladd@bexp:	
  1147                           
  1148                           ; 1 bytes @ 0x36
  1149  0056                     	ds	1
  1150  0057                     ___fladd@grs:	
  1151                           
  1152                           ; 1 bytes @ 0x37
  1153  0057                     	ds	1
  1154  0058                     ?___fltol:	
  1155  0058                     ___fltol@f1:	
  1156                           ; 4 bytes @ 0x38
  1157                           
  1158                           
  1159                           ; 4 bytes @ 0x38
  1160  0058                     	ds	4
  1161  005C                     ??___fltol:	
  1162                           
  1163                           ; 1 bytes @ 0x3C
  1164  005C                     	ds	5
  1165                           
  1166                           	psect	maintext
  1167  0026                     __pmaintext:	
  1168 ;;
  1169 ;;Main: autosize = 0, tempsize = 3, incstack = 0, save=0
  1170 ;;
  1171 ;; *************** function _main *****************
  1172 ;; Defined at:
  1173 ;;		line 58 in file "giroscopio.c"
  1174 ;; Parameters:    Size  Location     Type
  1175 ;;		None
  1176 ;; Auto vars:     Size  Location     Type
  1177 ;;		None
  1178 ;; Return value:  Size  Location     Type
  1179 ;;                  1    wreg      void 
  1180 ;; Registers used:
  1181 ;;		wreg, fsr0l, fsr0h, status,2, status,0, btemp+1, pclath, cstack
  1182 ;; Tracked objects:
  1183 ;;		On entry : B00/0
  1184 ;;		On exit  : 0/0
  1185 ;;		Unchanged: 0/0
  1186 ;; Data sizes:     COMMON   BANK0   BANK1   BANK3   BANK2
  1187 ;;      Params:         0       0       0       0       0
  1188 ;;      Locals:         0       0       0       0       0
  1189 ;;      Temps:          0       0       3       0       0
  1190 ;;      Totals:         0       0       3       0       0
  1191 ;;Total ram usage:        3 bytes
  1192 ;; Hardware stack levels required when called:    5
  1193 ;; This function calls:
  1194 ;;		___fladd
  1195 ;;		___fldiv
  1196 ;;		___fltol
  1197 ;;		___xxtofl
  1198 ;;		_baudRate
  1199 ;;		_globalInt
  1200 ;;		_i2c_addr_start
  1201 ;;		_i2c_masterRead
  1202 ;;		_i2c_masterStop
  1203 ;;		_i2c_masterWrite
  1204 ;;		_i2c_master_init
  1205 ;;		_mpu6050_init
  1206 ;;		_oscInit
  1207 ;;		_setup
  1208 ;;		_sprintf
  1209 ;;		_txrx_en
  1210 ;;		_uart_9bit
  1211 ;;		_uart_init
  1212 ;;		_uart_interrupts
  1213 ;;		_uart_sendString
  1214 ;; This function is called by:
  1215 ;;		Startup code after reset
  1216 ;; This function uses a non-reentrant model
  1217 ;;
  1218                           
  1219                           
  1220                           ;psect for function _main
  1221  0026                     _main:	
  1222  0026                     l2834:	
  1223                           ;incstack = 0
  1224                           ; Regs used in _main: [wreg-fsr0h+status,2+status,0+btemp+1+pclath+cstack]
  1225                           
  1226                           
  1227                           ;giroscopio.c: 59:     setup();
  1228  0026  120A  158A  219E  120A  118A  	fcall	_setup
  1229  002B                     l2836:	
  1230                           
  1231                           ;giroscopio.c: 60:     globalInt();
  1232  002B  120A  158A  217E  120A  118A  	fcall	_globalInt
  1233  0030                     l2838:	
  1234                           
  1235                           ;giroscopio.c: 61:     oscInit(1);
  1236  0030  3001               	movlw	1
  1237  0031  120A  158A  23C0  120A  118A  	fcall	_oscInit
  1238  0036                     l2840:	
  1239                           
  1240                           ;giroscopio.c: 62:     uart_init();
  1241  0036  120A  158A  21F2  120A  118A  	fcall	_uart_init
  1242  003B                     l2842:	
  1243                           
  1244                           ;giroscopio.c: 63:     uart_9bit(0,0);
  1245  003B  01F3               	clrf	uart_9bit@tx9
  1246  003C  3000               	movlw	0
  1247  003D  120A  158A  21BE  120A  118A  	fcall	_uart_9bit
  1248  0042                     l2844:	
  1249                           
  1250                           ;giroscopio.c: 64:     txrx_en(1,1);
  1251  0042  01F3               	clrf	txrx_en@rx
  1252  0043  0AF3               	incf	txrx_en@rx,f
  1253  0044  3001               	movlw	1
  1254  0045  120A  158A  21AE  120A  118A  	fcall	_txrx_en
  1255  004A                     l2846:	
  1256                           
  1257                           ;giroscopio.c: 65:     baudRate(1,0,25);
  1258  004A  01F3               	clrf	baudRate@rateGen
  1259  004B  3019               	movlw	25
  1260  004C  1683               	bsf	3,5	;RP0=1, select bank1
  1261  004D  1303               	bcf	3,6	;RP1=0, select bank1
  1262  004E  00C6               	movwf	??_main^(0+128)
  1263  004F  0846               	movf	??_main^(0+128),w
  1264  0050  00F4               	movwf	baudRate@baudN
  1265  0051  3001               	movlw	1
  1266  0052  120A  158A  2204  120A  118A  	fcall	_baudRate
  1267  0057                     l2848:	
  1268                           
  1269                           ;giroscopio.c: 66:     uart_interrupts(1,0);
  1270  0057  01F3               	clrf	uart_interrupts@tx_int
  1271  0058  3001               	movlw	1
  1272  0059  120A  158A  222E  120A  118A  	fcall	_uart_interrupts
  1273  005E                     l2850:	
  1274                           
  1275                           ;giroscopio.c: 67:     i2c_master_init(100000);
  1276  005E  3000               	movlw	0
  1277  005F  1283               	bcf	3,5	;RP0=0, select bank0
  1278  0060  1303               	bcf	3,6	;RP1=0, select bank0
  1279  0061  00AB               	movwf	i2c_master_init@c+3
  1280  0062  3001               	movlw	1
  1281  0063  00AA               	movwf	i2c_master_init@c+2
  1282  0064  3086               	movlw	134
  1283  0065  00A9               	movwf	i2c_master_init@c+1
  1284  0066  30A0               	movlw	160
  1285  0067  00A8               	movwf	i2c_master_init@c
  1286  0068  120A  158A  229C  120A  118A  	fcall	_i2c_master_init
  1287  006D                     l2852:	
  1288                           
  1289                           ;giroscopio.c: 68:     mpu6050_init();
  1290  006D  120A  158A  24B1  120A  118A  	fcall	_mpu6050_init
  1291  0072                     l2854:	
  1292                           
  1293                           ;giroscopio.c: 70:         i2c_addr_start(0xD0);
  1294  0072  30D0               	movlw	208
  1295  0073  120A  158A  2218  120A  118A  	fcall	_i2c_addr_start
  1296  0078                     l2856:	
  1297                           
  1298                           ;giroscopio.c: 71:         i2c_masterWrite(0x3B);
  1299  0078  303B               	movlw	59
  1300  0079  00F3               	movwf	i2c_masterWrite@data
  1301  007A  3000               	movlw	0
  1302  007B  00F4               	movwf	i2c_masterWrite@data+1
  1303  007C  120A  158A  21E0  120A  118A  	fcall	_i2c_masterWrite
  1304  0081                     l2858:	
  1305                           
  1306                           ;giroscopio.c: 72:         i2c_masterStop();
  1307  0081  120A  158A  2189  120A  118A  	fcall	_i2c_masterStop
  1308  0086                     l2860:	
  1309                           
  1310                           ;giroscopio.c: 73:         i2c_addr_start(0xD1);
  1311  0086  30D1               	movlw	209
  1312  0087  120A  158A  2218  120A  118A  	fcall	_i2c_addr_start
  1313  008C                     l2862:	
  1314                           
  1315                           ;giroscopio.c: 74:         Ax = ((int)i2c_masterRead(0)<<8) | (int)i2c_masterRead(0);
  1316  008C  3000               	movlw	0
  1317  008D  00F3               	movwf	i2c_masterRead@a
  1318  008E  00F4               	movwf	i2c_masterRead@a+1
  1319  008F  120A  158A  2265  120A  118A  	fcall	_i2c_masterRead
  1320  0094  0873               	movf	?_i2c_masterRead,w
  1321  0095  1683               	bsf	3,5	;RP0=1, select bank1
  1322  0096  1303               	bcf	3,6	;RP1=0, select bank1
  1323  0097  00C6               	movwf	??_main^(0+128)
  1324  0098  0874               	movf	?_i2c_masterRead+1,w
  1325  0099  00C7               	movwf	(??_main^(0+128)+1)
  1326  009A  0846               	movf	??_main^(0+128),w
  1327  009B  00C7               	movwf	(??_main^(0+128)+1)
  1328  009C  01C6               	clrf	??_main^(0+128)
  1329  009D  3000               	movlw	0
  1330  009E  00F3               	movwf	i2c_masterRead@a
  1331  009F  00F4               	movwf	i2c_masterRead@a+1
  1332  00A0  120A  158A  2265  120A  118A  	fcall	_i2c_masterRead
  1333  00A5  0873               	movf	?_i2c_masterRead,w
  1334  00A6  1683               	bsf	3,5	;RP0=1, select bank1
  1335  00A7  1303               	bcf	3,6	;RP1=0, select bank1
  1336  00A8  0446               	iorwf	??_main^(0+128),w
  1337  00A9  1283               	bcf	3,5	;RP0=0, select bank0
  1338  00AA  1303               	bcf	3,6	;RP1=0, select bank0
  1339  00AB  00ED               	movwf	_Ax
  1340  00AC  0874               	movf	?_i2c_masterRead+1,w
  1341  00AD  1683               	bsf	3,5	;RP0=1, select bank1
  1342  00AE  1303               	bcf	3,6	;RP1=0, select bank1
  1343  00AF  0447               	iorwf	(??_main+1)^(0+128),w
  1344  00B0  1283               	bcf	3,5	;RP0=0, select bank0
  1345  00B1  1303               	bcf	3,6	;RP1=0, select bank0
  1346  00B2  00EE               	movwf	_Ax+1
  1347  00B3                     l2864:	
  1348                           
  1349                           ;giroscopio.c: 80:         Ay = ((int)i2c_masterRead(0)<<8) | (int)i2c_masterRead(0);
  1350  00B3  3000               	movlw	0
  1351  00B4  00F3               	movwf	i2c_masterRead@a
  1352  00B5  00F4               	movwf	i2c_masterRead@a+1
  1353  00B6  120A  158A  2265  120A  118A  	fcall	_i2c_masterRead
  1354  00BB  0873               	movf	?_i2c_masterRead,w
  1355  00BC  1683               	bsf	3,5	;RP0=1, select bank1
  1356  00BD  1303               	bcf	3,6	;RP1=0, select bank1
  1357  00BE  00C6               	movwf	??_main^(0+128)
  1358  00BF  0874               	movf	?_i2c_masterRead+1,w
  1359  00C0  00C7               	movwf	(??_main^(0+128)+1)
  1360  00C1  0846               	movf	??_main^(0+128),w
  1361  00C2  00C7               	movwf	(??_main^(0+128)+1)
  1362  00C3  01C6               	clrf	??_main^(0+128)
  1363  00C4  3000               	movlw	0
  1364  00C5  00F3               	movwf	i2c_masterRead@a
  1365  00C6  00F4               	movwf	i2c_masterRead@a+1
  1366  00C7  120A  158A  2265  120A  118A  	fcall	_i2c_masterRead
  1367  00CC  0873               	movf	?_i2c_masterRead,w
  1368  00CD  1683               	bsf	3,5	;RP0=1, select bank1
  1369  00CE  1303               	bcf	3,6	;RP1=0, select bank1
  1370  00CF  0446               	iorwf	??_main^(0+128),w
  1371  00D0  1283               	bcf	3,5	;RP0=0, select bank0
  1372  00D1  1303               	bcf	3,6	;RP1=0, select bank0
  1373  00D2  00EB               	movwf	_Ay
  1374  00D3  0874               	movf	?_i2c_masterRead+1,w
  1375  00D4  1683               	bsf	3,5	;RP0=1, select bank1
  1376  00D5  1303               	bcf	3,6	;RP1=0, select bank1
  1377  00D6  0447               	iorwf	(??_main+1)^(0+128),w
  1378  00D7  1283               	bcf	3,5	;RP0=0, select bank0
  1379  00D8  1303               	bcf	3,6	;RP1=0, select bank0
  1380  00D9  00EC               	movwf	_Ay+1
  1381  00DA                     l2866:	
  1382                           
  1383                           ;giroscopio.c: 81:         Az = ((int)i2c_masterRead(0)<<8) | (int)i2c_masterRead(0);
  1384  00DA  3000               	movlw	0
  1385  00DB  00F3               	movwf	i2c_masterRead@a
  1386  00DC  00F4               	movwf	i2c_masterRead@a+1
  1387  00DD  120A  158A  2265  120A  118A  	fcall	_i2c_masterRead
  1388  00E2  0873               	movf	?_i2c_masterRead,w
  1389  00E3  1683               	bsf	3,5	;RP0=1, select bank1
  1390  00E4  1303               	bcf	3,6	;RP1=0, select bank1
  1391  00E5  00C6               	movwf	??_main^(0+128)
  1392  00E6  0874               	movf	?_i2c_masterRead+1,w
  1393  00E7  00C7               	movwf	(??_main^(0+128)+1)
  1394  00E8  0846               	movf	??_main^(0+128),w
  1395  00E9  00C7               	movwf	(??_main^(0+128)+1)
  1396  00EA  01C6               	clrf	??_main^(0+128)
  1397  00EB  3000               	movlw	0
  1398  00EC  00F3               	movwf	i2c_masterRead@a
  1399  00ED  00F4               	movwf	i2c_masterRead@a+1
  1400  00EE  120A  158A  2265  120A  118A  	fcall	_i2c_masterRead
  1401  00F3  0873               	movf	?_i2c_masterRead,w
  1402  00F4  1683               	bsf	3,5	;RP0=1, select bank1
  1403  00F5  1303               	bcf	3,6	;RP1=0, select bank1
  1404  00F6  0446               	iorwf	??_main^(0+128),w
  1405  00F7  1283               	bcf	3,5	;RP0=0, select bank0
  1406  00F8  1303               	bcf	3,6	;RP1=0, select bank0
  1407  00F9  00E9               	movwf	_Az
  1408  00FA  0874               	movf	?_i2c_masterRead+1,w
  1409  00FB  1683               	bsf	3,5	;RP0=1, select bank1
  1410  00FC  1303               	bcf	3,6	;RP1=0, select bank1
  1411  00FD  0447               	iorwf	(??_main+1)^(0+128),w
  1412  00FE  1283               	bcf	3,5	;RP0=0, select bank0
  1413  00FF  1303               	bcf	3,6	;RP1=0, select bank0
  1414  0100  00EA               	movwf	_Az+1
  1415  0101                     l2868:	
  1416                           
  1417                           ;giroscopio.c: 82:         T = ((int)i2c_masterRead(0)<<8) | (int)i2c_masterRead(0);
  1418  0101  3000               	movlw	0
  1419  0102  00F3               	movwf	i2c_masterRead@a
  1420  0103  00F4               	movwf	i2c_masterRead@a+1
  1421  0104  120A  158A  2265  120A  118A  	fcall	_i2c_masterRead
  1422  0109  0873               	movf	?_i2c_masterRead,w
  1423  010A  1683               	bsf	3,5	;RP0=1, select bank1
  1424  010B  1303               	bcf	3,6	;RP1=0, select bank1
  1425  010C  00C6               	movwf	??_main^(0+128)
  1426  010D  0874               	movf	?_i2c_masterRead+1,w
  1427  010E  00C7               	movwf	(??_main^(0+128)+1)
  1428  010F  0846               	movf	??_main^(0+128),w
  1429  0110  00C7               	movwf	(??_main^(0+128)+1)
  1430  0111  01C6               	clrf	??_main^(0+128)
  1431  0112  3000               	movlw	0
  1432  0113  00F3               	movwf	i2c_masterRead@a
  1433  0114  00F4               	movwf	i2c_masterRead@a+1
  1434  0115  120A  158A  2265  120A  118A  	fcall	_i2c_masterRead
  1435  011A  0873               	movf	?_i2c_masterRead,w
  1436  011B  1683               	bsf	3,5	;RP0=1, select bank1
  1437  011C  1303               	bcf	3,6	;RP1=0, select bank1
  1438  011D  0446               	iorwf	??_main^(0+128),w
  1439  011E  1283               	bcf	3,5	;RP0=0, select bank0
  1440  011F  1303               	bcf	3,6	;RP1=0, select bank0
  1441  0120  00E1               	movwf	_T
  1442  0121  0874               	movf	?_i2c_masterRead+1,w
  1443  0122  1683               	bsf	3,5	;RP0=1, select bank1
  1444  0123  1303               	bcf	3,6	;RP1=0, select bank1
  1445  0124  0447               	iorwf	(??_main+1)^(0+128),w
  1446  0125  1283               	bcf	3,5	;RP0=0, select bank0
  1447  0126  1303               	bcf	3,6	;RP1=0, select bank0
  1448  0127  00E2               	movwf	_T+1
  1449  0128                     l2870:	
  1450                           
  1451                           ;giroscopio.c: 83:         Gx = ((int)i2c_masterRead(0)<<8) | (int)i2c_masterRead(0);
  1452  0128  3000               	movlw	0
  1453  0129  00F3               	movwf	i2c_masterRead@a
  1454  012A  00F4               	movwf	i2c_masterRead@a+1
  1455  012B  120A  158A  2265  120A  118A  	fcall	_i2c_masterRead
  1456  0130  0873               	movf	?_i2c_masterRead,w
  1457  0131  1683               	bsf	3,5	;RP0=1, select bank1
  1458  0132  1303               	bcf	3,6	;RP1=0, select bank1
  1459  0133  00C6               	movwf	??_main^(0+128)
  1460  0134  0874               	movf	?_i2c_masterRead+1,w
  1461  0135  00C7               	movwf	(??_main^(0+128)+1)
  1462  0136  0846               	movf	??_main^(0+128),w
  1463  0137  00C7               	movwf	(??_main^(0+128)+1)
  1464  0138  01C6               	clrf	??_main^(0+128)
  1465  0139  3000               	movlw	0
  1466  013A  00F3               	movwf	i2c_masterRead@a
  1467  013B  00F4               	movwf	i2c_masterRead@a+1
  1468  013C  120A  158A  2265  120A  118A  	fcall	_i2c_masterRead
  1469  0141  0873               	movf	?_i2c_masterRead,w
  1470  0142  1683               	bsf	3,5	;RP0=1, select bank1
  1471  0143  1303               	bcf	3,6	;RP1=0, select bank1
  1472  0144  0446               	iorwf	??_main^(0+128),w
  1473  0145  1283               	bcf	3,5	;RP0=0, select bank0
  1474  0146  1303               	bcf	3,6	;RP1=0, select bank0
  1475  0147  00E7               	movwf	_Gx
  1476  0148  0874               	movf	?_i2c_masterRead+1,w
  1477  0149  1683               	bsf	3,5	;RP0=1, select bank1
  1478  014A  1303               	bcf	3,6	;RP1=0, select bank1
  1479  014B  0447               	iorwf	(??_main+1)^(0+128),w
  1480  014C  1283               	bcf	3,5	;RP0=0, select bank0
  1481  014D  1303               	bcf	3,6	;RP1=0, select bank0
  1482  014E  00E8               	movwf	_Gx+1
  1483  014F                     l2872:	
  1484                           
  1485                           ;giroscopio.c: 84:         Gy = ((int)i2c_masterRead(0)<<8) | (int)i2c_masterRead(0);
  1486  014F  3000               	movlw	0
  1487  0150  00F3               	movwf	i2c_masterRead@a
  1488  0151  00F4               	movwf	i2c_masterRead@a+1
  1489  0152  120A  158A  2265  120A  118A  	fcall	_i2c_masterRead
  1490  0157  0873               	movf	?_i2c_masterRead,w
  1491  0158  1683               	bsf	3,5	;RP0=1, select bank1
  1492  0159  1303               	bcf	3,6	;RP1=0, select bank1
  1493  015A  00C6               	movwf	??_main^(0+128)
  1494  015B  0874               	movf	?_i2c_masterRead+1,w
  1495  015C  00C7               	movwf	(??_main^(0+128)+1)
  1496  015D  0846               	movf	??_main^(0+128),w
  1497  015E  00C7               	movwf	(??_main^(0+128)+1)
  1498  015F  01C6               	clrf	??_main^(0+128)
  1499  0160  3000               	movlw	0
  1500  0161  00F3               	movwf	i2c_masterRead@a
  1501  0162  00F4               	movwf	i2c_masterRead@a+1
  1502  0163  120A  158A  2265  120A  118A  	fcall	_i2c_masterRead
  1503  0168  0873               	movf	?_i2c_masterRead,w
  1504  0169  1683               	bsf	3,5	;RP0=1, select bank1
  1505  016A  1303               	bcf	3,6	;RP1=0, select bank1
  1506  016B  0446               	iorwf	??_main^(0+128),w
  1507  016C  1283               	bcf	3,5	;RP0=0, select bank0
  1508  016D  1303               	bcf	3,6	;RP1=0, select bank0
  1509  016E  00E5               	movwf	_Gy
  1510  016F  0874               	movf	?_i2c_masterRead+1,w
  1511  0170  1683               	bsf	3,5	;RP0=1, select bank1
  1512  0171  1303               	bcf	3,6	;RP1=0, select bank1
  1513  0172  0447               	iorwf	(??_main+1)^(0+128),w
  1514  0173  1283               	bcf	3,5	;RP0=0, select bank0
  1515  0174  1303               	bcf	3,6	;RP1=0, select bank0
  1516  0175  00E6               	movwf	_Gy+1
  1517  0176                     l2874:	
  1518                           
  1519                           ;giroscopio.c: 85:         Gz = ((int)i2c_masterRead(0)<<8) | (int)i2c_masterRead(1);
  1520  0176  3000               	movlw	0
  1521  0177  00F3               	movwf	i2c_masterRead@a
  1522  0178  00F4               	movwf	i2c_masterRead@a+1
  1523  0179  120A  158A  2265  120A  118A  	fcall	_i2c_masterRead
  1524  017E  0873               	movf	?_i2c_masterRead,w
  1525  017F  1683               	bsf	3,5	;RP0=1, select bank1
  1526  0180  1303               	bcf	3,6	;RP1=0, select bank1
  1527  0181  00C6               	movwf	??_main^(0+128)
  1528  0182  0874               	movf	?_i2c_masterRead+1,w
  1529  0183  00C7               	movwf	(??_main^(0+128)+1)
  1530  0184  0846               	movf	??_main^(0+128),w
  1531  0185  00C7               	movwf	(??_main^(0+128)+1)
  1532  0186  01C6               	clrf	??_main^(0+128)
  1533  0187  3001               	movlw	1
  1534  0188  00F3               	movwf	i2c_masterRead@a
  1535  0189  3000               	movlw	0
  1536  018A  00F4               	movwf	i2c_masterRead@a+1
  1537  018B  120A  158A  2265  120A  118A  	fcall	_i2c_masterRead
  1538  0190  0873               	movf	?_i2c_masterRead,w
  1539  0191  1683               	bsf	3,5	;RP0=1, select bank1
  1540  0192  1303               	bcf	3,6	;RP1=0, select bank1
  1541  0193  0446               	iorwf	??_main^(0+128),w
  1542  0194  1283               	bcf	3,5	;RP0=0, select bank0
  1543  0195  1303               	bcf	3,6	;RP1=0, select bank0
  1544  0196  00E3               	movwf	_Gz
  1545  0197  0874               	movf	?_i2c_masterRead+1,w
  1546  0198  1683               	bsf	3,5	;RP0=1, select bank1
  1547  0199  1303               	bcf	3,6	;RP1=0, select bank1
  1548  019A  0447               	iorwf	(??_main+1)^(0+128),w
  1549  019B  1283               	bcf	3,5	;RP0=0, select bank0
  1550  019C  1303               	bcf	3,6	;RP1=0, select bank0
  1551  019D  00E4               	movwf	_Gz+1
  1552  019E                     l2876:	
  1553                           
  1554                           ;giroscopio.c: 86:         i2c_masterStop();
  1555  019E  120A  158A  2189  120A  118A  	fcall	_i2c_masterStop
  1556  01A3                     l2878:	
  1557                           
  1558                           ;giroscopio.c: 88:         AX = (int)Ax/16384.0;
  1559  01A3  1283               	bcf	3,5	;RP0=0, select bank0
  1560  01A4  1303               	bcf	3,6	;RP1=0, select bank0
  1561  01A5  086D               	movf	_Ax,w
  1562  01A6  00F3               	movwf	___xxtofl@val
  1563  01A7  086E               	movf	_Ax+1,w
  1564  01A8  00F4               	movwf	___xxtofl@val+1
  1565  01A9  3000               	movlw	0
  1566  01AA  1BF4               	btfsc	___xxtofl@val+1,7
  1567  01AB  30FF               	movlw	255
  1568  01AC  00F5               	movwf	___xxtofl@val+2
  1569  01AD  00F6               	movwf	___xxtofl@val+3
  1570  01AE  3001               	movlw	1
  1571  01AF  120A  158A  2567  120A  118A  	fcall	___xxtofl
  1572  01B4  0876               	movf	?___xxtofl+3,w
  1573  01B5  1283               	bcf	3,5	;RP0=0, select bank0
  1574  01B6  1303               	bcf	3,6	;RP1=0, select bank0
  1575  01B7  00B1               	movwf	___fldiv@b+3
  1576  01B8  0875               	movf	?___xxtofl+2,w
  1577  01B9  00B0               	movwf	___fldiv@b+2
  1578  01BA  0874               	movf	?___xxtofl+1,w
  1579  01BB  00AF               	movwf	___fldiv@b+1
  1580  01BC  0873               	movf	?___xxtofl,w
  1581  01BD  00AE               	movwf	___fldiv@b
  1582  01BE  3046               	movlw	70
  1583  01BF  00AD               	movwf	___fldiv@a+3
  1584  01C0  3080               	movlw	128
  1585  01C1  00AC               	movwf	___fldiv@a+2
  1586  01C2  3000               	movlw	0
  1587  01C3  00AB               	movwf	___fldiv@a+1
  1588  01C4  3000               	movlw	0
  1589  01C5  00AA               	movwf	___fldiv@a
  1590  01C6  120A  158A  2623  120A  118A  	fcall	___fldiv
  1591  01CB  1283               	bcf	3,5	;RP0=0, select bank0
  1592  01CC  1303               	bcf	3,6	;RP1=0, select bank0
  1593  01CD  082D               	movf	?___fldiv+3,w
  1594  01CE  00DB               	movwf	___fltol@f1+3
  1595  01CF  082C               	movf	?___fldiv+2,w
  1596  01D0  00DA               	movwf	___fltol@f1+2
  1597  01D1  082B               	movf	?___fldiv+1,w
  1598  01D2  00D9               	movwf	___fltol@f1+1
  1599  01D3  082A               	movf	?___fldiv,w
  1600  01D4  00D8               	movwf	___fltol@f1
  1601  01D5  120A  158A  2435  120A  118A  	fcall	___fltol
  1602  01DA  1283               	bcf	3,5	;RP0=0, select bank0
  1603  01DB  1303               	bcf	3,6	;RP1=0, select bank0
  1604  01DC  0859               	movf	?___fltol+1,w
  1605  01DD  1683               	bsf	3,5	;RP0=1, select bank1
  1606  01DE  1303               	bcf	3,6	;RP1=0, select bank1
  1607  01DF  00B9               	movwf	(_AX+1)^(0+128)
  1608  01E0  1283               	bcf	3,5	;RP0=0, select bank0
  1609  01E1  1303               	bcf	3,6	;RP1=0, select bank0
  1610  01E2  0858               	movf	?___fltol,w
  1611  01E3  1683               	bsf	3,5	;RP0=1, select bank1
  1612  01E4  1303               	bcf	3,6	;RP1=0, select bank1
  1613  01E5  00B8               	movwf	_AX^(0+128)
  1614  01E6                     l2880:	
  1615                           
  1616                           ;giroscopio.c: 89:         AY = (int)Ay/16384.0;
  1617  01E6  1283               	bcf	3,5	;RP0=0, select bank0
  1618  01E7  1303               	bcf	3,6	;RP1=0, select bank0
  1619  01E8  086B               	movf	_Ay,w
  1620  01E9  00F3               	movwf	___xxtofl@val
  1621  01EA  086C               	movf	_Ay+1,w
  1622  01EB  00F4               	movwf	___xxtofl@val+1
  1623  01EC  3000               	movlw	0
  1624  01ED  1BF4               	btfsc	___xxtofl@val+1,7
  1625  01EE  30FF               	movlw	255
  1626  01EF  00F5               	movwf	___xxtofl@val+2
  1627  01F0  00F6               	movwf	___xxtofl@val+3
  1628  01F1  3001               	movlw	1
  1629  01F2  120A  158A  2567  120A  118A  	fcall	___xxtofl
  1630  01F7  0876               	movf	?___xxtofl+3,w
  1631  01F8  1283               	bcf	3,5	;RP0=0, select bank0
  1632  01F9  1303               	bcf	3,6	;RP1=0, select bank0
  1633  01FA  00B1               	movwf	___fldiv@b+3
  1634  01FB  0875               	movf	?___xxtofl+2,w
  1635  01FC  00B0               	movwf	___fldiv@b+2
  1636  01FD  0874               	movf	?___xxtofl+1,w
  1637  01FE  00AF               	movwf	___fldiv@b+1
  1638  01FF  0873               	movf	?___xxtofl,w
  1639  0200  00AE               	movwf	___fldiv@b
  1640  0201  3046               	movlw	70
  1641  0202  00AD               	movwf	___fldiv@a+3
  1642  0203  3080               	movlw	128
  1643  0204  00AC               	movwf	___fldiv@a+2
  1644  0205  3000               	movlw	0
  1645  0206  00AB               	movwf	___fldiv@a+1
  1646  0207  3000               	movlw	0
  1647  0208  00AA               	movwf	___fldiv@a
  1648  0209  120A  158A  2623  120A  118A  	fcall	___fldiv
  1649  020E  1283               	bcf	3,5	;RP0=0, select bank0
  1650  020F  1303               	bcf	3,6	;RP1=0, select bank0
  1651  0210  082D               	movf	?___fldiv+3,w
  1652  0211  00DB               	movwf	___fltol@f1+3
  1653  0212  082C               	movf	?___fldiv+2,w
  1654  0213  00DA               	movwf	___fltol@f1+2
  1655  0214  082B               	movf	?___fldiv+1,w
  1656  0215  00D9               	movwf	___fltol@f1+1
  1657  0216  082A               	movf	?___fldiv,w
  1658  0217  00D8               	movwf	___fltol@f1
  1659  0218  120A  158A  2435  120A  118A  	fcall	___fltol
  1660  021D  1283               	bcf	3,5	;RP0=0, select bank0
  1661  021E  1303               	bcf	3,6	;RP1=0, select bank0
  1662  021F  0859               	movf	?___fltol+1,w
  1663  0220  1683               	bsf	3,5	;RP0=1, select bank1
  1664  0221  1303               	bcf	3,6	;RP1=0, select bank1
  1665  0222  00B7               	movwf	(_AY+1)^(0+128)
  1666  0223  1283               	bcf	3,5	;RP0=0, select bank0
  1667  0224  1303               	bcf	3,6	;RP1=0, select bank0
  1668  0225  0858               	movf	?___fltol,w
  1669  0226  1683               	bsf	3,5	;RP0=1, select bank1
  1670  0227  1303               	bcf	3,6	;RP1=0, select bank1
  1671  0228  00B6               	movwf	_AY^(0+128)
  1672  0229                     l2882:	
  1673                           
  1674                           ;giroscopio.c: 90:         AZ = (int)Az/16384.0;
  1675  0229  1283               	bcf	3,5	;RP0=0, select bank0
  1676  022A  1303               	bcf	3,6	;RP1=0, select bank0
  1677  022B  0869               	movf	_Az,w
  1678  022C  00F3               	movwf	___xxtofl@val
  1679  022D  086A               	movf	_Az+1,w
  1680  022E  00F4               	movwf	___xxtofl@val+1
  1681  022F  3000               	movlw	0
  1682  0230  1BF4               	btfsc	___xxtofl@val+1,7
  1683  0231  30FF               	movlw	255
  1684  0232  00F5               	movwf	___xxtofl@val+2
  1685  0233  00F6               	movwf	___xxtofl@val+3
  1686  0234  3001               	movlw	1
  1687  0235  120A  158A  2567  120A  118A  	fcall	___xxtofl
  1688  023A  0876               	movf	?___xxtofl+3,w
  1689  023B  1283               	bcf	3,5	;RP0=0, select bank0
  1690  023C  1303               	bcf	3,6	;RP1=0, select bank0
  1691  023D  00B1               	movwf	___fldiv@b+3
  1692  023E  0875               	movf	?___xxtofl+2,w
  1693  023F  00B0               	movwf	___fldiv@b+2
  1694  0240  0874               	movf	?___xxtofl+1,w
  1695  0241  00AF               	movwf	___fldiv@b+1
  1696  0242  0873               	movf	?___xxtofl,w
  1697  0243  00AE               	movwf	___fldiv@b
  1698  0244  3046               	movlw	70
  1699  0245  00AD               	movwf	___fldiv@a+3
  1700  0246  3080               	movlw	128
  1701  0247  00AC               	movwf	___fldiv@a+2
  1702  0248  3000               	movlw	0
  1703  0249  00AB               	movwf	___fldiv@a+1
  1704  024A  3000               	movlw	0
  1705  024B  00AA               	movwf	___fldiv@a
  1706  024C  120A  158A  2623  120A  118A  	fcall	___fldiv
  1707  0251  1283               	bcf	3,5	;RP0=0, select bank0
  1708  0252  1303               	bcf	3,6	;RP1=0, select bank0
  1709  0253  082D               	movf	?___fldiv+3,w
  1710  0254  00DB               	movwf	___fltol@f1+3
  1711  0255  082C               	movf	?___fldiv+2,w
  1712  0256  00DA               	movwf	___fltol@f1+2
  1713  0257  082B               	movf	?___fldiv+1,w
  1714  0258  00D9               	movwf	___fltol@f1+1
  1715  0259  082A               	movf	?___fldiv,w
  1716  025A  00D8               	movwf	___fltol@f1
  1717  025B  120A  158A  2435  120A  118A  	fcall	___fltol
  1718  0260  1283               	bcf	3,5	;RP0=0, select bank0
  1719  0261  1303               	bcf	3,6	;RP1=0, select bank0
  1720  0262  0859               	movf	?___fltol+1,w
  1721  0263  1683               	bsf	3,5	;RP0=1, select bank1
  1722  0264  1303               	bcf	3,6	;RP1=0, select bank1
  1723  0265  00B5               	movwf	(_AZ+1)^(0+128)
  1724  0266  1283               	bcf	3,5	;RP0=0, select bank0
  1725  0267  1303               	bcf	3,6	;RP1=0, select bank0
  1726  0268  0858               	movf	?___fltol,w
  1727  0269  1683               	bsf	3,5	;RP0=1, select bank1
  1728  026A  1303               	bcf	3,6	;RP1=0, select bank1
  1729  026B  00B4               	movwf	_AZ^(0+128)
  1730  026C                     l2884:	
  1731                           
  1732                           ;giroscopio.c: 91:         GX = (int)Gx/131.0;
  1733  026C  1283               	bcf	3,5	;RP0=0, select bank0
  1734  026D  1303               	bcf	3,6	;RP1=0, select bank0
  1735  026E  0867               	movf	_Gx,w
  1736  026F  00F3               	movwf	___xxtofl@val
  1737  0270  0868               	movf	_Gx+1,w
  1738  0271  00F4               	movwf	___xxtofl@val+1
  1739  0272  3000               	movlw	0
  1740  0273  1BF4               	btfsc	___xxtofl@val+1,7
  1741  0274  30FF               	movlw	255
  1742  0275  00F5               	movwf	___xxtofl@val+2
  1743  0276  00F6               	movwf	___xxtofl@val+3
  1744  0277  3001               	movlw	1
  1745  0278  120A  158A  2567  120A  118A  	fcall	___xxtofl
  1746  027D  0876               	movf	?___xxtofl+3,w
  1747  027E  1283               	bcf	3,5	;RP0=0, select bank0
  1748  027F  1303               	bcf	3,6	;RP1=0, select bank0
  1749  0280  00B1               	movwf	___fldiv@b+3
  1750  0281  0875               	movf	?___xxtofl+2,w
  1751  0282  00B0               	movwf	___fldiv@b+2
  1752  0283  0874               	movf	?___xxtofl+1,w
  1753  0284  00AF               	movwf	___fldiv@b+1
  1754  0285  0873               	movf	?___xxtofl,w
  1755  0286  00AE               	movwf	___fldiv@b
  1756  0287  3043               	movlw	67
  1757  0288  00AD               	movwf	___fldiv@a+3
  1758  0289  3003               	movlw	3
  1759  028A  00AC               	movwf	___fldiv@a+2
  1760  028B  3000               	movlw	0
  1761  028C  00AB               	movwf	___fldiv@a+1
  1762  028D  3000               	movlw	0
  1763  028E  00AA               	movwf	___fldiv@a
  1764  028F  120A  158A  2623  120A  118A  	fcall	___fldiv
  1765  0294  1283               	bcf	3,5	;RP0=0, select bank0
  1766  0295  1303               	bcf	3,6	;RP1=0, select bank0
  1767  0296  082D               	movf	?___fldiv+3,w
  1768  0297  00DB               	movwf	___fltol@f1+3
  1769  0298  082C               	movf	?___fldiv+2,w
  1770  0299  00DA               	movwf	___fltol@f1+2
  1771  029A  082B               	movf	?___fldiv+1,w
  1772  029B  00D9               	movwf	___fltol@f1+1
  1773  029C  082A               	movf	?___fldiv,w
  1774  029D  00D8               	movwf	___fltol@f1
  1775  029E  120A  158A  2435  120A  118A  	fcall	___fltol
  1776  02A3  1283               	bcf	3,5	;RP0=0, select bank0
  1777  02A4  1303               	bcf	3,6	;RP1=0, select bank0
  1778  02A5  0859               	movf	?___fltol+1,w
  1779  02A6  1683               	bsf	3,5	;RP0=1, select bank1
  1780  02A7  1303               	bcf	3,6	;RP1=0, select bank1
  1781  02A8  00B3               	movwf	(_GX+1)^(0+128)
  1782  02A9  1283               	bcf	3,5	;RP0=0, select bank0
  1783  02AA  1303               	bcf	3,6	;RP1=0, select bank0
  1784  02AB  0858               	movf	?___fltol,w
  1785  02AC  1683               	bsf	3,5	;RP0=1, select bank1
  1786  02AD  1303               	bcf	3,6	;RP1=0, select bank1
  1787  02AE  00B2               	movwf	_GX^(0+128)
  1788  02AF                     l2886:	
  1789                           
  1790                           ;giroscopio.c: 92:         GY = (int)Gy/131.0;
  1791  02AF  1283               	bcf	3,5	;RP0=0, select bank0
  1792  02B0  1303               	bcf	3,6	;RP1=0, select bank0
  1793  02B1  0865               	movf	_Gy,w
  1794  02B2  00F3               	movwf	___xxtofl@val
  1795  02B3  0866               	movf	_Gy+1,w
  1796  02B4  00F4               	movwf	___xxtofl@val+1
  1797  02B5  3000               	movlw	0
  1798  02B6  1BF4               	btfsc	___xxtofl@val+1,7
  1799  02B7  30FF               	movlw	255
  1800  02B8  00F5               	movwf	___xxtofl@val+2
  1801  02B9  00F6               	movwf	___xxtofl@val+3
  1802  02BA  3001               	movlw	1
  1803  02BB  120A  158A  2567  120A  118A  	fcall	___xxtofl
  1804  02C0  0876               	movf	?___xxtofl+3,w
  1805  02C1  1283               	bcf	3,5	;RP0=0, select bank0
  1806  02C2  1303               	bcf	3,6	;RP1=0, select bank0
  1807  02C3  00B1               	movwf	___fldiv@b+3
  1808  02C4  0875               	movf	?___xxtofl+2,w
  1809  02C5  00B0               	movwf	___fldiv@b+2
  1810  02C6  0874               	movf	?___xxtofl+1,w
  1811  02C7  00AF               	movwf	___fldiv@b+1
  1812  02C8  0873               	movf	?___xxtofl,w
  1813  02C9  00AE               	movwf	___fldiv@b
  1814  02CA  3043               	movlw	67
  1815  02CB  00AD               	movwf	___fldiv@a+3
  1816  02CC  3003               	movlw	3
  1817  02CD  00AC               	movwf	___fldiv@a+2
  1818  02CE  3000               	movlw	0
  1819  02CF  00AB               	movwf	___fldiv@a+1
  1820  02D0  3000               	movlw	0
  1821  02D1  00AA               	movwf	___fldiv@a
  1822  02D2  120A  158A  2623  120A  118A  	fcall	___fldiv
  1823  02D7  1283               	bcf	3,5	;RP0=0, select bank0
  1824  02D8  1303               	bcf	3,6	;RP1=0, select bank0
  1825  02D9  082D               	movf	?___fldiv+3,w
  1826  02DA  00DB               	movwf	___fltol@f1+3
  1827  02DB  082C               	movf	?___fldiv+2,w
  1828  02DC  00DA               	movwf	___fltol@f1+2
  1829  02DD  082B               	movf	?___fldiv+1,w
  1830  02DE  00D9               	movwf	___fltol@f1+1
  1831  02DF  082A               	movf	?___fldiv,w
  1832  02E0  00D8               	movwf	___fltol@f1
  1833  02E1  120A  158A  2435  120A  118A  	fcall	___fltol
  1834  02E6  1283               	bcf	3,5	;RP0=0, select bank0
  1835  02E7  1303               	bcf	3,6	;RP1=0, select bank0
  1836  02E8  0859               	movf	?___fltol+1,w
  1837  02E9  1683               	bsf	3,5	;RP0=1, select bank1
  1838  02EA  1303               	bcf	3,6	;RP1=0, select bank1
  1839  02EB  00B1               	movwf	(_GY+1)^(0+128)
  1840  02EC  1283               	bcf	3,5	;RP0=0, select bank0
  1841  02ED  1303               	bcf	3,6	;RP1=0, select bank0
  1842  02EE  0858               	movf	?___fltol,w
  1843  02EF  1683               	bsf	3,5	;RP0=1, select bank1
  1844  02F0  1303               	bcf	3,6	;RP1=0, select bank1
  1845  02F1  00B0               	movwf	_GY^(0+128)
  1846  02F2                     l2888:	
  1847                           
  1848                           ;giroscopio.c: 93:         GZ = (int)Gz/131.0;
  1849  02F2  1283               	bcf	3,5	;RP0=0, select bank0
  1850  02F3  1303               	bcf	3,6	;RP1=0, select bank0
  1851  02F4  0863               	movf	_Gz,w
  1852  02F5  00F3               	movwf	___xxtofl@val
  1853  02F6  0864               	movf	_Gz+1,w
  1854  02F7  00F4               	movwf	___xxtofl@val+1
  1855  02F8  3000               	movlw	0
  1856  02F9  1BF4               	btfsc	___xxtofl@val+1,7
  1857  02FA  30FF               	movlw	255
  1858  02FB  00F5               	movwf	___xxtofl@val+2
  1859  02FC  00F6               	movwf	___xxtofl@val+3
  1860  02FD  3001               	movlw	1
  1861  02FE  120A  158A  2567  120A  118A  	fcall	___xxtofl
  1862  0303  0876               	movf	?___xxtofl+3,w
  1863  0304  1283               	bcf	3,5	;RP0=0, select bank0
  1864  0305  1303               	bcf	3,6	;RP1=0, select bank0
  1865  0306  00B1               	movwf	___fldiv@b+3
  1866  0307  0875               	movf	?___xxtofl+2,w
  1867  0308  00B0               	movwf	___fldiv@b+2
  1868  0309  0874               	movf	?___xxtofl+1,w
  1869  030A  00AF               	movwf	___fldiv@b+1
  1870  030B  0873               	movf	?___xxtofl,w
  1871  030C  00AE               	movwf	___fldiv@b
  1872  030D  3043               	movlw	67
  1873  030E  00AD               	movwf	___fldiv@a+3
  1874  030F  3003               	movlw	3
  1875  0310  00AC               	movwf	___fldiv@a+2
  1876  0311  3000               	movlw	0
  1877  0312  00AB               	movwf	___fldiv@a+1
  1878  0313  3000               	movlw	0
  1879  0314  00AA               	movwf	___fldiv@a
  1880  0315  120A  158A  2623  120A  118A  	fcall	___fldiv
  1881  031A  1283               	bcf	3,5	;RP0=0, select bank0
  1882  031B  1303               	bcf	3,6	;RP1=0, select bank0
  1883  031C  082D               	movf	?___fldiv+3,w
  1884  031D  00DB               	movwf	___fltol@f1+3
  1885  031E  082C               	movf	?___fldiv+2,w
  1886  031F  00DA               	movwf	___fltol@f1+2
  1887  0320  082B               	movf	?___fldiv+1,w
  1888  0321  00D9               	movwf	___fltol@f1+1
  1889  0322  082A               	movf	?___fldiv,w
  1890  0323  00D8               	movwf	___fltol@f1
  1891  0324  120A  158A  2435  120A  118A  	fcall	___fltol
  1892  0329  1283               	bcf	3,5	;RP0=0, select bank0
  1893  032A  1303               	bcf	3,6	;RP1=0, select bank0
  1894  032B  0859               	movf	?___fltol+1,w
  1895  032C  1683               	bsf	3,5	;RP0=1, select bank1
  1896  032D  1303               	bcf	3,6	;RP1=0, select bank1
  1897  032E  00AF               	movwf	(_GZ+1)^(0+128)
  1898  032F  1283               	bcf	3,5	;RP0=0, select bank0
  1899  0330  1303               	bcf	3,6	;RP1=0, select bank0
  1900  0331  0858               	movf	?___fltol,w
  1901  0332  1683               	bsf	3,5	;RP0=1, select bank1
  1902  0333  1303               	bcf	3,6	;RP1=0, select bank1
  1903  0334  00AE               	movwf	_GZ^(0+128)
  1904  0335                     l2890:	
  1905                           
  1906                           ;giroscopio.c: 94:         t = ((int)T/340.00)+36.53;
  1907  0335  1283               	bcf	3,5	;RP0=0, select bank0
  1908  0336  1303               	bcf	3,6	;RP1=0, select bank0
  1909  0337  0861               	movf	_T,w
  1910  0338  00F3               	movwf	___xxtofl@val
  1911  0339  0862               	movf	_T+1,w
  1912  033A  00F4               	movwf	___xxtofl@val+1
  1913  033B  3000               	movlw	0
  1914  033C  1BF4               	btfsc	___xxtofl@val+1,7
  1915  033D  30FF               	movlw	255
  1916  033E  00F5               	movwf	___xxtofl@val+2
  1917  033F  00F6               	movwf	___xxtofl@val+3
  1918  0340  3001               	movlw	1
  1919  0341  120A  158A  2567  120A  118A  	fcall	___xxtofl
  1920  0346  0876               	movf	?___xxtofl+3,w
  1921  0347  1283               	bcf	3,5	;RP0=0, select bank0
  1922  0348  1303               	bcf	3,6	;RP1=0, select bank0
  1923  0349  00B1               	movwf	___fldiv@b+3
  1924  034A  0875               	movf	?___xxtofl+2,w
  1925  034B  00B0               	movwf	___fldiv@b+2
  1926  034C  0874               	movf	?___xxtofl+1,w
  1927  034D  00AF               	movwf	___fldiv@b+1
  1928  034E  0873               	movf	?___xxtofl,w
  1929  034F  00AE               	movwf	___fldiv@b
  1930  0350  3043               	movlw	67
  1931  0351  00AD               	movwf	___fldiv@a+3
  1932  0352  30AA               	movlw	170
  1933  0353  00AC               	movwf	___fldiv@a+2
  1934  0354  3000               	movlw	0
  1935  0355  00AB               	movwf	___fldiv@a+1
  1936  0356  3000               	movlw	0
  1937  0357  00AA               	movwf	___fldiv@a
  1938  0358  120A  158A  2623  120A  118A  	fcall	___fldiv
  1939  035D  1283               	bcf	3,5	;RP0=0, select bank0
  1940  035E  1303               	bcf	3,6	;RP1=0, select bank0
  1941  035F  082D               	movf	?___fldiv+3,w
  1942  0360  00CB               	movwf	___fladd@a+3
  1943  0361  082C               	movf	?___fldiv+2,w
  1944  0362  00CA               	movwf	___fladd@a+2
  1945  0363  082B               	movf	?___fldiv+1,w
  1946  0364  00C9               	movwf	___fladd@a+1
  1947  0365  082A               	movf	?___fldiv,w
  1948  0366  00C8               	movwf	___fladd@a
  1949  0367  3042               	movlw	66
  1950  0368  00C7               	movwf	___fladd@b+3
  1951  0369  3012               	movlw	18
  1952  036A  00C6               	movwf	___fladd@b+2
  1953  036B  301E               	movlw	30
  1954  036C  00C5               	movwf	___fladd@b+1
  1955  036D  30B8               	movlw	184
  1956  036E  00C4               	movwf	___fladd@b
  1957  036F  120A  118A  247F  120A  118A  	fcall	___fladd
  1958  0374  1283               	bcf	3,5	;RP0=0, select bank0
  1959  0375  1303               	bcf	3,6	;RP1=0, select bank0
  1960  0376  0847               	movf	?___fladd+3,w
  1961  0377  00DB               	movwf	___fltol@f1+3
  1962  0378  0846               	movf	?___fladd+2,w
  1963  0379  00DA               	movwf	___fltol@f1+2
  1964  037A  0845               	movf	?___fladd+1,w
  1965  037B  00D9               	movwf	___fltol@f1+1
  1966  037C  0844               	movf	?___fladd,w
  1967  037D  00D8               	movwf	___fltol@f1
  1968  037E  120A  158A  2435  120A  118A  	fcall	___fltol
  1969  0383  1283               	bcf	3,5	;RP0=0, select bank0
  1970  0384  1303               	bcf	3,6	;RP1=0, select bank0
  1971  0385  0859               	movf	?___fltol+1,w
  1972  0386  1683               	bsf	3,5	;RP0=1, select bank1
  1973  0387  1303               	bcf	3,6	;RP1=0, select bank1
  1974  0388  00AD               	movwf	(_t+1)^(0+128)
  1975  0389  1283               	bcf	3,5	;RP0=0, select bank0
  1976  038A  1303               	bcf	3,6	;RP1=0, select bank0
  1977  038B  0858               	movf	?___fltol,w
  1978  038C  1683               	bsf	3,5	;RP0=1, select bank1
  1979  038D  1303               	bcf	3,6	;RP1=0, select bank1
  1980  038E  00AC               	movwf	_t^(0+128)
  1981  038F                     l2892:	
  1982                           
  1983                           ;giroscopio.c: 96:         sprintf(buffer, "Ax = %d    ",AX);
  1984  038F  3040               	movlw	(low ((STR_1-__stringbase)| (0+32768)))& (0+255)
  1985  0390  00C6               	movwf	??_main^(0+128)
  1986  0391  0846               	movf	??_main^(0+128),w
  1987  0392  1283               	bcf	3,5	;RP0=0, select bank0
  1988  0393  1303               	bcf	3,6	;RP1=0, select bank0
  1989  0394  00A8               	movwf	sprintf@f
  1990  0395  1683               	bsf	3,5	;RP0=1, select bank1
  1991  0396  1303               	bcf	3,6	;RP1=0, select bank1
  1992  0397  0839               	movf	(_AX+1)^(0+128),w
  1993  0398  1283               	bcf	3,5	;RP0=0, select bank0
  1994  0399  1303               	bcf	3,6	;RP1=0, select bank0
  1995  039A  00AA               	movwf	?_sprintf+2
  1996  039B  1683               	bsf	3,5	;RP0=1, select bank1
  1997  039C  1303               	bcf	3,6	;RP1=0, select bank1
  1998  039D  0838               	movf	_AX^(0+128),w
  1999  039E  1283               	bcf	3,5	;RP0=0, select bank0
  2000  039F  1303               	bcf	3,6	;RP1=0, select bank0
  2001  03A0  00A9               	movwf	?_sprintf+1
  2002  03A1  30BA               	movlw	(low (_buffer| 0))& (0+255)
  2003  03A2  120A  118A  2707  120A  118A  	fcall	_sprintf
  2004  03A7                     l2894:	
  2005                           
  2006                           ;giroscopio.c: 97:         uart_sendString(buffer);
  2007  03A7  30BA               	movlw	(low (_buffer| 0))& (0+255)
  2008  03A8  120A  158A  2244  120A  118A  	fcall	_uart_sendString
  2009                           
  2010                           ;giroscopio.c: 99:         sprintf(buffer, "Ay = %d    ",AY);
  2011  03AD  304C               	movlw	(low ((STR_2-__stringbase)| (0+32768)))& (0+255)
  2012  03AE  1683               	bsf	3,5	;RP0=1, select bank1
  2013  03AF  1303               	bcf	3,6	;RP1=0, select bank1
  2014  03B0  00C6               	movwf	??_main^(0+128)
  2015  03B1  0846               	movf	??_main^(0+128),w
  2016  03B2  1283               	bcf	3,5	;RP0=0, select bank0
  2017  03B3  1303               	bcf	3,6	;RP1=0, select bank0
  2018  03B4  00A8               	movwf	sprintf@f
  2019  03B5  1683               	bsf	3,5	;RP0=1, select bank1
  2020  03B6  1303               	bcf	3,6	;RP1=0, select bank1
  2021  03B7  0837               	movf	(_AY+1)^(0+128),w
  2022  03B8  1283               	bcf	3,5	;RP0=0, select bank0
  2023  03B9  1303               	bcf	3,6	;RP1=0, select bank0
  2024  03BA  00AA               	movwf	?_sprintf+2
  2025  03BB  1683               	bsf	3,5	;RP0=1, select bank1
  2026  03BC  1303               	bcf	3,6	;RP1=0, select bank1
  2027  03BD  0836               	movf	_AY^(0+128),w
  2028  03BE  1283               	bcf	3,5	;RP0=0, select bank0
  2029  03BF  1303               	bcf	3,6	;RP1=0, select bank0
  2030  03C0  00A9               	movwf	?_sprintf+1
  2031  03C1  30BA               	movlw	(low (_buffer| 0))& (0+255)
  2032  03C2  120A  118A  2707  120A  118A  	fcall	_sprintf
  2033  03C7                     l2896:	
  2034                           
  2035                           ;giroscopio.c: 100:         uart_sendString(buffer);
  2036  03C7  30BA               	movlw	(low (_buffer| 0))& (0+255)
  2037  03C8  120A  158A  2244  120A  118A  	fcall	_uart_sendString
  2038  03CD                     l2898:	
  2039                           
  2040                           ;giroscopio.c: 102:         sprintf(buffer," Az = %d    ",AZ);
  2041  03CD  3033               	movlw	(low ((STR_3-__stringbase)| (0+32768)))& (0+255)
  2042  03CE  1683               	bsf	3,5	;RP0=1, select bank1
  2043  03CF  1303               	bcf	3,6	;RP1=0, select bank1
  2044  03D0  00C6               	movwf	??_main^(0+128)
  2045  03D1  0846               	movf	??_main^(0+128),w
  2046  03D2  1283               	bcf	3,5	;RP0=0, select bank0
  2047  03D3  1303               	bcf	3,6	;RP1=0, select bank0
  2048  03D4  00A8               	movwf	sprintf@f
  2049  03D5  1683               	bsf	3,5	;RP0=1, select bank1
  2050  03D6  1303               	bcf	3,6	;RP1=0, select bank1
  2051  03D7  0835               	movf	(_AZ+1)^(0+128),w
  2052  03D8  1283               	bcf	3,5	;RP0=0, select bank0
  2053  03D9  1303               	bcf	3,6	;RP1=0, select bank0
  2054  03DA  00AA               	movwf	?_sprintf+2
  2055  03DB  1683               	bsf	3,5	;RP0=1, select bank1
  2056  03DC  1303               	bcf	3,6	;RP1=0, select bank1
  2057  03DD  0834               	movf	_AZ^(0+128),w
  2058  03DE  1283               	bcf	3,5	;RP0=0, select bank0
  2059  03DF  1303               	bcf	3,6	;RP1=0, select bank0
  2060  03E0  00A9               	movwf	?_sprintf+1
  2061  03E1  30BA               	movlw	(low (_buffer| 0))& (0+255)
  2062  03E2  120A  118A  2707  120A  118A  	fcall	_sprintf
  2063                           
  2064                           ;giroscopio.c: 103:         uart_sendString(buffer);
  2065  03E7  30BA               	movlw	(low (_buffer| 0))& (0+255)
  2066  03E8  120A  158A  2244  120A  118A  	fcall	_uart_sendString
  2067  03ED                     l2900:	
  2068                           
  2069                           ;giroscopio.c: 105:         sprintf(buffer," T = %d      ",t);
  2070  03ED  300B               	movlw	(low ((STR_4-__stringbase)| (0+32768)))& (0+255)
  2071  03EE  1683               	bsf	3,5	;RP0=1, select bank1
  2072  03EF  1303               	bcf	3,6	;RP1=0, select bank1
  2073  03F0  00C6               	movwf	??_main^(0+128)
  2074  03F1  0846               	movf	??_main^(0+128),w
  2075  03F2  1283               	bcf	3,5	;RP0=0, select bank0
  2076  03F3  1303               	bcf	3,6	;RP1=0, select bank0
  2077  03F4  00A8               	movwf	sprintf@f
  2078  03F5  1683               	bsf	3,5	;RP0=1, select bank1
  2079  03F6  1303               	bcf	3,6	;RP1=0, select bank1
  2080  03F7  082D               	movf	(_t+1)^(0+128),w
  2081  03F8  1283               	bcf	3,5	;RP0=0, select bank0
  2082  03F9  1303               	bcf	3,6	;RP1=0, select bank0
  2083  03FA  00AA               	movwf	?_sprintf+2
  2084  03FB  1683               	bsf	3,5	;RP0=1, select bank1
  2085  03FC  1303               	bcf	3,6	;RP1=0, select bank1
  2086  03FD  082C               	movf	_t^(0+128),w
  2087  03FE  1283               	bcf	3,5	;RP0=0, select bank0
  2088  03FF  1303               	bcf	3,6	;RP1=0, select bank0
  2089  0400  00A9               	movwf	?_sprintf+1
  2090  0401  30BA               	movlw	(low (_buffer| 0))& (0+255)
  2091  0402  120A  118A  2707  120A  118A  	fcall	_sprintf
  2092  0407                     l2902:	
  2093                           
  2094                           ;giroscopio.c: 106:         uart_sendString(buffer);
  2095  0407  30BA               	movlw	(low (_buffer| 0))& (0+255)
  2096  0408  120A  158A  2244  120A  118A  	fcall	_uart_sendString
  2097                           
  2098                           ;giroscopio.c: 108:         sprintf(buffer," Gx = %d    ",GX);
  2099  040D  3019               	movlw	(low ((STR_5-__stringbase)| (0+32768)))& (0+255)
  2100  040E  1683               	bsf	3,5	;RP0=1, select bank1
  2101  040F  1303               	bcf	3,6	;RP1=0, select bank1
  2102  0410  00C6               	movwf	??_main^(0+128)
  2103  0411  0846               	movf	??_main^(0+128),w
  2104  0412  1283               	bcf	3,5	;RP0=0, select bank0
  2105  0413  1303               	bcf	3,6	;RP1=0, select bank0
  2106  0414  00A8               	movwf	sprintf@f
  2107  0415  1683               	bsf	3,5	;RP0=1, select bank1
  2108  0416  1303               	bcf	3,6	;RP1=0, select bank1
  2109  0417  0833               	movf	(_GX+1)^(0+128),w
  2110  0418  1283               	bcf	3,5	;RP0=0, select bank0
  2111  0419  1303               	bcf	3,6	;RP1=0, select bank0
  2112  041A  00AA               	movwf	?_sprintf+2
  2113  041B  1683               	bsf	3,5	;RP0=1, select bank1
  2114  041C  1303               	bcf	3,6	;RP1=0, select bank1
  2115  041D  0832               	movf	_GX^(0+128),w
  2116  041E  1283               	bcf	3,5	;RP0=0, select bank0
  2117  041F  1303               	bcf	3,6	;RP1=0, select bank0
  2118  0420  00A9               	movwf	?_sprintf+1
  2119  0421  30BA               	movlw	(low (_buffer| 0))& (0+255)
  2120  0422  120A  118A  2707  120A  118A  	fcall	_sprintf
  2121  0427                     l2904:	
  2122                           
  2123                           ;giroscopio.c: 109:         uart_sendString(buffer);
  2124  0427  30BA               	movlw	(low (_buffer| 0))& (0+255)
  2125  0428  120A  158A  2244  120A  118A  	fcall	_uart_sendString
  2126  042D                     l2906:	
  2127                           
  2128                           ;giroscopio.c: 111:         sprintf(buffer," Gy = %d    ",GY);
  2129  042D  3026               	movlw	(low ((STR_6-__stringbase)| (0+32768)))& (0+255)
  2130  042E  1683               	bsf	3,5	;RP0=1, select bank1
  2131  042F  1303               	bcf	3,6	;RP1=0, select bank1
  2132  0430  00C6               	movwf	??_main^(0+128)
  2133  0431  0846               	movf	??_main^(0+128),w
  2134  0432  1283               	bcf	3,5	;RP0=0, select bank0
  2135  0433  1303               	bcf	3,6	;RP1=0, select bank0
  2136  0434  00A8               	movwf	sprintf@f
  2137  0435  1683               	bsf	3,5	;RP0=1, select bank1
  2138  0436  1303               	bcf	3,6	;RP1=0, select bank1
  2139  0437  0831               	movf	(_GY+1)^(0+128),w
  2140  0438  1283               	bcf	3,5	;RP0=0, select bank0
  2141  0439  1303               	bcf	3,6	;RP1=0, select bank0
  2142  043A  00AA               	movwf	?_sprintf+2
  2143  043B  1683               	bsf	3,5	;RP0=1, select bank1
  2144  043C  1303               	bcf	3,6	;RP1=0, select bank1
  2145  043D  0830               	movf	_GY^(0+128),w
  2146  043E  1283               	bcf	3,5	;RP0=0, select bank0
  2147  043F  1303               	bcf	3,6	;RP1=0, select bank0
  2148  0440  00A9               	movwf	?_sprintf+1
  2149  0441  30BA               	movlw	(low (_buffer| 0))& (0+255)
  2150  0442  120A  118A  2707  120A  118A  	fcall	_sprintf
  2151                           
  2152                           ;giroscopio.c: 112:         uart_sendString(buffer);
  2153  0447  30BA               	movlw	(low (_buffer| 0))& (0+255)
  2154  0448  120A  158A  2244  120A  118A  	fcall	_uart_sendString
  2155  044D                     l2908:	
  2156                           
  2157                           ;giroscopio.c: 114:         sprintf(buffer," Gz = %d\r\n",GZ);
  2158  044D  3058               	movlw	(low ((STR_7-__stringbase)| (0+32768)))& (0+255)
  2159  044E  1683               	bsf	3,5	;RP0=1, select bank1
  2160  044F  1303               	bcf	3,6	;RP1=0, select bank1
  2161  0450  00C6               	movwf	??_main^(0+128)
  2162  0451  0846               	movf	??_main^(0+128),w
  2163  0452  1283               	bcf	3,5	;RP0=0, select bank0
  2164  0453  1303               	bcf	3,6	;RP1=0, select bank0
  2165  0454  00A8               	movwf	sprintf@f
  2166  0455  1683               	bsf	3,5	;RP0=1, select bank1
  2167  0456  1303               	bcf	3,6	;RP1=0, select bank1
  2168  0457  082F               	movf	(_GZ+1)^(0+128),w
  2169  0458  1283               	bcf	3,5	;RP0=0, select bank0
  2170  0459  1303               	bcf	3,6	;RP1=0, select bank0
  2171  045A  00AA               	movwf	?_sprintf+2
  2172  045B  1683               	bsf	3,5	;RP0=1, select bank1
  2173  045C  1303               	bcf	3,6	;RP1=0, select bank1
  2174  045D  082E               	movf	_GZ^(0+128),w
  2175  045E  1283               	bcf	3,5	;RP0=0, select bank0
  2176  045F  1303               	bcf	3,6	;RP1=0, select bank0
  2177  0460  00A9               	movwf	?_sprintf+1
  2178  0461  30BA               	movlw	(low (_buffer| 0))& (0+255)
  2179  0462  120A  118A  2707  120A  118A  	fcall	_sprintf
  2180  0467                     l2910:	
  2181                           
  2182                           ;giroscopio.c: 115:         uart_sendString(buffer);
  2183  0467  30BA               	movlw	(low (_buffer| 0))& (0+255)
  2184  0468  120A  158A  2244  120A  118A  	fcall	_uart_sendString
  2185  046D                     l2912:	
  2186                           
  2187                           ;giroscopio.c: 119:         _delay((unsigned long)((500)*(4000000/4000.0)));
  2188  046D  3003               	movlw	3
  2189  046E  1683               	bsf	3,5	;RP0=1, select bank1
  2190  046F  1303               	bcf	3,6	;RP1=0, select bank1
  2191  0470  00C8               	movwf	(??_main^(0+128)+2)
  2192  0471  308A               	movlw	138
  2193  0472  00C7               	movwf	(??_main^(0+128)+1)
  2194  0473  3055               	movlw	85
  2195  0474  00C6               	movwf	??_main^(0+128)
  2196  0475                     u3337:	
  2197  0475  0BC6               	decfsz	??_main^(0+128),f
  2198  0476  2C75               	goto	u3337
  2199  0477  0BC7               	decfsz	(??_main^(0+128)+1),f
  2200  0478  2C75               	goto	u3337
  2201  0479  0BC8               	decfsz	(??_main^(0+128)+2),f
  2202  047A  2C75               	goto	u3337
  2203  047B  2872               	goto	l2854
  2204  047C  120A  118A  280C   	ljmp	start
  2205  047F                     __end_of_main:	
  2206                           
  2207                           	psect	text1
  2208  0A44                     __ptext1:	
  2209 ;; *************** function _uart_sendString *****************
  2210 ;; Defined at:
  2211 ;;		line 59 in file "UART.c"
  2212 ;; Parameters:    Size  Location     Type
  2213 ;;  text            1    wreg     PTR unsigned char 
  2214 ;;		 -> buffer(12), 
  2215 ;; Auto vars:     Size  Location     Type
  2216 ;;  text            1    7[COMMON] PTR unsigned char 
  2217 ;;		 -> buffer(12), 
  2218 ;;  i               2    5[COMMON] int 
  2219 ;; Return value:  Size  Location     Type
  2220 ;;                  1    wreg      void 
  2221 ;; Registers used:
  2222 ;;		wreg, fsr0l, fsr0h, status,2, status,0, pclath, cstack
  2223 ;; Tracked objects:
  2224 ;;		On entry : 0/0
  2225 ;;		On exit  : 0/0
  2226 ;;		Unchanged: 0/0
  2227 ;; Data sizes:     COMMON   BANK0   BANK1   BANK3   BANK2
  2228 ;;      Params:         0       0       0       0       0
  2229 ;;      Locals:         3       0       0       0       0
  2230 ;;      Temps:          1       0       0       0       0
  2231 ;;      Totals:         4       0       0       0       0
  2232 ;;Total ram usage:        4 bytes
  2233 ;; Hardware stack levels used:    1
  2234 ;; Hardware stack levels required when called:    2
  2235 ;; This function calls:
  2236 ;;		_uart_transmit
  2237 ;; This function is called by:
  2238 ;;		_main
  2239 ;; This function uses a non-reentrant model
  2240 ;;
  2241                           
  2242                           
  2243                           ;psect for function _uart_sendString
  2244  0A44                     _uart_sendString:	
  2245                           
  2246                           ;incstack = 0
  2247                           ; Regs used in _uart_sendString: [wreg-fsr0h+status,2+status,0+pclath+cstack]
  2248                           ;uart_sendString@text stored from wreg
  2249  0A44  00F7               	movwf	uart_sendString@text
  2250  0A45                     l2006:	
  2251                           
  2252                           ;UART.c: 60:     int i = 0;
  2253  0A45  01F5               	clrf	uart_sendString@i
  2254  0A46  01F6               	clrf	uart_sendString@i+1
  2255                           
  2256                           ;UART.c: 61:     while(text[i] != '\0')
  2257  0A47  2A59               	goto	l2012
  2258  0A48                     l2008:	
  2259                           
  2260                           ;UART.c: 62:         uart_transmit(text[i++]);
  2261  0A48  0875               	movf	uart_sendString@i,w
  2262  0A49  0777               	addwf	uart_sendString@text,w
  2263  0A4A  00F4               	movwf	??_uart_sendString
  2264  0A4B  0874               	movf	??_uart_sendString,w
  2265  0A4C  0084               	movwf	4
  2266  0A4D  0800               	movf	0,w
  2267  0A4E  120A  158A  2192  120A  158A  	fcall	_uart_transmit
  2268  0A53                     l2010:	
  2269  0A53  3001               	movlw	1
  2270  0A54  07F5               	addwf	uart_sendString@i,f
  2271  0A55  1803               	skipnc
  2272  0A56  0AF6               	incf	uart_sendString@i+1,f
  2273  0A57  3000               	movlw	0
  2274  0A58  07F6               	addwf	uart_sendString@i+1,f
  2275  0A59                     l2012:	
  2276                           
  2277                           ;UART.c: 61:     while(text[i] != '\0')
  2278  0A59  0875               	movf	uart_sendString@i,w
  2279  0A5A  0777               	addwf	uart_sendString@text,w
  2280  0A5B  00F4               	movwf	??_uart_sendString
  2281  0A5C  0874               	movf	??_uart_sendString,w
  2282  0A5D  0084               	movwf	4
  2283  0A5E  1383               	bcf	3,7	;select IRP bank0
  2284  0A5F  0800               	movf	0,w
  2285  0A60  1D03               	btfss	3,2
  2286  0A61  2A63               	goto	u1811
  2287  0A62  2A64               	goto	u1810
  2288  0A63                     u1811:	
  2289  0A63  2A48               	goto	l2008
  2290  0A64                     u1810:	
  2291  0A64                     l253:	
  2292  0A64  0008               	return
  2293  0A65                     __end_of_uart_sendString:	
  2294                           
  2295                           	psect	text2
  2296  0992                     __ptext2:	
  2297 ;; *************** function _uart_transmit *****************
  2298 ;; Defined at:
  2299 ;;		line 54 in file "UART.c"
  2300 ;; Parameters:    Size  Location     Type
  2301 ;;  transmit        1    wreg     unsigned char 
  2302 ;; Auto vars:     Size  Location     Type
  2303 ;;  transmit        1    3[COMMON] unsigned char 
  2304 ;; Return value:  Size  Location     Type
  2305 ;;                  1    wreg      void 
  2306 ;; Registers used:
  2307 ;;		wreg
  2308 ;; Tracked objects:
  2309 ;;		On entry : 0/0
  2310 ;;		On exit  : 0/0
  2311 ;;		Unchanged: 0/0
  2312 ;; Data sizes:     COMMON   BANK0   BANK1   BANK3   BANK2
  2313 ;;      Params:         0       0       0       0       0
  2314 ;;      Locals:         1       0       0       0       0
  2315 ;;      Temps:          0       0       0       0       0
  2316 ;;      Totals:         1       0       0       0       0
  2317 ;;Total ram usage:        1 bytes
  2318 ;; Hardware stack levels used:    1
  2319 ;; Hardware stack levels required when called:    1
  2320 ;; This function calls:
  2321 ;;		Nothing
  2322 ;; This function is called by:
  2323 ;;		_uart_sendString
  2324 ;; This function uses a non-reentrant model
  2325 ;;
  2326                           
  2327                           
  2328                           ;psect for function _uart_transmit
  2329  0992                     _uart_transmit:	
  2330                           
  2331                           ;incstack = 0
  2332                           ; Regs used in _uart_transmit: [wreg]
  2333                           ;uart_transmit@transmit stored from wreg
  2334  0992  00F3               	movwf	uart_transmit@transmit
  2335  0993                     l1754:	
  2336  0993                     l244:	
  2337                           ;UART.c: 55:     while(!TXSTAbits.TRMT);
  2338                           
  2339  0993  1683               	bsf	3,5	;RP0=1, select bank1
  2340  0994  1303               	bcf	3,6	;RP1=0, select bank1
  2341  0995  1C98               	btfss	24,1	;volatile
  2342  0996  2998               	goto	u1461
  2343  0997  2999               	goto	u1460
  2344  0998                     u1461:	
  2345  0998  2993               	goto	l244
  2346  0999                     u1460:	
  2347  0999                     l1756:	
  2348                           
  2349                           ;UART.c: 56:     TXREG = transmit;
  2350  0999  0873               	movf	uart_transmit@transmit,w
  2351  099A  1283               	bcf	3,5	;RP0=0, select bank0
  2352  099B  1303               	bcf	3,6	;RP1=0, select bank0
  2353  099C  0099               	movwf	25	;volatile
  2354  099D                     l247:	
  2355  099D  0008               	return
  2356  099E                     __end_of_uart_transmit:	
  2357                           
  2358                           	psect	text3
  2359  0A2E                     __ptext3:	
  2360 ;; *************** function _uart_interrupts *****************
  2361 ;; Defined at:
  2362 ;;		line 47 in file "UART.c"
  2363 ;; Parameters:    Size  Location     Type
  2364 ;;  rx_int          1    wreg     unsigned char 
  2365 ;;  tx_int          1    3[COMMON] unsigned char 
  2366 ;; Auto vars:     Size  Location     Type
  2367 ;;  rx_int          1    4[COMMON] unsigned char 
  2368 ;; Return value:  Size  Location     Type
  2369 ;;                  1    wreg      void 
  2370 ;; Registers used:
  2371 ;;		wreg, status,0
  2372 ;; Tracked objects:
  2373 ;;		On entry : 0/0
  2374 ;;		On exit  : 0/0
  2375 ;;		Unchanged: 0/0
  2376 ;; Data sizes:     COMMON   BANK0   BANK1   BANK3   BANK2
  2377 ;;      Params:         1       0       0       0       0
  2378 ;;      Locals:         1       0       0       0       0
  2379 ;;      Temps:          0       0       0       0       0
  2380 ;;      Totals:         2       0       0       0       0
  2381 ;;Total ram usage:        2 bytes
  2382 ;; Hardware stack levels used:    1
  2383 ;; Hardware stack levels required when called:    1
  2384 ;; This function calls:
  2385 ;;		Nothing
  2386 ;; This function is called by:
  2387 ;;		_main
  2388 ;; This function uses a non-reentrant model
  2389 ;;
  2390                           
  2391                           
  2392                           ;psect for function _uart_interrupts
  2393  0A2E                     _uart_interrupts:	
  2394                           
  2395                           ;incstack = 0
  2396                           ; Regs used in _uart_interrupts: [wreg+status,0]
  2397                           ;uart_interrupts@rx_int stored from wreg
  2398  0A2E  00F4               	movwf	uart_interrupts@rx_int
  2399  0A2F                     l1860:	
  2400                           
  2401                           ;UART.c: 48:     PIE1bits.RCIE = rx_int;
  2402  0A2F  0C74               	rrf	uart_interrupts@rx_int,w
  2403  0A30  1683               	bsf	3,5	;RP0=1, select bank1
  2404  0A31  1303               	bcf	3,6	;RP1=0, select bank1
  2405  0A32  1C03               	skipc
  2406  0A33  128C               	bcf	12,5	;volatile
  2407  0A34  1803               	skipnc
  2408  0A35  168C               	bsf	12,5	;volatile
  2409  0A36                     l1862:	
  2410                           
  2411                           ;UART.c: 49:     PIR1bits.RCIF = 0;
  2412  0A36  1283               	bcf	3,5	;RP0=0, select bank0
  2413  0A37  1303               	bcf	3,6	;RP1=0, select bank0
  2414  0A38  128C               	bcf	12,5	;volatile
  2415                           
  2416                           ;UART.c: 50:     PIE1bits.TXIE = tx_int;
  2417  0A39  0C73               	rrf	uart_interrupts@tx_int,w
  2418  0A3A  1683               	bsf	3,5	;RP0=1, select bank1
  2419  0A3B  1303               	bcf	3,6	;RP1=0, select bank1
  2420  0A3C  1C03               	skipc
  2421  0A3D  120C               	bcf	12,4	;volatile
  2422  0A3E  1803               	skipnc
  2423  0A3F  160C               	bsf	12,4	;volatile
  2424  0A40                     l1864:	
  2425                           
  2426                           ;UART.c: 51:     PIR1bits.TXIF = 0;
  2427  0A40  1283               	bcf	3,5	;RP0=0, select bank0
  2428  0A41  1303               	bcf	3,6	;RP1=0, select bank0
  2429  0A42  120C               	bcf	12,4	;volatile
  2430  0A43                     l241:	
  2431  0A43  0008               	return
  2432  0A44                     __end_of_uart_interrupts:	
  2433                           
  2434                           	psect	text4
  2435  09F2                     __ptext4:	
  2436 ;; *************** function _uart_init *****************
  2437 ;; Defined at:
  2438 ;;		line 14 in file "UART.c"
  2439 ;; Parameters:    Size  Location     Type
  2440 ;;		None
  2441 ;; Auto vars:     Size  Location     Type
  2442 ;;		None
  2443 ;; Return value:  Size  Location     Type
  2444 ;;                  1    wreg      void 
  2445 ;; Registers used:
  2446 ;;		None
  2447 ;; Tracked objects:
  2448 ;;		On entry : 0/0
  2449 ;;		On exit  : 0/0
  2450 ;;		Unchanged: 0/0
  2451 ;; Data sizes:     COMMON   BANK0   BANK1   BANK3   BANK2
  2452 ;;      Params:         0       0       0       0       0
  2453 ;;      Locals:         0       0       0       0       0
  2454 ;;      Temps:          0       0       0       0       0
  2455 ;;      Totals:         0       0       0       0       0
  2456 ;;Total ram usage:        0 bytes
  2457 ;; Hardware stack levels used:    1
  2458 ;; Hardware stack levels required when called:    1
  2459 ;; This function calls:
  2460 ;;		Nothing
  2461 ;; This function is called by:
  2462 ;;		_main
  2463 ;; This function uses a non-reentrant model
  2464 ;;
  2465                           
  2466                           
  2467                           ;psect for function _uart_init
  2468  09F2                     _uart_init:	
  2469  09F2                     l1850:	
  2470                           ;incstack = 0
  2471                           ; Regs used in _uart_init: []
  2472                           
  2473                           
  2474                           ;UART.c: 15:     TRISCbits.TRISC6 = 1;
  2475  09F2  1683               	bsf	3,5	;RP0=1, select bank1
  2476  09F3  1303               	bcf	3,6	;RP1=0, select bank1
  2477  09F4  1707               	bsf	7,6	;volatile
  2478                           
  2479                           ;UART.c: 16:     TRISCbits.TRISC7 = 1;
  2480  09F5  1787               	bsf	7,7	;volatile
  2481                           
  2482                           ;UART.c: 18:     TXSTAbits.SYNC = 0;
  2483  09F6  1218               	bcf	24,4	;volatile
  2484                           
  2485                           ;UART.c: 19:     TXSTAbits.TRMT = 0;
  2486  09F7  1098               	bcf	24,1	;volatile
  2487                           
  2488                           ;UART.c: 21:     RCSTAbits.SPEN = 1;
  2489  09F8  1283               	bcf	3,5	;RP0=0, select bank0
  2490  09F9  1303               	bcf	3,6	;RP1=0, select bank0
  2491  09FA  1798               	bsf	24,7	;volatile
  2492                           
  2493                           ;UART.c: 22:     RCSTAbits.FERR = 0;
  2494  09FB  1118               	bcf	24,2	;volatile
  2495                           
  2496                           ;UART.c: 23:     RCSTAbits.OERR = 0;
  2497  09FC  1098               	bcf	24,1	;volatile
  2498                           
  2499                           ;UART.c: 25:     BAUDCTLbits.ABDOVF = 0;
  2500  09FD  1683               	bsf	3,5	;RP0=1, select bank3
  2501  09FE  1703               	bsf	3,6	;RP1=1, select bank3
  2502  09FF  1387               	bcf	7,7	;volatile
  2503                           
  2504                           ;UART.c: 26:     BAUDCTLbits.SCKP = 0;
  2505  0A00  1207               	bcf	7,4	;volatile
  2506                           
  2507                           ;UART.c: 27:     BAUDCTLbits.WUE = 0;
  2508  0A01  1087               	bcf	7,1	;volatile
  2509                           
  2510                           ;UART.c: 28:     BAUDCTLbits.ABDEN = 0;
  2511  0A02  1007               	bcf	7,0	;volatile
  2512  0A03                     l229:	
  2513  0A03  0008               	return
  2514  0A04                     __end_of_uart_init:	
  2515                           
  2516                           	psect	text5
  2517  09BE                     __ptext5:	
  2518 ;; *************** function _uart_9bit *****************
  2519 ;; Defined at:
  2520 ;;		line 31 in file "UART.c"
  2521 ;; Parameters:    Size  Location     Type
  2522 ;;  rx9             1    wreg     unsigned char 
  2523 ;;  tx9             1    3[COMMON] unsigned char 
  2524 ;; Auto vars:     Size  Location     Type
  2525 ;;  rx9             1    4[COMMON] unsigned char 
  2526 ;; Return value:  Size  Location     Type
  2527 ;;                  1    wreg      void 
  2528 ;; Registers used:
  2529 ;;		wreg, status,0
  2530 ;; Tracked objects:
  2531 ;;		On entry : 0/0
  2532 ;;		On exit  : 0/0
  2533 ;;		Unchanged: 0/0
  2534 ;; Data sizes:     COMMON   BANK0   BANK1   BANK3   BANK2
  2535 ;;      Params:         1       0       0       0       0
  2536 ;;      Locals:         1       0       0       0       0
  2537 ;;      Temps:          0       0       0       0       0
  2538 ;;      Totals:         2       0       0       0       0
  2539 ;;Total ram usage:        2 bytes
  2540 ;; Hardware stack levels used:    1
  2541 ;; Hardware stack levels required when called:    1
  2542 ;; This function calls:
  2543 ;;		Nothing
  2544 ;; This function is called by:
  2545 ;;		_main
  2546 ;; This function uses a non-reentrant model
  2547 ;;
  2548                           
  2549                           
  2550                           ;psect for function _uart_9bit
  2551  09BE                     _uart_9bit:	
  2552                           
  2553                           ;incstack = 0
  2554                           ; Regs used in _uart_9bit: [wreg+status,0]
  2555                           ;uart_9bit@rx9 stored from wreg
  2556  09BE  00F4               	movwf	uart_9bit@rx9
  2557  09BF                     l1852:	
  2558                           
  2559                           ;UART.c: 32:     TXSTAbits.TX9 = tx9;
  2560  09BF  0C73               	rrf	uart_9bit@tx9,w
  2561  09C0  1683               	bsf	3,5	;RP0=1, select bank1
  2562  09C1  1303               	bcf	3,6	;RP1=0, select bank1
  2563  09C2  1C03               	skipc
  2564  09C3  1318               	bcf	24,6	;volatile
  2565  09C4  1803               	skipnc
  2566  09C5  1718               	bsf	24,6	;volatile
  2567                           
  2568                           ;UART.c: 33:     RCSTAbits.RX9 = rx9;
  2569  09C6  0C74               	rrf	uart_9bit@rx9,w
  2570  09C7  1283               	bcf	3,5	;RP0=0, select bank0
  2571  09C8  1303               	bcf	3,6	;RP1=0, select bank0
  2572  09C9  1C03               	skipc
  2573  09CA  1318               	bcf	24,6	;volatile
  2574  09CB  1803               	skipnc
  2575  09CC  1718               	bsf	24,6	;volatile
  2576  09CD                     l232:	
  2577  09CD  0008               	return
  2578  09CE                     __end_of_uart_9bit:	
  2579                           
  2580                           	psect	text6
  2581  09AE                     __ptext6:	
  2582 ;; *************** function _txrx_en *****************
  2583 ;; Defined at:
  2584 ;;		line 36 in file "UART.c"
  2585 ;; Parameters:    Size  Location     Type
  2586 ;;  tx              1    wreg     unsigned char 
  2587 ;;  rx              1    3[COMMON] unsigned char 
  2588 ;; Auto vars:     Size  Location     Type
  2589 ;;  tx              1    4[COMMON] unsigned char 
  2590 ;; Return value:  Size  Location     Type
  2591 ;;                  1    wreg      void 
  2592 ;; Registers used:
  2593 ;;		wreg, status,0
  2594 ;; Tracked objects:
  2595 ;;		On entry : 0/0
  2596 ;;		On exit  : 0/0
  2597 ;;		Unchanged: 0/0
  2598 ;; Data sizes:     COMMON   BANK0   BANK1   BANK3   BANK2
  2599 ;;      Params:         1       0       0       0       0
  2600 ;;      Locals:         1       0       0       0       0
  2601 ;;      Temps:          0       0       0       0       0
  2602 ;;      Totals:         2       0       0       0       0
  2603 ;;Total ram usage:        2 bytes
  2604 ;; Hardware stack levels used:    1
  2605 ;; Hardware stack levels required when called:    1
  2606 ;; This function calls:
  2607 ;;		Nothing
  2608 ;; This function is called by:
  2609 ;;		_main
  2610 ;; This function uses a non-reentrant model
  2611 ;;
  2612                           
  2613                           
  2614                           ;psect for function _txrx_en
  2615  09AE                     _txrx_en:	
  2616                           
  2617                           ;incstack = 0
  2618                           ; Regs used in _txrx_en: [wreg+status,0]
  2619                           ;txrx_en@tx stored from wreg
  2620  09AE  00F4               	movwf	txrx_en@tx
  2621  09AF                     l1854:	
  2622                           
  2623                           ;UART.c: 37:     TXSTAbits.TXEN = tx;
  2624  09AF  0C74               	rrf	txrx_en@tx,w
  2625  09B0  1683               	bsf	3,5	;RP0=1, select bank1
  2626  09B1  1303               	bcf	3,6	;RP1=0, select bank1
  2627  09B2  1C03               	skipc
  2628  09B3  1298               	bcf	24,5	;volatile
  2629  09B4  1803               	skipnc
  2630  09B5  1698               	bsf	24,5	;volatile
  2631                           
  2632                           ;UART.c: 38:     RCSTAbits.CREN = rx;
  2633  09B6  0C73               	rrf	txrx_en@rx,w
  2634  09B7  1283               	bcf	3,5	;RP0=0, select bank0
  2635  09B8  1303               	bcf	3,6	;RP1=0, select bank0
  2636  09B9  1C03               	skipc
  2637  09BA  1218               	bcf	24,4	;volatile
  2638  09BB  1803               	skipnc
  2639  09BC  1618               	bsf	24,4	;volatile
  2640  09BD                     l235:	
  2641  09BD  0008               	return
  2642  09BE                     __end_of_txrx_en:	
  2643                           
  2644                           	psect	text7
  2645  0707                     __ptext7:	
  2646 ;; *************** function _sprintf *****************
  2647 ;; Defined at:
  2648 ;;		line 505 in file "C:\Program Files (x86)\Microchip\xc8\v2.10\pic\sources\c90\common\doprnt.c"
  2649 ;; Parameters:    Size  Location     Type
  2650 ;;  sp              1    wreg     PTR unsigned char 
  2651 ;;		 -> buffer(12), 
  2652 ;;  f               1    8[BANK0 ] PTR const unsigned char 
  2653 ;;		 -> STR_7(11), STR_6(13), STR_5(13), STR_4(14), 
  2654 ;;		 -> STR_3(13), STR_2(12), STR_1(12), 
  2655 ;; Auto vars:     Size  Location     Type
  2656 ;;  sp              1   19[BANK0 ] PTR unsigned char 
  2657 ;;		 -> buffer(12), 
  2658 ;;  tmpval          4    0        struct .
  2659 ;;  val             2   17[BANK0 ] unsigned int 
  2660 ;;  cp              2    0        PTR const unsigned char 
  2661 ;;  len             2    0        unsigned int 
  2662 ;;  c               1   20[BANK0 ] unsigned char 
  2663 ;;  prec            1   16[BANK0 ] char 
  2664 ;;  flag            1   15[BANK0 ] unsigned char 
  2665 ;;  ap              1   14[BANK0 ] PTR void [1]
  2666 ;;		 -> ?_sprintf(2), 
  2667 ;; Return value:  Size  Location     Type
  2668 ;;                  2    8[BANK0 ] int 
  2669 ;; Registers used:
  2670 ;;		wreg, fsr0l, fsr0h, status,2, status,0, btemp+1, pclath, cstack
  2671 ;; Tracked objects:
  2672 ;;		On entry : 0/0
  2673 ;;		On exit  : 0/0
  2674 ;;		Unchanged: 0/0
  2675 ;; Data sizes:     COMMON   BANK0   BANK1   BANK3   BANK2
  2676 ;;      Params:         0       3       0       0       0
  2677 ;;      Locals:         0       7       0       0       0
  2678 ;;      Temps:          0       3       0       0       0
  2679 ;;      Totals:         0      13       0       0       0
  2680 ;;Total ram usage:       13 bytes
  2681 ;; Hardware stack levels used:    1
  2682 ;; Hardware stack levels required when called:    2
  2683 ;; This function calls:
  2684 ;;		___lwdiv
  2685 ;;		___lwmod
  2686 ;; This function is called by:
  2687 ;;		_main
  2688 ;; This function uses a non-reentrant model
  2689 ;;
  2690                           
  2691                           
  2692                           ;psect for function _sprintf
  2693  0707                     _sprintf:	
  2694                           
  2695                           ;incstack = 0
  2696                           ; Regs used in _sprintf: [wreg-fsr0h+status,2+status,0+btemp+1+pclath+cstack]
  2697                           ;sprintf@sp stored from wreg
  2698  0707  1283               	bcf	3,5	;RP0=0, select bank0
  2699  0708  1303               	bcf	3,6	;RP1=0, select bank0
  2700  0709  00B3               	movwf	sprintf@sp
  2701  070A                     l2692:	
  2702                           
  2703                           ;C:\Program Files (x86)\Microchip\xc8\v2.10\pic\sources\c90\common\doprnt.c: 505: sprint
      +                          f(char * sp, const char * f, ...);C:\Program Files (x86)\Microchip\xc8\v2.10\pic\sources
      +                          \c90\common\doprnt.c: 506: {;C:\Program Files (x86)\Microchip\xc8\v2.10\pic\sources\c90\
      +                          common\doprnt.c: 507:  va_list ap;;C:\Program Files (x86)\Microchip\xc8\v2.10\pic\source
      +                          s\c90\common\doprnt.c: 512:  char c;;C:\Program Files (x86)\Microchip\xc8\v2.10\pic\sour
      +                          ces\c90\common\doprnt.c: 521:  signed char prec;;C:\Program Files (x86)\Microchip\xc8\v2
      +                          .10\pic\sources\c90\common\doprnt.c: 525:  unsigned char flag;
  2704  070A  3029               	movlw	(low ((?_sprintf| 0+1)))& (0+255)
  2705  070B  00AB               	movwf	??_sprintf
  2706  070C  082B               	movf	??_sprintf,w
  2707  070D  00AE               	movwf	sprintf@ap
  2708                           
  2709                           ;C:\Program Files (x86)\Microchip\xc8\v2.10\pic\sources\c90\common\doprnt.c: 553:  while
      +                          ((c = *f++)) {
  2710  070E  2FDA               	goto	l2744
  2711  070F                     l2694:	
  2712                           
  2713                           ;C:\Program Files (x86)\Microchip\xc8\v2.10\pic\sources\c90\common\doprnt.c: 555:   if(c
      +                           != '%')
  2714  070F  3025               	movlw	37
  2715  0710  0634               	xorwf	sprintf@c,w
  2716  0711  1903               	btfsc	3,2
  2717  0712  2F14               	goto	u3021
  2718  0713  2F15               	goto	u3020
  2719  0714                     u3021:	
  2720  0714  2F21               	goto	l2700
  2721  0715                     u3020:	
  2722  0715                     l2696:	
  2723                           
  2724                           ;C:\Program Files (x86)\Microchip\xc8\v2.10\pic\sources\c90\common\doprnt.c: 557:   {;C:
      +                          \Program Files (x86)\Microchip\xc8\v2.10\pic\sources\c90\common\doprnt.c: 558:    ((*sp+
      +                          + = (c)));
  2725  0715  0834               	movf	sprintf@c,w
  2726  0716  00AB               	movwf	??_sprintf
  2727  0717  0833               	movf	sprintf@sp,w
  2728  0718  0084               	movwf	4
  2729  0719  082B               	movf	??_sprintf,w
  2730  071A  1383               	bcf	3,7	;select IRP bank0
  2731  071B  0080               	movwf	0
  2732  071C                     l2698:	
  2733  071C  3001               	movlw	1
  2734  071D  00AB               	movwf	??_sprintf
  2735  071E  082B               	movf	??_sprintf,w
  2736  071F  07B3               	addwf	sprintf@sp,f
  2737                           
  2738                           ;C:\Program Files (x86)\Microchip\xc8\v2.10\pic\sources\c90\common\doprnt.c: 559:    con
      +                          tinue;
  2739  0720  2FDA               	goto	l2744
  2740  0721                     l2700:	
  2741                           
  2742                           ;C:\Program Files (x86)\Microchip\xc8\v2.10\pic\sources\c90\common\doprnt.c: 565:   flag
      +                           = 0;
  2743  0721  01AF               	clrf	sprintf@flag
  2744  0722                     l2704:	
  2745                           ;C:\Program Files (x86)\Microchip\xc8\v2.10\pic\sources\c90\common\doprnt.c: 661:   swit
      +                          ch(c = *f++) {
  2746                           
  2747  0722  3001               	movlw	1
  2748  0723  07A8               	addwf	sprintf@f,f
  2749  0724  30FF               	movlw	-1
  2750  0725  0728               	addwf	sprintf@f,w
  2751  0726  0084               	movwf	4
  2752  0727  120A  158A  2000  120A  118A  	fcall	stringdir
  2753  072C  00B4               	movwf	sprintf@c
  2754  072D  00AB               	movwf	??_sprintf
  2755  072E  01AC               	clrf	??_sprintf+1
  2756                           
  2757                           ; Switch on 2 bytes has been partitioned into a top level switch of size 1, and 1 sub-sw
      +                          itches
  2758                           ; Switch size 1, requested type "simple"
  2759                           ; Number of cases is 1, Range of values is 0 to 0
  2760                           ; switch strategies available:
  2761                           ; Name         Instructions Cycles
  2762                           ; simple_byte            4     3 (average)
  2763                           ; direct_byte           11     8 (fixed)
  2764                           ; jumptable            260     6 (fixed)
  2765                           ;	Chosen strategy is simple_byte
  2766  072F  082C               	movf	??_sprintf+1,w
  2767  0730  3A00               	xorlw	0	; case 0
  2768  0731  1903               	skipnz
  2769  0732  2F34               	goto	l2954
  2770  0733  2FDA               	goto	l2744
  2771  0734                     l2954:	
  2772                           
  2773                           ; Switch size 1, requested type "simple"
  2774                           ; Number of cases is 3, Range of values is 0 to 105
  2775                           ; switch strategies available:
  2776                           ; Name         Instructions Cycles
  2777                           ; simple_byte           10     6 (average)
  2778                           ; jumptable            260     6 (fixed)
  2779                           ;	Chosen strategy is simple_byte
  2780  0734  082B               	movf	??_sprintf,w
  2781  0735  3A00               	xorlw	0	; case 0
  2782  0736  1903               	skipnz
  2783  0737  2FEC               	goto	l2746
  2784  0738  3A64               	xorlw	100	; case 100
  2785  0739  1903               	skipnz
  2786  073A  2F3F               	goto	l2706
  2787  073B  3A0D               	xorlw	13	; case 105
  2788  073C  1903               	skipnz
  2789  073D  2F3F               	goto	l2706
  2790  073E  2FDA               	goto	l2744
  2791  073F                     l2706:	
  2792                           
  2793                           ;C:\Program Files (x86)\Microchip\xc8\v2.10\pic\sources\c90\common\doprnt.c: 1279:   {;C
      +                          :\Program Files (x86)\Microchip\xc8\v2.10\pic\sources\c90\common\doprnt.c: 1285:     val
      +                           = (unsigned int)(*(int *)__va_arg((*(int **)ap), (int)0));
  2794  073F  082E               	movf	sprintf@ap,w
  2795  0740  0084               	movwf	4
  2796  0741  1383               	bcf	3,7	;select IRP bank0
  2797  0742  0800               	movf	0,w
  2798  0743  00B1               	movwf	sprintf@val
  2799  0744  0A84               	incf	4,f
  2800  0745  0800               	movf	0,w
  2801  0746  00B2               	movwf	sprintf@val+1
  2802  0747                     l2708:	
  2803  0747  3002               	movlw	2
  2804  0748  00AB               	movwf	??_sprintf
  2805  0749  082B               	movf	??_sprintf,w
  2806  074A  07AE               	addwf	sprintf@ap,f
  2807  074B                     l2710:	
  2808                           
  2809                           ;C:\Program Files (x86)\Microchip\xc8\v2.10\pic\sources\c90\common\doprnt.c: 1287:    if
      +                          ((int)val < 0) {
  2810  074B  1FB2               	btfss	sprintf@val+1,7
  2811  074C  2F4E               	goto	u3031
  2812  074D  2F4F               	goto	u3030
  2813  074E                     u3031:	
  2814  074E  2F58               	goto	l2716
  2815  074F                     u3030:	
  2816  074F                     l2712:	
  2817                           
  2818                           ;C:\Program Files (x86)\Microchip\xc8\v2.10\pic\sources\c90\common\doprnt.c: 1288:     f
      +                          lag |= 0x03;
  2819  074F  3003               	movlw	3
  2820  0750  00AB               	movwf	??_sprintf
  2821  0751  082B               	movf	??_sprintf,w
  2822  0752  04AF               	iorwf	sprintf@flag,f
  2823  0753                     l2714:	
  2824                           
  2825                           ;C:\Program Files (x86)\Microchip\xc8\v2.10\pic\sources\c90\common\doprnt.c: 1289:     v
      +                          al = -val;
  2826  0753  09B1               	comf	sprintf@val,f
  2827  0754  09B2               	comf	sprintf@val+1,f
  2828  0755  0AB1               	incf	sprintf@val,f
  2829  0756  1903               	skipnz
  2830  0757  0AB2               	incf	sprintf@val+1,f
  2831  0758                     l2716:	
  2832                           
  2833                           ;C:\Program Files (x86)\Microchip\xc8\v2.10\pic\sources\c90\common\doprnt.c: 1292:   };C
      +                          :\Program Files (x86)\Microchip\xc8\v2.10\pic\sources\c90\common\doprnt.c: 1331:    for(
      +                          c = 1 ; c != sizeof dpowers/sizeof dpowers[0] ; c++)
  2834  0758  01B4               	clrf	sprintf@c
  2835  0759  0AB4               	incf	sprintf@c,f
  2836  075A                     l2722:	
  2837                           
  2838                           ;C:\Program Files (x86)\Microchip\xc8\v2.10\pic\sources\c90\common\doprnt.c: 1332:     i
      +                          f(val < dpowers[c])
  2839  075A  0834               	movf	sprintf@c,w
  2840  075B  00AB               	movwf	??_sprintf
  2841  075C  072B               	addwf	??_sprintf,w
  2842  075D  3E01               	addlw	low ((_dpowers-__stringbase)| (0+32768))
  2843  075E  0084               	movwf	4
  2844  075F  120A  158A  2000  120A  118A  	fcall	stringdir
  2845  0764  00AC               	movwf	??_sprintf+1
  2846  0765  120A  158A  2000  120A  118A  	fcall	stringdir
  2847  076A  00AD               	movwf	??_sprintf+2
  2848  076B  082D               	movf	??_sprintf+2,w
  2849  076C  0232               	subwf	sprintf@val+1,w
  2850  076D  1D03               	skipz
  2851  076E  2F71               	goto	u3045
  2852  076F  082C               	movf	??_sprintf+1,w
  2853  0770  0231               	subwf	sprintf@val,w
  2854  0771                     u3045:	
  2855  0771  1803               	skipnc
  2856  0772  2F74               	goto	u3041
  2857  0773  2F75               	goto	u3040
  2858  0774                     u3041:	
  2859  0774  2F76               	goto	l2726
  2860  0775                     u3040:	
  2861  0775  2F80               	goto	l2728
  2862  0776                     l2726:	
  2863  0776  3001               	movlw	1
  2864  0777  00AB               	movwf	??_sprintf
  2865  0778  082B               	movf	??_sprintf,w
  2866  0779  07B4               	addwf	sprintf@c,f
  2867  077A  3005               	movlw	5
  2868  077B  0634               	xorwf	sprintf@c,w
  2869  077C  1D03               	btfss	3,2
  2870  077D  2F7F               	goto	u3051
  2871  077E  2F80               	goto	u3050
  2872  077F                     u3051:	
  2873  077F  2F5A               	goto	l2722
  2874  0780                     u3050:	
  2875  0780                     l2728:	
  2876                           
  2877                           ;C:\Program Files (x86)\Microchip\xc8\v2.10\pic\sources\c90\common\doprnt.c: 1448:   {;C
      +                          :\Program Files (x86)\Microchip\xc8\v2.10\pic\sources\c90\common\doprnt.c: 1464:    if(f
      +                          lag & 0x03)
  2878  0780  082F               	movf	sprintf@flag,w
  2879  0781  3903               	andlw	3
  2880  0782  1903               	btfsc	3,2
  2881  0783  2F85               	goto	u3061
  2882  0784  2F86               	goto	u3060
  2883  0785                     u3061:	
  2884  0785  2F91               	goto	l2734
  2885  0786                     u3060:	
  2886  0786                     l2730:	
  2887                           
  2888                           ;C:\Program Files (x86)\Microchip\xc8\v2.10\pic\sources\c90\common\doprnt.c: 1465:     (
      +                          (*sp++ = ('-')));
  2889  0786  302D               	movlw	45
  2890  0787  00AB               	movwf	??_sprintf
  2891  0788  0833               	movf	sprintf@sp,w
  2892  0789  0084               	movwf	4
  2893  078A  082B               	movf	??_sprintf,w
  2894  078B  1383               	bcf	3,7	;select IRP bank0
  2895  078C  0080               	movwf	0
  2896  078D                     l2732:	
  2897  078D  3001               	movlw	1
  2898  078E  00AB               	movwf	??_sprintf
  2899  078F  082B               	movf	??_sprintf,w
  2900  0790  07B3               	addwf	sprintf@sp,f
  2901  0791                     l2734:	
  2902                           
  2903                           ;C:\Program Files (x86)\Microchip\xc8\v2.10\pic\sources\c90\common\doprnt.c: 1495:   };C
      +                          :\Program Files (x86)\Microchip\xc8\v2.10\pic\sources\c90\common\doprnt.c: 1498:   prec 
      +                          = c;
  2904  0791  0834               	movf	sprintf@c,w
  2905  0792  00AB               	movwf	??_sprintf
  2906  0793  082B               	movf	??_sprintf,w
  2907  0794  00B0               	movwf	sprintf@prec
  2908                           
  2909                           ;C:\Program Files (x86)\Microchip\xc8\v2.10\pic\sources\c90\common\doprnt.c: 1500:   whi
      +                          le(prec--) {
  2910  0795  2FD1               	goto	l2742
  2911  0796                     l2736:	
  2912                           
  2913                           ;C:\Program Files (x86)\Microchip\xc8\v2.10\pic\sources\c90\common\doprnt.c: 1504:    {;
      +                          C:\Program Files (x86)\Microchip\xc8\v2.10\pic\sources\c90\common\doprnt.c: 1515:     c 
      +                          = (val / dpowers[(unsigned char)prec]) % 10 + '0';
  2914  0796  300A               	movlw	10
  2915  0797  00A3               	movwf	___lwmod@divisor
  2916  0798  3000               	movlw	0
  2917  0799  00A4               	movwf	___lwmod@divisor+1
  2918  079A  0830               	movf	sprintf@prec,w
  2919  079B  00AB               	movwf	??_sprintf
  2920  079C  072B               	addwf	??_sprintf,w
  2921  079D  3E01               	addlw	low ((_dpowers-__stringbase)| (0+32768))
  2922  079E  0084               	movwf	4
  2923  079F  120A  158A  2000  120A  118A  	fcall	stringdir
  2924  07A4  00F3               	movwf	___lwdiv@divisor
  2925  07A5  120A  158A  2000  120A  118A  	fcall	stringdir
  2926  07AA  00F4               	movwf	___lwdiv@divisor+1
  2927  07AB  0832               	movf	sprintf@val+1,w
  2928  07AC  00F6               	movwf	___lwdiv@dividend+1
  2929  07AD  0831               	movf	sprintf@val,w
  2930  07AE  00F5               	movwf	___lwdiv@dividend
  2931  07AF  120A  158A  2312  120A  118A  	fcall	___lwdiv
  2932  07B4  0874               	movf	?___lwdiv+1,w
  2933  07B5  1283               	bcf	3,5	;RP0=0, select bank0
  2934  07B6  1303               	bcf	3,6	;RP1=0, select bank0
  2935  07B7  00A6               	movwf	___lwmod@dividend+1
  2936  07B8  0873               	movf	?___lwdiv,w
  2937  07B9  00A5               	movwf	___lwmod@dividend
  2938  07BA  120A  158A  22D6  120A  118A  	fcall	___lwmod
  2939  07BF  1283               	bcf	3,5	;RP0=0, select bank0
  2940  07C0  1303               	bcf	3,6	;RP1=0, select bank0
  2941  07C1  0823               	movf	?___lwmod,w
  2942  07C2  3E30               	addlw	48
  2943  07C3  00AC               	movwf	??_sprintf+1
  2944  07C4  082C               	movf	??_sprintf+1,w
  2945  07C5  00B4               	movwf	sprintf@c
  2946  07C6                     l2738:	
  2947                           
  2948                           ;C:\Program Files (x86)\Microchip\xc8\v2.10\pic\sources\c90\common\doprnt.c: 1549:    };
      +                          C:\Program Files (x86)\Microchip\xc8\v2.10\pic\sources\c90\common\doprnt.c: 1550:    ((*
      +                          sp++ = (c)));
  2949  07C6  0834               	movf	sprintf@c,w
  2950  07C7  00AB               	movwf	??_sprintf
  2951  07C8  0833               	movf	sprintf@sp,w
  2952  07C9  0084               	movwf	4
  2953  07CA  082B               	movf	??_sprintf,w
  2954  07CB  1383               	bcf	3,7	;select IRP bank0
  2955  07CC  0080               	movwf	0
  2956  07CD                     l2740:	
  2957  07CD  3001               	movlw	1
  2958  07CE  00AB               	movwf	??_sprintf
  2959  07CF  082B               	movf	??_sprintf,w
  2960  07D0  07B3               	addwf	sprintf@sp,f
  2961  07D1                     l2742:	
  2962                           
  2963                           ;C:\Program Files (x86)\Microchip\xc8\v2.10\pic\sources\c90\common\doprnt.c: 1500:   whi
      +                          le(prec--) {
  2964  07D1  30FF               	movlw	255
  2965  07D2  00AB               	movwf	??_sprintf
  2966  07D3  082B               	movf	??_sprintf,w
  2967  07D4  07B0               	addwf	sprintf@prec,f
  2968  07D5  0A30               	incf	sprintf@prec,w
  2969  07D6  1D03               	btfss	3,2
  2970  07D7  2FD9               	goto	u3071
  2971  07D8  2FDA               	goto	u3070
  2972  07D9                     u3071:	
  2973  07D9  2F96               	goto	l2736
  2974  07DA                     u3070:	
  2975  07DA                     l2744:	
  2976                           
  2977                           ;C:\Program Files (x86)\Microchip\xc8\v2.10\pic\sources\c90\common\doprnt.c: 553:  while
      +                          ((c = *f++)) {
  2978  07DA  3001               	movlw	1
  2979  07DB  07A8               	addwf	sprintf@f,f
  2980  07DC  30FF               	movlw	-1
  2981  07DD  0728               	addwf	sprintf@f,w
  2982  07DE  0084               	movwf	4
  2983  07DF  120A  158A  2000  120A  118A  	fcall	stringdir
  2984  07E4  00AB               	movwf	??_sprintf
  2985  07E5  082B               	movf	??_sprintf,w
  2986  07E6  00B4               	movwf	sprintf@c
  2987  07E7  0834               	movf	sprintf@c,w
  2988  07E8  1D03               	btfss	3,2
  2989  07E9  2FEB               	goto	u3081
  2990  07EA  2FEC               	goto	u3080
  2991  07EB                     u3081:	
  2992  07EB  2F0F               	goto	l2694
  2993  07EC                     u3080:	
  2994  07EC                     l2746:	
  2995                           
  2996                           ;C:\Program Files (x86)\Microchip\xc8\v2.10\pic\sources\c90\common\doprnt.c: 1564:  *sp 
      +                          = 0;
  2997  07EC  0833               	movf	sprintf@sp,w
  2998  07ED  0084               	movwf	4
  2999  07EE  1383               	bcf	3,7	;select IRP bank0
  3000  07EF  0180               	clrf	0
  3001  07F0                     l372:	
  3002  07F0  0008               	return
  3003  07F1                     __end_of_sprintf:	
  3004                           
  3005                           	psect	text8
  3006  0AD6                     __ptext8:	
  3007 ;; *************** function ___lwmod *****************
  3008 ;; Defined at:
  3009 ;;		line 5 in file "C:\Program Files (x86)\Microchip\xc8\v2.10\pic\sources\c90\common\lwmod.c"
  3010 ;; Parameters:    Size  Location     Type
  3011 ;;  divisor         2    3[BANK0 ] unsigned int 
  3012 ;;  dividend        2    5[BANK0 ] unsigned int 
  3013 ;; Auto vars:     Size  Location     Type
  3014 ;;  counter         1    7[BANK0 ] unsigned char 
  3015 ;; Return value:  Size  Location     Type
  3016 ;;                  2    3[BANK0 ] unsigned int 
  3017 ;; Registers used:
  3018 ;;		wreg, status,2, status,0
  3019 ;; Tracked objects:
  3020 ;;		On entry : 0/0
  3021 ;;		On exit  : 0/0
  3022 ;;		Unchanged: 0/0
  3023 ;; Data sizes:     COMMON   BANK0   BANK1   BANK3   BANK2
  3024 ;;      Params:         0       4       0       0       0
  3025 ;;      Locals:         0       1       0       0       0
  3026 ;;      Temps:          1       0       0       0       0
  3027 ;;      Totals:         1       5       0       0       0
  3028 ;;Total ram usage:        6 bytes
  3029 ;; Hardware stack levels used:    1
  3030 ;; Hardware stack levels required when called:    1
  3031 ;; This function calls:
  3032 ;;		Nothing
  3033 ;; This function is called by:
  3034 ;;		_sprintf
  3035 ;; This function uses a non-reentrant model
  3036 ;;
  3037                           
  3038                           
  3039                           ;psect for function ___lwmod
  3040  0AD6                     ___lwmod:	
  3041  0AD6                     l2608:	
  3042                           ;incstack = 0
  3043                           ; Regs used in ___lwmod: [wreg+status,2+status,0]
  3044                           
  3045  0AD6  1283               	bcf	3,5	;RP0=0, select bank0
  3046  0AD7  1303               	bcf	3,6	;RP1=0, select bank0
  3047  0AD8  0823               	movf	___lwmod@divisor,w
  3048  0AD9  0424               	iorwf	___lwmod@divisor+1,w
  3049  0ADA  1903               	btfsc	3,2
  3050  0ADB  2ADD               	goto	u2951
  3051  0ADC  2ADE               	goto	u2950
  3052  0ADD                     u2951:	
  3053  0ADD  2B0D               	goto	l2626
  3054  0ADE                     u2950:	
  3055  0ADE                     l2610:	
  3056  0ADE  01A7               	clrf	___lwmod@counter
  3057  0ADF  0AA7               	incf	___lwmod@counter,f
  3058  0AE0  2AEC               	goto	l2616
  3059  0AE1                     l2612:	
  3060  0AE1  3001               	movlw	1
  3061  0AE2                     u2965:	
  3062  0AE2  1003               	clrc
  3063  0AE3  0DA3               	rlf	___lwmod@divisor,f
  3064  0AE4  0DA4               	rlf	___lwmod@divisor+1,f
  3065  0AE5  3EFF               	addlw	-1
  3066  0AE6  1D03               	skipz
  3067  0AE7  2AE2               	goto	u2965
  3068  0AE8                     l2614:	
  3069  0AE8  3001               	movlw	1
  3070  0AE9  00F8               	movwf	??___lwmod
  3071  0AEA  0878               	movf	??___lwmod,w
  3072  0AEB  07A7               	addwf	___lwmod@counter,f
  3073  0AEC                     l2616:	
  3074  0AEC  1FA4               	btfss	___lwmod@divisor+1,7
  3075  0AED  2AEF               	goto	u2971
  3076  0AEE  2AF0               	goto	u2970
  3077  0AEF                     u2971:	
  3078  0AEF  2AE1               	goto	l2612
  3079  0AF0                     u2970:	
  3080  0AF0                     l2618:	
  3081  0AF0  0824               	movf	___lwmod@divisor+1,w
  3082  0AF1  0226               	subwf	___lwmod@dividend+1,w
  3083  0AF2  1D03               	skipz
  3084  0AF3  2AF6               	goto	u2985
  3085  0AF4  0823               	movf	___lwmod@divisor,w
  3086  0AF5  0225               	subwf	___lwmod@dividend,w
  3087  0AF6                     u2985:	
  3088  0AF6  1C03               	skipc
  3089  0AF7  2AF9               	goto	u2981
  3090  0AF8  2AFA               	goto	u2980
  3091  0AF9                     u2981:	
  3092  0AF9  2B00               	goto	l2622
  3093  0AFA                     u2980:	
  3094  0AFA                     l2620:	
  3095  0AFA  0823               	movf	___lwmod@divisor,w
  3096  0AFB  02A5               	subwf	___lwmod@dividend,f
  3097  0AFC  0824               	movf	___lwmod@divisor+1,w
  3098  0AFD  1C03               	skipc
  3099  0AFE  03A6               	decf	___lwmod@dividend+1,f
  3100  0AFF  02A6               	subwf	___lwmod@dividend+1,f
  3101  0B00                     l2622:	
  3102  0B00  3001               	movlw	1
  3103  0B01                     u2995:	
  3104  0B01  1003               	clrc
  3105  0B02  0CA4               	rrf	___lwmod@divisor+1,f
  3106  0B03  0CA3               	rrf	___lwmod@divisor,f
  3107  0B04  3EFF               	addlw	-1
  3108  0B05  1D03               	skipz
  3109  0B06  2B01               	goto	u2995
  3110  0B07                     l2624:	
  3111  0B07  3001               	movlw	1
  3112  0B08  02A7               	subwf	___lwmod@counter,f
  3113  0B09  1D03               	btfss	3,2
  3114  0B0A  2B0C               	goto	u3001
  3115  0B0B  2B0D               	goto	u3000
  3116  0B0C                     u3001:	
  3117  0B0C  2AF0               	goto	l2618
  3118  0B0D                     u3000:	
  3119  0B0D                     l2626:	
  3120  0B0D  0826               	movf	___lwmod@dividend+1,w
  3121  0B0E  00A4               	movwf	?___lwmod+1
  3122  0B0F  0825               	movf	___lwmod@dividend,w
  3123  0B10  00A3               	movwf	?___lwmod
  3124  0B11                     l658:	
  3125  0B11  0008               	return
  3126  0B12                     __end_of___lwmod:	
  3127                           
  3128                           	psect	text9
  3129  0B12                     __ptext9:	
  3130 ;; *************** function ___lwdiv *****************
  3131 ;; Defined at:
  3132 ;;		line 5 in file "C:\Program Files (x86)\Microchip\xc8\v2.10\pic\sources\c90\common\lwdiv.c"
  3133 ;; Parameters:    Size  Location     Type
  3134 ;;  divisor         2    3[COMMON] unsigned int 
  3135 ;;  dividend        2    5[COMMON] unsigned int 
  3136 ;; Auto vars:     Size  Location     Type
  3137 ;;  quotient        2    1[BANK0 ] unsigned int 
  3138 ;;  counter         1    0[BANK0 ] unsigned char 
  3139 ;; Return value:  Size  Location     Type
  3140 ;;                  2    3[COMMON] unsigned int 
  3141 ;; Registers used:
  3142 ;;		wreg, status,2, status,0
  3143 ;; Tracked objects:
  3144 ;;		On entry : 0/0
  3145 ;;		On exit  : 0/0
  3146 ;;		Unchanged: 0/0
  3147 ;; Data sizes:     COMMON   BANK0   BANK1   BANK3   BANK2
  3148 ;;      Params:         4       0       0       0       0
  3149 ;;      Locals:         0       3       0       0       0
  3150 ;;      Temps:          1       0       0       0       0
  3151 ;;      Totals:         5       3       0       0       0
  3152 ;;Total ram usage:        8 bytes
  3153 ;; Hardware stack levels used:    1
  3154 ;; Hardware stack levels required when called:    1
  3155 ;; This function calls:
  3156 ;;		Nothing
  3157 ;; This function is called by:
  3158 ;;		_sprintf
  3159 ;; This function uses a non-reentrant model
  3160 ;;
  3161                           
  3162                           
  3163                           ;psect for function ___lwdiv
  3164  0B12                     ___lwdiv:	
  3165  0B12                     l2582:	
  3166                           ;incstack = 0
  3167                           ; Regs used in ___lwdiv: [wreg+status,2+status,0]
  3168                           
  3169  0B12  1283               	bcf	3,5	;RP0=0, select bank0
  3170  0B13  1303               	bcf	3,6	;RP1=0, select bank0
  3171  0B14  01A1               	clrf	___lwdiv@quotient
  3172  0B15  01A2               	clrf	___lwdiv@quotient+1
  3173  0B16                     l2584:	
  3174  0B16  0873               	movf	___lwdiv@divisor,w
  3175  0B17  0474               	iorwf	___lwdiv@divisor+1,w
  3176  0B18  1903               	btfsc	3,2
  3177  0B19  2B1B               	goto	u2881
  3178  0B1A  2B1C               	goto	u2880
  3179  0B1B                     u2881:	
  3180  0B1B  2B53               	goto	l2604
  3181  0B1C                     u2880:	
  3182  0B1C                     l2586:	
  3183  0B1C  01A0               	clrf	___lwdiv@counter
  3184  0B1D  0AA0               	incf	___lwdiv@counter,f
  3185  0B1E  2B2A               	goto	l2592
  3186  0B1F                     l2588:	
  3187  0B1F  3001               	movlw	1
  3188  0B20                     u2895:	
  3189  0B20  1003               	clrc
  3190  0B21  0DF3               	rlf	___lwdiv@divisor,f
  3191  0B22  0DF4               	rlf	___lwdiv@divisor+1,f
  3192  0B23  3EFF               	addlw	-1
  3193  0B24  1D03               	skipz
  3194  0B25  2B20               	goto	u2895
  3195  0B26                     l2590:	
  3196  0B26  3001               	movlw	1
  3197  0B27  00F7               	movwf	??___lwdiv
  3198  0B28  0877               	movf	??___lwdiv,w
  3199  0B29  07A0               	addwf	___lwdiv@counter,f
  3200  0B2A                     l2592:	
  3201  0B2A  1FF4               	btfss	___lwdiv@divisor+1,7
  3202  0B2B  2B2D               	goto	u2901
  3203  0B2C  2B2E               	goto	u2900
  3204  0B2D                     u2901:	
  3205  0B2D  2B1F               	goto	l2588
  3206  0B2E                     u2900:	
  3207  0B2E                     l2594:	
  3208  0B2E  3001               	movlw	1
  3209  0B2F                     u2915:	
  3210  0B2F  1003               	clrc
  3211  0B30  0DA1               	rlf	___lwdiv@quotient,f
  3212  0B31  0DA2               	rlf	___lwdiv@quotient+1,f
  3213  0B32  3EFF               	addlw	-1
  3214  0B33  1D03               	skipz
  3215  0B34  2B2F               	goto	u2915
  3216  0B35  0874               	movf	___lwdiv@divisor+1,w
  3217  0B36  0276               	subwf	___lwdiv@dividend+1,w
  3218  0B37  1D03               	skipz
  3219  0B38  2B3B               	goto	u2925
  3220  0B39  0873               	movf	___lwdiv@divisor,w
  3221  0B3A  0275               	subwf	___lwdiv@dividend,w
  3222  0B3B                     u2925:	
  3223  0B3B  1C03               	skipc
  3224  0B3C  2B3E               	goto	u2921
  3225  0B3D  2B3F               	goto	u2920
  3226  0B3E                     u2921:	
  3227  0B3E  2B46               	goto	l2600
  3228  0B3F                     u2920:	
  3229  0B3F                     l2596:	
  3230  0B3F  0873               	movf	___lwdiv@divisor,w
  3231  0B40  02F5               	subwf	___lwdiv@dividend,f
  3232  0B41  0874               	movf	___lwdiv@divisor+1,w
  3233  0B42  1C03               	skipc
  3234  0B43  03F6               	decf	___lwdiv@dividend+1,f
  3235  0B44  02F6               	subwf	___lwdiv@dividend+1,f
  3236  0B45                     l2598:	
  3237  0B45  1421               	bsf	___lwdiv@quotient,0
  3238  0B46                     l2600:	
  3239  0B46  3001               	movlw	1
  3240  0B47                     u2935:	
  3241  0B47  1003               	clrc
  3242  0B48  0CF4               	rrf	___lwdiv@divisor+1,f
  3243  0B49  0CF3               	rrf	___lwdiv@divisor,f
  3244  0B4A  3EFF               	addlw	-1
  3245  0B4B  1D03               	skipz
  3246  0B4C  2B47               	goto	u2935
  3247  0B4D                     l2602:	
  3248  0B4D  3001               	movlw	1
  3249  0B4E  02A0               	subwf	___lwdiv@counter,f
  3250  0B4F  1D03               	btfss	3,2
  3251  0B50  2B52               	goto	u2941
  3252  0B51  2B53               	goto	u2940
  3253  0B52                     u2941:	
  3254  0B52  2B2E               	goto	l2594
  3255  0B53                     u2940:	
  3256  0B53                     l2604:	
  3257  0B53  0822               	movf	___lwdiv@quotient+1,w
  3258  0B54  00F4               	movwf	?___lwdiv+1
  3259  0B55  0821               	movf	___lwdiv@quotient,w
  3260  0B56  00F3               	movwf	?___lwdiv
  3261  0B57                     l648:	
  3262  0B57  0008               	return
  3263  0B58                     __end_of___lwdiv:	
  3264                           
  3265                           	psect	text10
  3266  099E                     __ptext10:	
  3267 ;; *************** function _setup *****************
  3268 ;; Defined at:
  3269 ;;		line 124 in file "giroscopio.c"
  3270 ;; Parameters:    Size  Location     Type
  3271 ;;		None
  3272 ;; Auto vars:     Size  Location     Type
  3273 ;;		None
  3274 ;; Return value:  Size  Location     Type
  3275 ;;                  1    wreg      void 
  3276 ;; Registers used:
  3277 ;;		wreg, status,2
  3278 ;; Tracked objects:
  3279 ;;		On entry : 0/0
  3280 ;;		On exit  : 0/0
  3281 ;;		Unchanged: 0/0
  3282 ;; Data sizes:     COMMON   BANK0   BANK1   BANK3   BANK2
  3283 ;;      Params:         0       0       0       0       0
  3284 ;;      Locals:         0       0       0       0       0
  3285 ;;      Temps:          0       0       0       0       0
  3286 ;;      Totals:         0       0       0       0       0
  3287 ;;Total ram usage:        0 bytes
  3288 ;; Hardware stack levels used:    1
  3289 ;; Hardware stack levels required when called:    1
  3290 ;; This function calls:
  3291 ;;		Nothing
  3292 ;; This function is called by:
  3293 ;;		_main
  3294 ;; This function uses a non-reentrant model
  3295 ;;
  3296                           
  3297                           
  3298                           ;psect for function _setup
  3299  099E                     _setup:	
  3300  099E                     l1830:	
  3301                           ;incstack = 0
  3302                           ; Regs used in _setup: [wreg+status,2]
  3303                           
  3304                           
  3305                           ;giroscopio.c: 125:     TRISC = 0x00;
  3306  099E  1683               	bsf	3,5	;RP0=1, select bank1
  3307  099F  1303               	bcf	3,6	;RP1=0, select bank1
  3308  09A0  0187               	clrf	7	;volatile
  3309                           
  3310                           ;giroscopio.c: 126:     TRISA = 0x00;
  3311  09A1  0185               	clrf	5	;volatile
  3312                           
  3313                           ;giroscopio.c: 127:     PORTA = 0x00;
  3314  09A2  1283               	bcf	3,5	;RP0=0, select bank0
  3315  09A3  1303               	bcf	3,6	;RP1=0, select bank0
  3316  09A4  0185               	clrf	5	;volatile
  3317  09A5                     l1832:	
  3318                           
  3319                           ;giroscopio.c: 128:     TRISB = 0xFF;
  3320  09A5  30FF               	movlw	255
  3321  09A6  1683               	bsf	3,5	;RP0=1, select bank1
  3322  09A7  1303               	bcf	3,6	;RP1=0, select bank1
  3323  09A8  0086               	movwf	6	;volatile
  3324  09A9                     l1834:	
  3325                           
  3326                           ;giroscopio.c: 129:     ANSEL = 0x00;
  3327  09A9  1683               	bsf	3,5	;RP0=1, select bank3
  3328  09AA  1703               	bsf	3,6	;RP1=1, select bank3
  3329  09AB  0188               	clrf	8	;volatile
  3330  09AC                     l1836:	
  3331                           
  3332                           ;giroscopio.c: 130:     ANSELHbits.ANS12 = 1;
  3333  09AC  1609               	bsf	9,4	;volatile
  3334  09AD                     l105:	
  3335  09AD  0008               	return
  3336  09AE                     __end_of_setup:	
  3337                           
  3338                           	psect	text11
  3339  0BC0                     __ptext11:	
  3340 ;; *************** function _oscInit *****************
  3341 ;; Defined at:
  3342 ;;		line 11 in file "OSCCON.c"
  3343 ;; Parameters:    Size  Location     Type
  3344 ;;  freq            1    wreg     unsigned char 
  3345 ;; Auto vars:     Size  Location     Type
  3346 ;;  freq            1    5[COMMON] unsigned char 
  3347 ;; Return value:  Size  Location     Type
  3348 ;;                  1    wreg      unsigned char 
  3349 ;; Registers used:
  3350 ;;		wreg, fsr0l, fsr0h, status,2, status,0
  3351 ;; Tracked objects:
  3352 ;;		On entry : 0/0
  3353 ;;		On exit  : 0/0
  3354 ;;		Unchanged: 0/0
  3355 ;; Data sizes:     COMMON   BANK0   BANK1   BANK3   BANK2
  3356 ;;      Params:         0       0       0       0       0
  3357 ;;      Locals:         1       0       0       0       0
  3358 ;;      Temps:          2       0       0       0       0
  3359 ;;      Totals:         3       0       0       0       0
  3360 ;;Total ram usage:        3 bytes
  3361 ;; Hardware stack levels used:    1
  3362 ;; Hardware stack levels required when called:    1
  3363 ;; This function calls:
  3364 ;;		Nothing
  3365 ;; This function is called by:
  3366 ;;		_main
  3367 ;; This function uses a non-reentrant model
  3368 ;;
  3369                           
  3370                           
  3371                           ;psect for function _oscInit
  3372  0BC0                     _oscInit:	
  3373                           
  3374                           ;incstack = 0
  3375                           ; Regs used in _oscInit: [wreg-fsr0h+status,2+status,0]
  3376                           ;oscInit@freq stored from wreg
  3377  0BC0  00F5               	movwf	oscInit@freq
  3378  0BC1                     l1840:	
  3379                           
  3380                           ;OSCCON.c: 12:     switch(freq){
  3381  0BC1  2C12               	goto	l1844
  3382  0BC2                     l199:	
  3383                           ;OSCCON.c: 13:         case 0:
  3384                           
  3385                           
  3386                           ;OSCCON.c: 14:             OSCCONbits.IRCF2 = 1;
  3387  0BC2  1683               	bsf	3,5	;RP0=1, select bank1
  3388  0BC3  1303               	bcf	3,6	;RP1=0, select bank1
  3389  0BC4  170F               	bsf	15,6	;volatile
  3390                           
  3391                           ;OSCCON.c: 15:             OSCCONbits.IRCF1 = 1;
  3392  0BC5  168F               	bsf	15,5	;volatile
  3393                           
  3394                           ;OSCCON.c: 16:             OSCCONbits.IRCF0 = 1;
  3395  0BC6  160F               	bsf	15,4	;volatile
  3396                           
  3397                           ;OSCCON.c: 17:             OSCCONbits.OSTS = 0;
  3398  0BC7  118F               	bcf	15,3	;volatile
  3399                           
  3400                           ;OSCCON.c: 18:             OSCCONbits.HTS = 1;
  3401  0BC8  150F               	bsf	15,2	;volatile
  3402                           
  3403                           ;OSCCON.c: 19:             OSCCONbits.LTS = 0;
  3404  0BC9  108F               	bcf	15,1	;volatile
  3405                           
  3406                           ;OSCCON.c: 20:             OSCCONbits.SCS = 1;
  3407  0BCA  140F               	bsf	15,0	;volatile
  3408                           
  3409                           ;OSCCON.c: 21:             break;
  3410  0BCB  2C34               	goto	l208
  3411  0BCC                     l201:	
  3412                           ;OSCCON.c: 22:         case 1:
  3413                           
  3414                           
  3415                           ;OSCCON.c: 23:             OSCCONbits.IRCF2 = 1;
  3416  0BCC  1683               	bsf	3,5	;RP0=1, select bank1
  3417  0BCD  1303               	bcf	3,6	;RP1=0, select bank1
  3418  0BCE  170F               	bsf	15,6	;volatile
  3419                           
  3420                           ;OSCCON.c: 24:             OSCCONbits.IRCF1 = 1;
  3421  0BCF  168F               	bsf	15,5	;volatile
  3422                           
  3423                           ;OSCCON.c: 25:             OSCCONbits.IRCF0 = 0;
  3424  0BD0  120F               	bcf	15,4	;volatile
  3425                           
  3426                           ;OSCCON.c: 26:             OSCCONbits.OSTS = 0;
  3427  0BD1  118F               	bcf	15,3	;volatile
  3428                           
  3429                           ;OSCCON.c: 27:             OSCCONbits.HTS = 1;
  3430  0BD2  150F               	bsf	15,2	;volatile
  3431                           
  3432                           ;OSCCON.c: 28:             OSCCONbits.LTS = 0;
  3433  0BD3  108F               	bcf	15,1	;volatile
  3434                           
  3435                           ;OSCCON.c: 29:             OSCCONbits.SCS = 1;
  3436  0BD4  140F               	bsf	15,0	;volatile
  3437                           
  3438                           ;OSCCON.c: 30:             break;
  3439  0BD5  2C34               	goto	l208
  3440  0BD6                     l202:	
  3441                           ;OSCCON.c: 31:         case 2:
  3442                           
  3443                           
  3444                           ;OSCCON.c: 32:             OSCCONbits.IRCF2 = 1;
  3445  0BD6  1683               	bsf	3,5	;RP0=1, select bank1
  3446  0BD7  1303               	bcf	3,6	;RP1=0, select bank1
  3447  0BD8  170F               	bsf	15,6	;volatile
  3448                           
  3449                           ;OSCCON.c: 33:             OSCCONbits.IRCF1 = 0;
  3450  0BD9  128F               	bcf	15,5	;volatile
  3451                           
  3452                           ;OSCCON.c: 34:             OSCCONbits.IRCF0 = 1;
  3453  0BDA  160F               	bsf	15,4	;volatile
  3454                           
  3455                           ;OSCCON.c: 35:             OSCCONbits.OSTS = 0;
  3456  0BDB  118F               	bcf	15,3	;volatile
  3457                           
  3458                           ;OSCCON.c: 36:             OSCCONbits.HTS = 1;
  3459  0BDC  150F               	bsf	15,2	;volatile
  3460                           
  3461                           ;OSCCON.c: 37:             OSCCONbits.LTS = 0;
  3462  0BDD  108F               	bcf	15,1	;volatile
  3463                           
  3464                           ;OSCCON.c: 38:             OSCCONbits.SCS = 1;
  3465  0BDE  140F               	bsf	15,0	;volatile
  3466                           
  3467                           ;OSCCON.c: 39:             break;
  3468  0BDF  2C34               	goto	l208
  3469  0BE0                     l203:	
  3470                           ;OSCCON.c: 40:         case 3:
  3471                           
  3472                           
  3473                           ;OSCCON.c: 41:             OSCCONbits.IRCF2 = 1;
  3474  0BE0  1683               	bsf	3,5	;RP0=1, select bank1
  3475  0BE1  1303               	bcf	3,6	;RP1=0, select bank1
  3476  0BE2  170F               	bsf	15,6	;volatile
  3477                           
  3478                           ;OSCCON.c: 42:             OSCCONbits.IRCF1 = 0;
  3479  0BE3  128F               	bcf	15,5	;volatile
  3480                           
  3481                           ;OSCCON.c: 43:             OSCCONbits.IRCF0 = 0;
  3482  0BE4  120F               	bcf	15,4	;volatile
  3483                           
  3484                           ;OSCCON.c: 44:             OSCCONbits.OSTS = 0;
  3485  0BE5  118F               	bcf	15,3	;volatile
  3486                           
  3487                           ;OSCCON.c: 45:             OSCCONbits.HTS = 1;
  3488  0BE6  150F               	bsf	15,2	;volatile
  3489                           
  3490                           ;OSCCON.c: 46:             OSCCONbits.LTS = 0;
  3491  0BE7  108F               	bcf	15,1	;volatile
  3492                           
  3493                           ;OSCCON.c: 47:             OSCCONbits.SCS = 1;
  3494  0BE8  140F               	bsf	15,0	;volatile
  3495                           
  3496                           ;OSCCON.c: 48:             break;
  3497  0BE9  2C34               	goto	l208
  3498  0BEA                     l204:	
  3499                           ;OSCCON.c: 49:         case 4:
  3500                           
  3501                           
  3502                           ;OSCCON.c: 50:             OSCCONbits.IRCF2 = 0;
  3503  0BEA  1683               	bsf	3,5	;RP0=1, select bank1
  3504  0BEB  1303               	bcf	3,6	;RP1=0, select bank1
  3505  0BEC  130F               	bcf	15,6	;volatile
  3506                           
  3507                           ;OSCCON.c: 51:             OSCCONbits.IRCF1 = 1;
  3508  0BED  168F               	bsf	15,5	;volatile
  3509                           
  3510                           ;OSCCON.c: 52:             OSCCONbits.IRCF0 = 1;
  3511  0BEE  160F               	bsf	15,4	;volatile
  3512                           
  3513                           ;OSCCON.c: 53:             OSCCONbits.OSTS = 0;
  3514  0BEF  118F               	bcf	15,3	;volatile
  3515                           
  3516                           ;OSCCON.c: 54:             OSCCONbits.HTS = 1;
  3517  0BF0  150F               	bsf	15,2	;volatile
  3518                           
  3519                           ;OSCCON.c: 55:             OSCCONbits.LTS = 0;
  3520  0BF1  108F               	bcf	15,1	;volatile
  3521                           
  3522                           ;OSCCON.c: 56:             OSCCONbits.SCS = 1;
  3523  0BF2  140F               	bsf	15,0	;volatile
  3524                           
  3525                           ;OSCCON.c: 57:             break;
  3526  0BF3  2C34               	goto	l208
  3527  0BF4                     l205:	
  3528                           ;OSCCON.c: 58:         case 5:
  3529                           
  3530                           
  3531                           ;OSCCON.c: 59:             OSCCONbits.IRCF2 = 0;
  3532  0BF4  1683               	bsf	3,5	;RP0=1, select bank1
  3533  0BF5  1303               	bcf	3,6	;RP1=0, select bank1
  3534  0BF6  130F               	bcf	15,6	;volatile
  3535                           
  3536                           ;OSCCON.c: 60:             OSCCONbits.IRCF1 = 1;
  3537  0BF7  168F               	bsf	15,5	;volatile
  3538                           
  3539                           ;OSCCON.c: 61:             OSCCONbits.IRCF0 = 0;
  3540  0BF8  120F               	bcf	15,4	;volatile
  3541                           
  3542                           ;OSCCON.c: 62:             OSCCONbits.OSTS = 0;
  3543  0BF9  118F               	bcf	15,3	;volatile
  3544                           
  3545                           ;OSCCON.c: 63:             OSCCONbits.HTS = 1;
  3546  0BFA  150F               	bsf	15,2	;volatile
  3547                           
  3548                           ;OSCCON.c: 64:             OSCCONbits.LTS = 0;
  3549  0BFB  108F               	bcf	15,1	;volatile
  3550                           
  3551                           ;OSCCON.c: 65:             OSCCONbits.SCS = 1;
  3552  0BFC  140F               	bsf	15,0	;volatile
  3553                           
  3554                           ;OSCCON.c: 66:             break;
  3555  0BFD  2C34               	goto	l208
  3556  0BFE                     l206:	
  3557                           ;OSCCON.c: 67:         case 6:
  3558                           
  3559                           
  3560                           ;OSCCON.c: 68:             OSCCONbits.IRCF2 = 0;
  3561  0BFE  1683               	bsf	3,5	;RP0=1, select bank1
  3562  0BFF  1303               	bcf	3,6	;RP1=0, select bank1
  3563  0C00  130F               	bcf	15,6	;volatile
  3564                           
  3565                           ;OSCCON.c: 69:             OSCCONbits.IRCF1 = 0;
  3566  0C01  128F               	bcf	15,5	;volatile
  3567                           
  3568                           ;OSCCON.c: 70:             OSCCONbits.IRCF0 = 1;
  3569  0C02  160F               	bsf	15,4	;volatile
  3570                           
  3571                           ;OSCCON.c: 71:             OSCCONbits.OSTS = 0;
  3572  0C03  118F               	bcf	15,3	;volatile
  3573                           
  3574                           ;OSCCON.c: 72:             OSCCONbits.HTS = 1;
  3575  0C04  150F               	bsf	15,2	;volatile
  3576                           
  3577                           ;OSCCON.c: 73:             OSCCONbits.LTS = 0;
  3578  0C05  108F               	bcf	15,1	;volatile
  3579                           
  3580                           ;OSCCON.c: 74:             OSCCONbits.SCS = 1;
  3581  0C06  140F               	bsf	15,0	;volatile
  3582                           
  3583                           ;OSCCON.c: 75:             break;
  3584  0C07  2C34               	goto	l208
  3585  0C08                     l207:	
  3586                           ;OSCCON.c: 76:         case 7:
  3587                           
  3588                           
  3589                           ;OSCCON.c: 77:             OSCCONbits.IRCF2 = 0;
  3590  0C08  1683               	bsf	3,5	;RP0=1, select bank1
  3591  0C09  1303               	bcf	3,6	;RP1=0, select bank1
  3592  0C0A  130F               	bcf	15,6	;volatile
  3593                           
  3594                           ;OSCCON.c: 78:             OSCCONbits.IRCF1 = 0;
  3595  0C0B  128F               	bcf	15,5	;volatile
  3596                           
  3597                           ;OSCCON.c: 79:             OSCCONbits.IRCF0 = 0;
  3598  0C0C  120F               	bcf	15,4	;volatile
  3599                           
  3600                           ;OSCCON.c: 80:             OSCCONbits.OSTS = 0;
  3601  0C0D  118F               	bcf	15,3	;volatile
  3602                           
  3603                           ;OSCCON.c: 81:             OSCCONbits.HTS = 0;
  3604  0C0E  110F               	bcf	15,2	;volatile
  3605                           
  3606                           ;OSCCON.c: 82:             OSCCONbits.LTS = 1;
  3607  0C0F  148F               	bsf	15,1	;volatile
  3608                           
  3609                           ;OSCCON.c: 83:             OSCCONbits.SCS = 1;
  3610  0C10  140F               	bsf	15,0	;volatile
  3611                           
  3612                           ;OSCCON.c: 84:             break;
  3613  0C11  2C34               	goto	l208
  3614  0C12                     l1844:	
  3615  0C12  0875               	movf	oscInit@freq,w
  3616  0C13  00F3               	movwf	??_oscInit
  3617  0C14  01F4               	clrf	??_oscInit+1
  3618                           
  3619                           ; Switch on 2 bytes has been partitioned into a top level switch of size 1, and 1 sub-sw
      +                          itches
  3620                           ; Switch size 1, requested type "simple"
  3621                           ; Number of cases is 1, Range of values is 0 to 0
  3622                           ; switch strategies available:
  3623                           ; Name         Instructions Cycles
  3624                           ; simple_byte            4     3 (average)
  3625                           ; direct_byte           11     8 (fixed)
  3626                           ; jumptable            260     6 (fixed)
  3627                           ;	Chosen strategy is simple_byte
  3628  0C15  0874               	movf	??_oscInit+1,w
  3629  0C16  3A00               	xorlw	0	; case 0
  3630  0C17  1903               	skipnz
  3631  0C18  2C1A               	goto	l2956
  3632  0C19  2C34               	goto	l208
  3633  0C1A                     l2956:	
  3634                           
  3635                           ; Switch size 1, requested type "simple"
  3636                           ; Number of cases is 8, Range of values is 0 to 7
  3637                           ; switch strategies available:
  3638                           ; Name         Instructions Cycles
  3639                           ; simple_byte           25    13 (average)
  3640                           ; direct_byte           32     8 (fixed)
  3641                           ; jumptable            260     6 (fixed)
  3642                           ;	Chosen strategy is simple_byte
  3643  0C1A  0873               	movf	??_oscInit,w
  3644  0C1B  3A00               	xorlw	0	; case 0
  3645  0C1C  1903               	skipnz
  3646  0C1D  2BC2               	goto	l199
  3647  0C1E  3A01               	xorlw	1	; case 1
  3648  0C1F  1903               	skipnz
  3649  0C20  2BCC               	goto	l201
  3650  0C21  3A03               	xorlw	3	; case 2
  3651  0C22  1903               	skipnz
  3652  0C23  2BD6               	goto	l202
  3653  0C24  3A01               	xorlw	1	; case 3
  3654  0C25  1903               	skipnz
  3655  0C26  2BE0               	goto	l203
  3656  0C27  3A07               	xorlw	7	; case 4
  3657  0C28  1903               	skipnz
  3658  0C29  2BEA               	goto	l204
  3659  0C2A  3A01               	xorlw	1	; case 5
  3660  0C2B  1903               	skipnz
  3661  0C2C  2BF4               	goto	l205
  3662  0C2D  3A03               	xorlw	3	; case 6
  3663  0C2E  1903               	skipnz
  3664  0C2F  2BFE               	goto	l206
  3665  0C30  3A01               	xorlw	1	; case 7
  3666  0C31  1903               	skipnz
  3667  0C32  2C08               	goto	l207
  3668  0C33  2C34               	goto	l208
  3669  0C34                     l208:	
  3670  0C34  0008               	return
  3671  0C35                     __end_of_oscInit:	
  3672                           
  3673                           	psect	text12
  3674  0CB1                     __ptext12:	
  3675 ;; *************** function _mpu6050_init *****************
  3676 ;; Defined at:
  3677 ;;		line 20 in file "MPU6050.c"
  3678 ;; Parameters:    Size  Location     Type
  3679 ;;		None
  3680 ;; Auto vars:     Size  Location     Type
  3681 ;;		None
  3682 ;; Return value:  Size  Location     Type
  3683 ;;                  1    wreg      void 
  3684 ;; Registers used:
  3685 ;;		wreg, status,2, status,0, pclath, cstack
  3686 ;; Tracked objects:
  3687 ;;		On entry : 0/0
  3688 ;;		On exit  : 0/0
  3689 ;;		Unchanged: 0/0
  3690 ;; Data sizes:     COMMON   BANK0   BANK1   BANK3   BANK2
  3691 ;;      Params:         0       0       0       0       0
  3692 ;;      Locals:         0       0       0       0       0
  3693 ;;      Temps:          0       2       0       0       0
  3694 ;;      Totals:         0       2       0       0       0
  3695 ;;Total ram usage:        2 bytes
  3696 ;; Hardware stack levels used:    1
  3697 ;; Hardware stack levels required when called:    4
  3698 ;; This function calls:
  3699 ;;		_i2c_addr_start
  3700 ;;		_i2c_masterStop
  3701 ;;		_i2c_masterWrite
  3702 ;; This function is called by:
  3703 ;;		_main
  3704 ;; This function uses a non-reentrant model
  3705 ;;
  3706                           
  3707                           
  3708                           ;psect for function _mpu6050_init
  3709  0CB1                     _mpu6050_init:	
  3710  0CB1                     l2642:	
  3711                           ;incstack = 0
  3712                           ; Regs used in _mpu6050_init: [wreg+status,2+status,0+pclath+cstack]
  3713                           
  3714                           
  3715                           ;MPU6050.c: 22:   _delay((unsigned long)((100)*(4000000/4000.0)));
  3716  0CB1  3082               	movlw	130
  3717  0CB2  1283               	bcf	3,5	;RP0=0, select bank0
  3718  0CB3  1303               	bcf	3,6	;RP1=0, select bank0
  3719  0CB4  00A1               	movwf	??_mpu6050_init+1
  3720  0CB5  30DD               	movlw	221
  3721  0CB6  00A0               	movwf	??_mpu6050_init
  3722  0CB7                     u3347:	
  3723  0CB7  0BA0               	decfsz	??_mpu6050_init,f
  3724  0CB8  2CB7               	goto	u3347
  3725  0CB9  0BA1               	decfsz	??_mpu6050_init+1,f
  3726  0CBA  2CB7               	goto	u3347
  3727  0CBB                     l2644:	
  3728                           
  3729                           ;MPU6050.c: 26:     i2c_addr_start(0xD0);
  3730  0CBB  30D0               	movlw	208
  3731  0CBC  120A  158A  2218  120A  158A  	fcall	_i2c_addr_start
  3732  0CC1                     l2646:	
  3733                           
  3734                           ;MPU6050.c: 27:     i2c_masterWrite(0x19);
  3735  0CC1  3019               	movlw	25
  3736  0CC2  00F3               	movwf	i2c_masterWrite@data
  3737  0CC3  3000               	movlw	0
  3738  0CC4  00F4               	movwf	i2c_masterWrite@data+1
  3739  0CC5  120A  158A  21E0  120A  158A  	fcall	_i2c_masterWrite
  3740  0CCA                     l2648:	
  3741                           
  3742                           ;MPU6050.c: 28:     i2c_masterWrite(0x07);
  3743  0CCA  3007               	movlw	7
  3744  0CCB  00F3               	movwf	i2c_masterWrite@data
  3745  0CCC  3000               	movlw	0
  3746  0CCD  00F4               	movwf	i2c_masterWrite@data+1
  3747  0CCE  120A  158A  21E0  120A  158A  	fcall	_i2c_masterWrite
  3748  0CD3                     l2650:	
  3749                           
  3750                           ;MPU6050.c: 29:     i2c_masterStop();
  3751  0CD3  120A  158A  2189  120A  158A  	fcall	_i2c_masterStop
  3752  0CD8                     l2652:	
  3753                           
  3754                           ;MPU6050.c: 32:     i2c_addr_start(0xD0);
  3755  0CD8  30D0               	movlw	208
  3756  0CD9  120A  158A  2218  120A  158A  	fcall	_i2c_addr_start
  3757  0CDE                     l2654:	
  3758                           
  3759                           ;MPU6050.c: 33:     i2c_masterWrite(0x6B);
  3760  0CDE  306B               	movlw	107
  3761  0CDF  00F3               	movwf	i2c_masterWrite@data
  3762  0CE0  3000               	movlw	0
  3763  0CE1  00F4               	movwf	i2c_masterWrite@data+1
  3764  0CE2  120A  158A  21E0  120A  158A  	fcall	_i2c_masterWrite
  3765  0CE7                     l2656:	
  3766                           
  3767                           ;MPU6050.c: 34:     i2c_masterWrite(0x00);
  3768  0CE7  3000               	movlw	0
  3769  0CE8  00F3               	movwf	i2c_masterWrite@data
  3770  0CE9  00F4               	movwf	i2c_masterWrite@data+1
  3771  0CEA  120A  158A  21E0  120A  158A  	fcall	_i2c_masterWrite
  3772  0CEF                     l2658:	
  3773                           
  3774                           ;MPU6050.c: 35:     i2c_masterStop();
  3775  0CEF  120A  158A  2189  120A  158A  	fcall	_i2c_masterStop
  3776  0CF4                     l2660:	
  3777                           
  3778                           ;MPU6050.c: 38:     i2c_addr_start(0xD0);
  3779  0CF4  30D0               	movlw	208
  3780  0CF5  120A  158A  2218  120A  158A  	fcall	_i2c_addr_start
  3781  0CFA                     l2662:	
  3782                           
  3783                           ;MPU6050.c: 39:     i2c_masterWrite(0x1A);
  3784  0CFA  301A               	movlw	26
  3785  0CFB  00F3               	movwf	i2c_masterWrite@data
  3786  0CFC  3000               	movlw	0
  3787  0CFD  00F4               	movwf	i2c_masterWrite@data+1
  3788  0CFE  120A  158A  21E0  120A  158A  	fcall	_i2c_masterWrite
  3789  0D03                     l2664:	
  3790                           
  3791                           ;MPU6050.c: 40:     i2c_masterWrite(0x00);
  3792  0D03  3000               	movlw	0
  3793  0D04  00F3               	movwf	i2c_masterWrite@data
  3794  0D05  00F4               	movwf	i2c_masterWrite@data+1
  3795  0D06  120A  158A  21E0  120A  158A  	fcall	_i2c_masterWrite
  3796  0D0B                     l2666:	
  3797                           
  3798                           ;MPU6050.c: 41:     i2c_masterStop();
  3799  0D0B  120A  158A  2189  120A  158A  	fcall	_i2c_masterStop
  3800  0D10                     l2668:	
  3801                           
  3802                           ;MPU6050.c: 44:     i2c_addr_start(0xD0);
  3803  0D10  30D0               	movlw	208
  3804  0D11  120A  158A  2218  120A  158A  	fcall	_i2c_addr_start
  3805  0D16                     l2670:	
  3806                           
  3807                           ;MPU6050.c: 45:     i2c_masterWrite(0x1C);
  3808  0D16  301C               	movlw	28
  3809  0D17  00F3               	movwf	i2c_masterWrite@data
  3810  0D18  3000               	movlw	0
  3811  0D19  00F4               	movwf	i2c_masterWrite@data+1
  3812  0D1A  120A  158A  21E0  120A  158A  	fcall	_i2c_masterWrite
  3813  0D1F                     l2672:	
  3814                           
  3815                           ;MPU6050.c: 46:     i2c_masterWrite(0x00);
  3816  0D1F  3000               	movlw	0
  3817  0D20  00F3               	movwf	i2c_masterWrite@data
  3818  0D21  00F4               	movwf	i2c_masterWrite@data+1
  3819  0D22  120A  158A  21E0  120A  158A  	fcall	_i2c_masterWrite
  3820  0D27                     l2674:	
  3821                           
  3822                           ;MPU6050.c: 47:     i2c_masterStop();
  3823  0D27  120A  158A  2189  120A  158A  	fcall	_i2c_masterStop
  3824  0D2C                     l2676:	
  3825                           
  3826                           ;MPU6050.c: 50:     i2c_addr_start(0xD0);
  3827  0D2C  30D0               	movlw	208
  3828  0D2D  120A  158A  2218  120A  158A  	fcall	_i2c_addr_start
  3829  0D32                     l2678:	
  3830                           
  3831                           ;MPU6050.c: 51:     i2c_masterWrite(0x1B);
  3832  0D32  301B               	movlw	27
  3833  0D33  00F3               	movwf	i2c_masterWrite@data
  3834  0D34  3000               	movlw	0
  3835  0D35  00F4               	movwf	i2c_masterWrite@data+1
  3836  0D36  120A  158A  21E0  120A  158A  	fcall	_i2c_masterWrite
  3837  0D3B                     l2680:	
  3838                           
  3839                           ;MPU6050.c: 52:     i2c_masterWrite(0x12);
  3840  0D3B  3012               	movlw	18
  3841  0D3C  00F3               	movwf	i2c_masterWrite@data
  3842  0D3D  3000               	movlw	0
  3843  0D3E  00F4               	movwf	i2c_masterWrite@data+1
  3844  0D3F  120A  158A  21E0  120A  158A  	fcall	_i2c_masterWrite
  3845  0D44                     l2682:	
  3846                           
  3847                           ;MPU6050.c: 53:     i2c_masterStop();
  3848  0D44  120A  158A  2189  120A  158A  	fcall	_i2c_masterStop
  3849  0D49                     l2684:	
  3850                           
  3851                           ;MPU6050.c: 56:     i2c_addr_start(0xD0);
  3852  0D49  30D0               	movlw	208
  3853  0D4A  120A  158A  2218  120A  158A  	fcall	_i2c_addr_start
  3854  0D4F                     l2686:	
  3855                           
  3856                           ;MPU6050.c: 57:     i2c_masterWrite(0x38);
  3857  0D4F  3038               	movlw	56
  3858  0D50  00F3               	movwf	i2c_masterWrite@data
  3859  0D51  3000               	movlw	0
  3860  0D52  00F4               	movwf	i2c_masterWrite@data+1
  3861  0D53  120A  158A  21E0  120A  158A  	fcall	_i2c_masterWrite
  3862  0D58                     l2688:	
  3863                           
  3864                           ;MPU6050.c: 58:     i2c_masterWrite(0x01);
  3865  0D58  3001               	movlw	1
  3866  0D59  00F3               	movwf	i2c_masterWrite@data
  3867  0D5A  3000               	movlw	0
  3868  0D5B  00F4               	movwf	i2c_masterWrite@data+1
  3869  0D5C  120A  158A  21E0  120A  158A  	fcall	_i2c_masterWrite
  3870  0D61                     l2690:	
  3871                           
  3872                           ;MPU6050.c: 59:     i2c_masterStop();
  3873  0D61  120A  158A  2189  120A  158A  	fcall	_i2c_masterStop
  3874  0D66                     l193:	
  3875  0D66  0008               	return
  3876  0D67                     __end_of_mpu6050_init:	
  3877                           
  3878                           	psect	text13
  3879  0989                     __ptext13:	
  3880 ;; *************** function _i2c_masterStop *****************
  3881 ;; Defined at:
  3882 ;;		line 41 in file "I2C.c"
  3883 ;; Parameters:    Size  Location     Type
  3884 ;;		None
  3885 ;; Auto vars:     Size  Location     Type
  3886 ;;		None
  3887 ;; Return value:  Size  Location     Type
  3888 ;;                  1    wreg      void 
  3889 ;; Registers used:
  3890 ;;		wreg, status,2, status,0, pclath, cstack
  3891 ;; Tracked objects:
  3892 ;;		On entry : 0/0
  3893 ;;		On exit  : 0/0
  3894 ;;		Unchanged: 0/0
  3895 ;; Data sizes:     COMMON   BANK0   BANK1   BANK3   BANK2
  3896 ;;      Params:         0       0       0       0       0
  3897 ;;      Locals:         0       0       0       0       0
  3898 ;;      Temps:          0       0       0       0       0
  3899 ;;      Totals:         0       0       0       0       0
  3900 ;;Total ram usage:        0 bytes
  3901 ;; Hardware stack levels used:    1
  3902 ;; Hardware stack levels required when called:    2
  3903 ;; This function calls:
  3904 ;;		_i2c_masterWait
  3905 ;; This function is called by:
  3906 ;;		_main
  3907 ;;		_mpu6050_init
  3908 ;; This function uses a non-reentrant model
  3909 ;;
  3910                           
  3911                           
  3912                           ;psect for function _i2c_masterStop
  3913  0989                     _i2c_masterStop:	
  3914  0989                     l1750:	
  3915                           ;incstack = 0
  3916                           ; Regs used in _i2c_masterStop: [wreg+status,2+status,0+pclath+cstack]
  3917                           
  3918                           
  3919                           ;I2C.c: 42:     i2c_masterWait();
  3920  0989  120A  118A  27F1  120A  158A  	fcall	_i2c_masterWait
  3921  098E                     l1752:	
  3922                           
  3923                           ;I2C.c: 43:     SSPCON2bits.PEN = 1;
  3924  098E  1683               	bsf	3,5	;RP0=1, select bank1
  3925  098F  1303               	bcf	3,6	;RP1=0, select bank1
  3926  0990  1511               	bsf	17,2	;volatile
  3927  0991                     l155:	
  3928  0991  0008               	return
  3929  0992                     __end_of_i2c_masterStop:	
  3930                           
  3931                           	psect	text14
  3932  0A18                     __ptext14:	
  3933 ;; *************** function _i2c_addr_start *****************
  3934 ;; Defined at:
  3935 ;;		line 30 in file "I2C.c"
  3936 ;; Parameters:    Size  Location     Type
  3937 ;;  addr            1    wreg     unsigned char 
  3938 ;; Auto vars:     Size  Location     Type
  3939 ;;  addr            1    7[COMMON] unsigned char 
  3940 ;; Return value:  Size  Location     Type
  3941 ;;                  1    wreg      void 
  3942 ;; Registers used:
  3943 ;;		wreg, status,2, status,0, pclath, cstack
  3944 ;; Tracked objects:
  3945 ;;		On entry : 0/0
  3946 ;;		On exit  : 0/0
  3947 ;;		Unchanged: 0/0
  3948 ;; Data sizes:     COMMON   BANK0   BANK1   BANK3   BANK2
  3949 ;;      Params:         0       0       0       0       0
  3950 ;;      Locals:         1       0       0       0       0
  3951 ;;      Temps:          2       0       0       0       0
  3952 ;;      Totals:         3       0       0       0       0
  3953 ;;Total ram usage:        3 bytes
  3954 ;; Hardware stack levels used:    1
  3955 ;; Hardware stack levels required when called:    3
  3956 ;; This function calls:
  3957 ;;		_i2c_masterWait
  3958 ;;		_i2c_masterWrite
  3959 ;; This function is called by:
  3960 ;;		_main
  3961 ;;		_mpu6050_init
  3962 ;; This function uses a non-reentrant model
  3963 ;;
  3964                           
  3965                           
  3966                           ;psect for function _i2c_addr_start
  3967  0A18                     _i2c_addr_start:	
  3968                           
  3969                           ;incstack = 0
  3970                           ; Regs used in _i2c_addr_start: [wreg+status,2+status,0+pclath+cstack]
  3971                           ;i2c_addr_start@addr stored from wreg
  3972  0A18  00F7               	movwf	i2c_addr_start@addr
  3973  0A19                     l1746:	
  3974                           
  3975                           ;I2C.c: 31:     i2c_masterWait();
  3976  0A19  120A  118A  27F1  120A  158A  	fcall	_i2c_masterWait
  3977  0A1E                     l1748:	
  3978                           
  3979                           ;I2C.c: 32:     SEN = 1;
  3980  0A1E  1683               	bsf	3,5	;RP0=1, select bank1
  3981  0A1F  1303               	bcf	3,6	;RP1=0, select bank1
  3982  0A20  1411               	bsf	17,0	;volatile
  3983                           
  3984                           ;I2C.c: 33:     i2c_masterWrite(addr);
  3985  0A21  0877               	movf	i2c_addr_start@addr,w
  3986  0A22  00F5               	movwf	??_i2c_addr_start
  3987  0A23  01F6               	clrf	??_i2c_addr_start+1
  3988  0A24  0875               	movf	??_i2c_addr_start,w
  3989  0A25  00F3               	movwf	i2c_masterWrite@data
  3990  0A26  0876               	movf	??_i2c_addr_start+1,w
  3991  0A27  00F4               	movwf	i2c_masterWrite@data+1
  3992  0A28  120A  158A  21E0  120A  158A  	fcall	_i2c_masterWrite
  3993  0A2D                     l149:	
  3994  0A2D  0008               	return
  3995  0A2E                     __end_of_i2c_addr_start:	
  3996                           
  3997                           	psect	text15
  3998  09E0                     __ptext15:	
  3999 ;; *************** function _i2c_masterWrite *****************
  4000 ;; Defined at:
  4001 ;;		line 46 in file "I2C.c"
  4002 ;; Parameters:    Size  Location     Type
  4003 ;;  data            2    3[COMMON] unsigned int 
  4004 ;; Auto vars:     Size  Location     Type
  4005 ;;		None
  4006 ;; Return value:  Size  Location     Type
  4007 ;;                  1    wreg      unsigned char 
  4008 ;; Registers used:
  4009 ;;		wreg, status,2, status,0, pclath, cstack
  4010 ;; Tracked objects:
  4011 ;;		On entry : 0/0
  4012 ;;		On exit  : 0/0
  4013 ;;		Unchanged: 0/0
  4014 ;; Data sizes:     COMMON   BANK0   BANK1   BANK3   BANK2
  4015 ;;      Params:         2       0       0       0       0
  4016 ;;      Locals:         0       0       0       0       0
  4017 ;;      Temps:          0       0       0       0       0
  4018 ;;      Totals:         2       0       0       0       0
  4019 ;;Total ram usage:        2 bytes
  4020 ;; Hardware stack levels used:    1
  4021 ;; Hardware stack levels required when called:    2
  4022 ;; This function calls:
  4023 ;;		_i2c_masterWait
  4024 ;; This function is called by:
  4025 ;;		_main
  4026 ;;		_i2c_addr_start
  4027 ;;		_mpu6050_init
  4028 ;; This function uses a non-reentrant model
  4029 ;;
  4030                           
  4031                           
  4032                           ;psect for function _i2c_masterWrite
  4033  09E0                     _i2c_masterWrite:	
  4034  09E0                     l1738:	
  4035                           ;incstack = 0
  4036                           ; Regs used in _i2c_masterWrite: [wreg+status,2+status,0+pclath+cstack]
  4037                           
  4038                           
  4039                           ;I2C.c: 47:     i2c_masterWait();
  4040  09E0  120A  118A  27F1  120A  158A  	fcall	_i2c_masterWait
  4041  09E5                     l1740:	
  4042                           
  4043                           ;I2C.c: 48:     SSPBUF = data;
  4044  09E5  0873               	movf	i2c_masterWrite@data,w
  4045  09E6  1283               	bcf	3,5	;RP0=0, select bank0
  4046  09E7  1303               	bcf	3,6	;RP1=0, select bank0
  4047  09E8  0093               	movwf	19	;volatile
  4048  09E9                     l158:	
  4049                           ;I2C.c: 49:     while(!PIR1bits.SSPIF);
  4050                           
  4051  09E9  1D8C               	btfss	12,3	;volatile
  4052  09EA  29EC               	goto	u1451
  4053  09EB  29ED               	goto	u1450
  4054  09EC                     u1451:	
  4055  09EC  29E9               	goto	l158
  4056  09ED                     u1450:	
  4057  09ED                     l160:	
  4058                           
  4059                           ;I2C.c: 50:     PIR1bits.SSPIF = 0;
  4060  09ED  118C               	bcf	12,3	;volatile
  4061  09EE                     l1742:	
  4062                           
  4063                           ;I2C.c: 51:     return SSPCON2bits.ACKSTAT;;	Return value of _i2c_masterWrite is never u
      +                          sed
  4064  09EE  1683               	bsf	3,5	;RP0=1, select bank1
  4065  09EF  1303               	bcf	3,6	;RP1=0, select bank1
  4066  09F0  0811               	movf	17,w	;volatile
  4067  09F1                     l161:	
  4068  09F1  0008               	return
  4069  09F2                     __end_of_i2c_masterWrite:	
  4070                           
  4071                           	psect	text16
  4072  07F1                     __ptext16:	
  4073 ;; *************** function _i2c_masterWait *****************
  4074 ;; Defined at:
  4075 ;;		line 21 in file "I2C.c"
  4076 ;; Parameters:    Size  Location     Type
  4077 ;;		None
  4078 ;; Auto vars:     Size  Location     Type
  4079 ;;		None
  4080 ;; Return value:  Size  Location     Type
  4081 ;;                  1    wreg      void 
  4082 ;; Registers used:
  4083 ;;		wreg, status,2
  4084 ;; Tracked objects:
  4085 ;;		On entry : 0/0
  4086 ;;		On exit  : 0/0
  4087 ;;		Unchanged: 0/0
  4088 ;; Data sizes:     COMMON   BANK0   BANK1   BANK3   BANK2
  4089 ;;      Params:         0       0       0       0       0
  4090 ;;      Locals:         0       0       0       0       0
  4091 ;;      Temps:          0       0       0       0       0
  4092 ;;      Totals:         0       0       0       0       0
  4093 ;;Total ram usage:        0 bytes
  4094 ;; Hardware stack levels used:    1
  4095 ;; Hardware stack levels required when called:    1
  4096 ;; This function calls:
  4097 ;;		Nothing
  4098 ;; This function is called by:
  4099 ;;		_i2c_addr_start
  4100 ;;		_i2c_masterStop
  4101 ;;		_i2c_masterWrite
  4102 ;;		_i2c_masterStart
  4103 ;;		_i2c_master_RStart
  4104 ;; This function uses a non-reentrant model
  4105 ;;
  4106                           
  4107                           
  4108                           ;psect for function _i2c_masterWait
  4109  07F1                     _i2c_masterWait:	
  4110  07F1                     l1734:	
  4111                           ;incstack = 0
  4112                           ; Regs used in _i2c_masterWait: [wreg+status,2]
  4113                           
  4114  07F1                     l140:	
  4115                           ;I2C.c: 22:     while ((SSPSTAT & 0x04) || (SSPCON2 & 0x1F));
  4116                           
  4117  07F1  1683               	bsf	3,5	;RP0=1, select bank1
  4118  07F2  1303               	bcf	3,6	;RP1=0, select bank1
  4119  07F3  1914               	btfsc	20,2	;volatile
  4120  07F4  2FF6               	goto	u1431
  4121  07F5  2FF7               	goto	u1430
  4122  07F6                     u1431:	
  4123  07F6  2FF1               	goto	l140
  4124  07F7                     u1430:	
  4125  07F7                     l1736:	
  4126  07F7  0811               	movf	17,w	;volatile
  4127  07F8  391F               	andlw	31
  4128  07F9  1D03               	btfss	3,2
  4129  07FA  2FFC               	goto	u1441
  4130  07FB  2FFD               	goto	u1440
  4131  07FC                     u1441:	
  4132  07FC  2FF1               	goto	l140
  4133  07FD                     u1440:	
  4134  07FD                     l143:	
  4135  07FD  0008               	return
  4136  07FE                     __end_of_i2c_masterWait:	
  4137                           
  4138                           	psect	text17
  4139  0A9C                     __ptext17:	
  4140 ;; *************** function _i2c_master_init *****************
  4141 ;; Defined at:
  4142 ;;		line 12 in file "I2C.c"
  4143 ;; Parameters:    Size  Location     Type
  4144 ;;  c               4    8[BANK0 ] const unsigned long 
  4145 ;; Auto vars:     Size  Location     Type
  4146 ;;		None
  4147 ;; Return value:  Size  Location     Type
  4148 ;;                  1    wreg      void 
  4149 ;; Registers used:
  4150 ;;		wreg, status,2, status,0, pclath, cstack
  4151 ;; Tracked objects:
  4152 ;;		On entry : 0/0
  4153 ;;		On exit  : 0/0
  4154 ;;		Unchanged: 0/0
  4155 ;; Data sizes:     COMMON   BANK0   BANK1   BANK3   BANK2
  4156 ;;      Params:         0       4       0       0       0
  4157 ;;      Locals:         0       0       0       0       0
  4158 ;;      Temps:          0       4       0       0       0
  4159 ;;      Totals:         0       8       0       0       0
  4160 ;;Total ram usage:        8 bytes
  4161 ;; Hardware stack levels used:    1
  4162 ;; Hardware stack levels required when called:    2
  4163 ;; This function calls:
  4164 ;;		___lldiv
  4165 ;; This function is called by:
  4166 ;;		_main
  4167 ;; This function uses a non-reentrant model
  4168 ;;
  4169                           
  4170                           
  4171                           ;psect for function _i2c_master_init
  4172  0A9C                     _i2c_master_init:	
  4173  0A9C                     l2630:	
  4174                           ;incstack = 0
  4175                           ; Regs used in _i2c_master_init: [wreg+status,2+status,0+pclath+cstack]
  4176                           
  4177                           
  4178                           ;I2C.c: 13:     SSPCON = 0b00101000;
  4179  0A9C  3028               	movlw	40
  4180  0A9D  1283               	bcf	3,5	;RP0=0, select bank0
  4181  0A9E  1303               	bcf	3,6	;RP1=0, select bank0
  4182  0A9F  0094               	movwf	20	;volatile
  4183  0AA0                     l2632:	
  4184                           
  4185                           ;I2C.c: 14:     SSPCON2 = 0;
  4186  0AA0  1683               	bsf	3,5	;RP0=1, select bank1
  4187  0AA1  1303               	bcf	3,6	;RP1=0, select bank1
  4188  0AA2  0191               	clrf	17	;volatile
  4189  0AA3                     l2634:	
  4190                           
  4191                           ;I2C.c: 15:     SSPADD = (4000000/(4*c))-1;
  4192  0AA3  1283               	bcf	3,5	;RP0=0, select bank0
  4193  0AA4  1303               	bcf	3,6	;RP1=0, select bank0
  4194  0AA5  0828               	movf	i2c_master_init@c,w
  4195  0AA6  00AC               	movwf	??_i2c_master_init
  4196  0AA7  0829               	movf	i2c_master_init@c+1,w
  4197  0AA8  00AD               	movwf	??_i2c_master_init+1
  4198  0AA9  082A               	movf	i2c_master_init@c+2,w
  4199  0AAA  00AE               	movwf	??_i2c_master_init+2
  4200  0AAB  082B               	movf	i2c_master_init@c+3,w
  4201  0AAC  00AF               	movwf	??_i2c_master_init+3
  4202  0AAD  3002               	movlw	2
  4203  0AAE                     u3015:	
  4204  0AAE  1003               	clrc
  4205  0AAF  0DAC               	rlf	??_i2c_master_init,f
  4206  0AB0  0DAD               	rlf	??_i2c_master_init+1,f
  4207  0AB1  0DAE               	rlf	??_i2c_master_init+2,f
  4208  0AB2  0DAF               	rlf	??_i2c_master_init+3,f
  4209  0AB3                     u3010:	
  4210  0AB3  3EFF               	addlw	-1
  4211  0AB4  1D03               	skipz
  4212  0AB5  2AAE               	goto	u3015
  4213  0AB6  082F               	movf	??_i2c_master_init+3,w
  4214  0AB7  00A3               	movwf	___lldiv@divisor+3
  4215  0AB8  082E               	movf	??_i2c_master_init+2,w
  4216  0AB9  00A2               	movwf	___lldiv@divisor+2
  4217  0ABA  082D               	movf	??_i2c_master_init+1,w
  4218  0ABB  00A1               	movwf	___lldiv@divisor+1
  4219  0ABC  082C               	movf	??_i2c_master_init,w
  4220  0ABD  00A0               	movwf	___lldiv@divisor
  4221  0ABE  3000               	movlw	0
  4222  0ABF  00A7               	movwf	___lldiv@dividend+3
  4223  0AC0  303D               	movlw	61
  4224  0AC1  00A6               	movwf	___lldiv@dividend+2
  4225  0AC2  3009               	movlw	9
  4226  0AC3  00A5               	movwf	___lldiv@dividend+1
  4227  0AC4  3000               	movlw	0
  4228  0AC5  00A4               	movwf	___lldiv@dividend
  4229  0AC6  120A  158A  2358  120A  158A  	fcall	___lldiv
  4230  0ACB  1283               	bcf	3,5	;RP0=0, select bank0
  4231  0ACC  1303               	bcf	3,6	;RP1=0, select bank0
  4232  0ACD  0820               	movf	?___lldiv,w
  4233  0ACE  3EFF               	addlw	255
  4234  0ACF  1683               	bsf	3,5	;RP0=1, select bank1
  4235  0AD0  1303               	bcf	3,6	;RP1=0, select bank1
  4236  0AD1  0093               	movwf	19	;volatile
  4237  0AD2                     l2636:	
  4238                           
  4239                           ;I2C.c: 16:     SSPSTAT = 0;
  4240  0AD2  0194               	clrf	20	;volatile
  4241  0AD3                     l2638:	
  4242                           
  4243                           ;I2C.c: 17:     TRISCbits.TRISC3 = 1;
  4244  0AD3  1587               	bsf	7,3	;volatile
  4245  0AD4                     l2640:	
  4246                           
  4247                           ;I2C.c: 18:     TRISCbits.TRISC4 = 1;
  4248  0AD4  1607               	bsf	7,4	;volatile
  4249  0AD5                     l137:	
  4250  0AD5  0008               	return
  4251  0AD6                     __end_of_i2c_master_init:	
  4252                           
  4253                           	psect	text18
  4254  0B58                     __ptext18:	
  4255 ;; *************** function ___lldiv *****************
  4256 ;; Defined at:
  4257 ;;		line 5 in file "C:\Program Files (x86)\Microchip\xc8\v2.10\pic\sources\c90\common\__lldiv.c"
  4258 ;; Parameters:    Size  Location     Type
  4259 ;;  divisor         4    0[BANK0 ] unsigned long 
  4260 ;;  dividend        4    4[BANK0 ] unsigned long 
  4261 ;; Auto vars:     Size  Location     Type
  4262 ;;  quotient        4    4[COMMON] unsigned long 
  4263 ;;  counter         1    8[COMMON] unsigned char 
  4264 ;; Return value:  Size  Location     Type
  4265 ;;                  4    0[BANK0 ] unsigned long 
  4266 ;; Registers used:
  4267 ;;		wreg, status,2, status,0
  4268 ;; Tracked objects:
  4269 ;;		On entry : 0/0
  4270 ;;		On exit  : 0/0
  4271 ;;		Unchanged: 0/0
  4272 ;; Data sizes:     COMMON   BANK0   BANK1   BANK3   BANK2
  4273 ;;      Params:         0       8       0       0       0
  4274 ;;      Locals:         5       0       0       0       0
  4275 ;;      Temps:          1       0       0       0       0
  4276 ;;      Totals:         6       8       0       0       0
  4277 ;;Total ram usage:       14 bytes
  4278 ;; Hardware stack levels used:    1
  4279 ;; Hardware stack levels required when called:    1
  4280 ;; This function calls:
  4281 ;;		Nothing
  4282 ;; This function is called by:
  4283 ;;		_i2c_master_init
  4284 ;; This function uses a non-reentrant model
  4285 ;;
  4286                           
  4287                           
  4288                           ;psect for function ___lldiv
  4289  0B58                     ___lldiv:	
  4290  0B58                     l2558:	
  4291                           ;incstack = 0
  4292                           ; Regs used in ___lldiv: [wreg+status,2+status,0]
  4293                           
  4294  0B58  3000               	movlw	0
  4295  0B59  00F7               	movwf	___lldiv@quotient+3
  4296  0B5A  3000               	movlw	0
  4297  0B5B  00F6               	movwf	___lldiv@quotient+2
  4298  0B5C  3000               	movlw	0
  4299  0B5D  00F5               	movwf	___lldiv@quotient+1
  4300  0B5E  3000               	movlw	0
  4301  0B5F  00F4               	movwf	___lldiv@quotient
  4302  0B60  1283               	bcf	3,5	;RP0=0, select bank0
  4303  0B61  1303               	bcf	3,6	;RP1=0, select bank0
  4304  0B62  0823               	movf	___lldiv@divisor+3,w
  4305  0B63  0422               	iorwf	___lldiv@divisor+2,w
  4306  0B64  0421               	iorwf	___lldiv@divisor+1,w
  4307  0B65  0420               	iorwf	___lldiv@divisor,w
  4308  0B66  1903               	skipnz
  4309  0B67  2B69               	goto	u2811
  4310  0B68  2B6A               	goto	u2810
  4311  0B69                     u2811:	
  4312  0B69  2BB7               	goto	l2578
  4313  0B6A                     u2810:	
  4314  0B6A                     l2560:	
  4315  0B6A  01F8               	clrf	___lldiv@counter
  4316  0B6B  0AF8               	incf	___lldiv@counter,f
  4317  0B6C  2B7A               	goto	l2564
  4318  0B6D                     l2562:	
  4319  0B6D  3001               	movlw	1
  4320  0B6E  00F3               	movwf	??___lldiv
  4321  0B6F                     u2825:	
  4322  0B6F  1003               	clrc
  4323  0B70  0DA0               	rlf	___lldiv@divisor,f
  4324  0B71  0DA1               	rlf	___lldiv@divisor+1,f
  4325  0B72  0DA2               	rlf	___lldiv@divisor+2,f
  4326  0B73  0DA3               	rlf	___lldiv@divisor+3,f
  4327  0B74  0BF3               	decfsz	??___lldiv,f
  4328  0B75  2B6F               	goto	u2825
  4329  0B76  3001               	movlw	1
  4330  0B77  00F3               	movwf	??___lldiv
  4331  0B78  0873               	movf	??___lldiv,w
  4332  0B79  07F8               	addwf	___lldiv@counter,f
  4333  0B7A                     l2564:	
  4334  0B7A  1FA3               	btfss	___lldiv@divisor+3,7
  4335  0B7B  2B7D               	goto	u2831
  4336  0B7C  2B7E               	goto	u2830
  4337  0B7D                     u2831:	
  4338  0B7D  2B6D               	goto	l2562
  4339  0B7E                     u2830:	
  4340  0B7E                     l2566:	
  4341  0B7E  3001               	movlw	1
  4342  0B7F  00F3               	movwf	??___lldiv
  4343  0B80                     u2845:	
  4344  0B80  1003               	clrc
  4345  0B81  0DF4               	rlf	___lldiv@quotient,f
  4346  0B82  0DF5               	rlf	___lldiv@quotient+1,f
  4347  0B83  0DF6               	rlf	___lldiv@quotient+2,f
  4348  0B84  0DF7               	rlf	___lldiv@quotient+3,f
  4349  0B85  0BF3               	decfsz	??___lldiv,f
  4350  0B86  2B80               	goto	u2845
  4351  0B87                     l2568:	
  4352  0B87  0823               	movf	___lldiv@divisor+3,w
  4353  0B88  0227               	subwf	___lldiv@dividend+3,w
  4354  0B89  1D03               	skipz
  4355  0B8A  2B95               	goto	u2855
  4356  0B8B  0822               	movf	___lldiv@divisor+2,w
  4357  0B8C  0226               	subwf	___lldiv@dividend+2,w
  4358  0B8D  1D03               	skipz
  4359  0B8E  2B95               	goto	u2855
  4360  0B8F  0821               	movf	___lldiv@divisor+1,w
  4361  0B90  0225               	subwf	___lldiv@dividend+1,w
  4362  0B91  1D03               	skipz
  4363  0B92  2B95               	goto	u2855
  4364  0B93  0820               	movf	___lldiv@divisor,w
  4365  0B94  0224               	subwf	___lldiv@dividend,w
  4366  0B95                     u2855:	
  4367  0B95  1C03               	skipc
  4368  0B96  2B98               	goto	u2851
  4369  0B97  2B99               	goto	u2850
  4370  0B98                     u2851:	
  4371  0B98  2BA8               	goto	l2574
  4372  0B99                     u2850:	
  4373  0B99                     l2570:	
  4374  0B99  0820               	movf	___lldiv@divisor,w
  4375  0B9A  02A4               	subwf	___lldiv@dividend,f
  4376  0B9B  0821               	movf	___lldiv@divisor+1,w
  4377  0B9C  1C03               	skipc
  4378  0B9D  0F21               	incfsz	___lldiv@divisor+1,w
  4379  0B9E  02A5               	subwf	___lldiv@dividend+1,f
  4380  0B9F  0822               	movf	___lldiv@divisor+2,w
  4381  0BA0  1C03               	skipc
  4382  0BA1  0F22               	incfsz	___lldiv@divisor+2,w
  4383  0BA2  02A6               	subwf	___lldiv@dividend+2,f
  4384  0BA3  0823               	movf	___lldiv@divisor+3,w
  4385  0BA4  1C03               	skipc
  4386  0BA5  0F23               	incfsz	___lldiv@divisor+3,w
  4387  0BA6  02A7               	subwf	___lldiv@dividend+3,f
  4388  0BA7                     l2572:	
  4389  0BA7  1474               	bsf	___lldiv@quotient,0
  4390  0BA8                     l2574:	
  4391  0BA8  3001               	movlw	1
  4392  0BA9                     u2865:	
  4393  0BA9  1003               	clrc
  4394  0BAA  0CA3               	rrf	___lldiv@divisor+3,f
  4395  0BAB  0CA2               	rrf	___lldiv@divisor+2,f
  4396  0BAC  0CA1               	rrf	___lldiv@divisor+1,f
  4397  0BAD  0CA0               	rrf	___lldiv@divisor,f
  4398  0BAE  3EFF               	addlw	-1
  4399  0BAF  1D03               	skipz
  4400  0BB0  2BA9               	goto	u2865
  4401  0BB1                     l2576:	
  4402  0BB1  3001               	movlw	1
  4403  0BB2  02F8               	subwf	___lldiv@counter,f
  4404  0BB3  1D03               	btfss	3,2
  4405  0BB4  2BB6               	goto	u2871
  4406  0BB5  2BB7               	goto	u2870
  4407  0BB6                     u2871:	
  4408  0BB6  2B7E               	goto	l2566
  4409  0BB7                     u2870:	
  4410  0BB7                     l2578:	
  4411  0BB7  0877               	movf	___lldiv@quotient+3,w
  4412  0BB8  00A3               	movwf	?___lldiv+3
  4413  0BB9  0876               	movf	___lldiv@quotient+2,w
  4414  0BBA  00A2               	movwf	?___lldiv+2
  4415  0BBB  0875               	movf	___lldiv@quotient+1,w
  4416  0BBC  00A1               	movwf	?___lldiv+1
  4417  0BBD  0874               	movf	___lldiv@quotient,w
  4418  0BBE  00A0               	movwf	?___lldiv
  4419  0BBF                     l412:	
  4420  0BBF  0008               	return
  4421  0BC0                     __end_of___lldiv:	
  4422                           
  4423                           	psect	text19
  4424  0A65                     __ptext19:	
  4425 ;; *************** function _i2c_masterRead *****************
  4426 ;; Defined at:
  4427 ;;		line 54 in file "I2C.c"
  4428 ;; Parameters:    Size  Location     Type
  4429 ;;  a               2    3[COMMON] unsigned short 
  4430 ;; Auto vars:     Size  Location     Type
  4431 ;;  temp            1    7[COMMON] unsigned char 
  4432 ;; Return value:  Size  Location     Type
  4433 ;;                  2    3[COMMON] unsigned short 
  4434 ;; Registers used:
  4435 ;;		wreg, status,2, status,0
  4436 ;; Tracked objects:
  4437 ;;		On entry : 0/0
  4438 ;;		On exit  : 0/0
  4439 ;;		Unchanged: 0/0
  4440 ;; Data sizes:     COMMON   BANK0   BANK1   BANK3   BANK2
  4441 ;;      Params:         2       0       0       0       0
  4442 ;;      Locals:         1       0       0       0       0
  4443 ;;      Temps:          2       0       0       0       0
  4444 ;;      Totals:         5       0       0       0       0
  4445 ;;Total ram usage:        5 bytes
  4446 ;; Hardware stack levels used:    1
  4447 ;; Hardware stack levels required when called:    1
  4448 ;; This function calls:
  4449 ;;		Nothing
  4450 ;; This function is called by:
  4451 ;;		_main
  4452 ;; This function uses a non-reentrant model
  4453 ;;
  4454                           
  4455                           
  4456                           ;psect for function _i2c_masterRead
  4457  0A65                     _i2c_masterRead:	
  4458  0A65                     l1928:	
  4459                           ;incstack = 0
  4460                           ; Regs used in _i2c_masterRead: [wreg+status,2+status,0]
  4461                           
  4462                           
  4463                           ;I2C.c: 55:     unsigned char temp;;I2C.c: 57:     SSPCON2bits.RCEN = 1;
  4464  0A65  1683               	bsf	3,5	;RP0=1, select bank1
  4465  0A66  1303               	bcf	3,6	;RP1=0, select bank1
  4466  0A67  1591               	bsf	17,3	;volatile
  4467  0A68                     l164:	
  4468                           ;I2C.c: 59:     while(!SSPSTATbits.BF);
  4469                           
  4470  0A68  1C14               	btfss	20,0	;volatile
  4471  0A69  2A6B               	goto	u1681
  4472  0A6A  2A6C               	goto	u1680
  4473  0A6B                     u1681:	
  4474  0A6B  2A68               	goto	l164
  4475  0A6C                     u1680:	
  4476  0A6C                     l1930:	
  4477                           
  4478                           ;I2C.c: 60:     temp = SSPBUF;
  4479  0A6C  1283               	bcf	3,5	;RP0=0, select bank0
  4480  0A6D  1303               	bcf	3,6	;RP1=0, select bank0
  4481  0A6E  0813               	movf	19,w	;volatile
  4482  0A6F  00F5               	movwf	??_i2c_masterRead
  4483  0A70  0875               	movf	??_i2c_masterRead,w
  4484  0A71  00F7               	movwf	i2c_masterRead@temp
  4485  0A72                     l1932:	
  4486                           
  4487                           ;I2C.c: 62:     if (a == 0){
  4488  0A72  0873               	movf	i2c_masterRead@a,w
  4489  0A73  0474               	iorwf	i2c_masterRead@a+1,w
  4490  0A74  1D03               	btfss	3,2
  4491  0A75  2A77               	goto	u1691
  4492  0A76  2A78               	goto	u1690
  4493  0A77                     u1691:	
  4494  0A77  2A81               	goto	l1936
  4495  0A78                     u1690:	
  4496  0A78                     l1934:	
  4497                           
  4498                           ;I2C.c: 63:         SSPCON2bits.ACKDT = 0;
  4499  0A78  1683               	bsf	3,5	;RP0=1, select bank1
  4500  0A79  1303               	bcf	3,6	;RP1=0, select bank1
  4501  0A7A  1291               	bcf	17,5	;volatile
  4502                           
  4503                           ;I2C.c: 64:         SSPCON2bits.ACKEN = 1;
  4504  0A7B  1611               	bsf	17,4	;volatile
  4505  0A7C                     l168:	
  4506                           ;I2C.c: 65:         while(SSPCON2bits.ACKEN);
  4507                           
  4508  0A7C  1A11               	btfsc	17,4	;volatile
  4509  0A7D  2A7F               	goto	u1701
  4510  0A7E  2A80               	goto	u1700
  4511  0A7F                     u1701:	
  4512  0A7F  2A7C               	goto	l168
  4513  0A80                     u1700:	
  4514  0A80  2A8F               	goto	l176
  4515  0A81                     l1936:	
  4516  0A81  0373               	decf	i2c_masterRead@a,w
  4517  0A82  0474               	iorwf	i2c_masterRead@a+1,w
  4518  0A83  1D03               	btfss	3,2
  4519  0A84  2A86               	goto	u1711
  4520  0A85  2A87               	goto	u1710
  4521  0A86                     u1711:	
  4522  0A86  2A8F               	goto	l176
  4523  0A87                     u1710:	
  4524  0A87                     l1938:	
  4525                           
  4526                           ;I2C.c: 68:         SSPCON2bits.ACKDT = 1;
  4527  0A87  1683               	bsf	3,5	;RP0=1, select bank1
  4528  0A88  1303               	bcf	3,6	;RP1=0, select bank1
  4529  0A89  1691               	bsf	17,5	;volatile
  4530                           
  4531                           ;I2C.c: 69:         SSPCON2bits.ACKEN = 1;
  4532  0A8A  1611               	bsf	17,4	;volatile
  4533  0A8B                     l173:	
  4534                           ;I2C.c: 70:         while(SSPCON2bits.ACKEN);
  4535                           
  4536  0A8B  1A11               	btfsc	17,4	;volatile
  4537  0A8C  2A8E               	goto	u1721
  4538  0A8D  2A8F               	goto	u1720
  4539  0A8E                     u1721:	
  4540  0A8E  2A8B               	goto	l173
  4541  0A8F                     u1720:	
  4542  0A8F                     l176:	
  4543  0A8F  1283               	bcf	3,5	;RP0=0, select bank0
  4544  0A90  1D8C               	btfss	12,3	;volatile
  4545  0A91  2A93               	goto	u1731
  4546  0A92  2A94               	goto	u1730
  4547  0A93                     u1731:	
  4548  0A93  2A8F               	goto	l176
  4549  0A94                     u1730:	
  4550  0A94                     l1940:	
  4551                           
  4552                           ;I2C.c: 74:     return temp;
  4553  0A94  0877               	movf	i2c_masterRead@temp,w
  4554  0A95  00F5               	movwf	??_i2c_masterRead
  4555  0A96  01F6               	clrf	??_i2c_masterRead+1
  4556  0A97  0875               	movf	??_i2c_masterRead,w
  4557  0A98  00F3               	movwf	?_i2c_masterRead
  4558  0A99  0876               	movf	??_i2c_masterRead+1,w
  4559  0A9A  00F4               	movwf	?_i2c_masterRead+1
  4560  0A9B                     l179:	
  4561  0A9B  0008               	return
  4562  0A9C                     __end_of_i2c_masterRead:	
  4563                           
  4564                           	psect	text20
  4565  097E                     __ptext20:	
  4566 ;; *************** function _globalInt *****************
  4567 ;; Defined at:
  4568 ;;		line 133 in file "giroscopio.c"
  4569 ;; Parameters:    Size  Location     Type
  4570 ;;		None
  4571 ;; Auto vars:     Size  Location     Type
  4572 ;;		None
  4573 ;; Return value:  Size  Location     Type
  4574 ;;                  1    wreg      void 
  4575 ;; Registers used:
  4576 ;;		None
  4577 ;; Tracked objects:
  4578 ;;		On entry : 0/0
  4579 ;;		On exit  : 0/0
  4580 ;;		Unchanged: 0/0
  4581 ;; Data sizes:     COMMON   BANK0   BANK1   BANK3   BANK2
  4582 ;;      Params:         0       0       0       0       0
  4583 ;;      Locals:         0       0       0       0       0
  4584 ;;      Temps:          0       0       0       0       0
  4585 ;;      Totals:         0       0       0       0       0
  4586 ;;Total ram usage:        0 bytes
  4587 ;; Hardware stack levels used:    1
  4588 ;; Hardware stack levels required when called:    1
  4589 ;; This function calls:
  4590 ;;		Nothing
  4591 ;; This function is called by:
  4592 ;;		_main
  4593 ;; This function uses a non-reentrant model
  4594 ;;
  4595                           
  4596                           
  4597                           ;psect for function _globalInt
  4598  097E                     _globalInt:	
  4599  097E                     l1838:	
  4600                           ;incstack = 0
  4601                           ; Regs used in _globalInt: []
  4602                           
  4603                           
  4604                           ;giroscopio.c: 134:     INTCONbits.GIE = 1;
  4605  097E  178B               	bsf	11,7	;volatile
  4606                           
  4607                           ;giroscopio.c: 135:     INTCONbits.PEIE = 1;
  4608  097F  170B               	bsf	11,6	;volatile
  4609  0980                     l108:	
  4610  0980  0008               	return
  4611  0981                     __end_of_globalInt:	
  4612                           
  4613                           	psect	text21
  4614  0A04                     __ptext21:	
  4615 ;; *************** function _baudRate *****************
  4616 ;; Defined at:
  4617 ;;		line 41 in file "UART.c"
  4618 ;; Parameters:    Size  Location     Type
  4619 ;;  rateSel         1    wreg     unsigned char 
  4620 ;;  rateGen         1    3[COMMON] unsigned char 
  4621 ;;  baudN           1    4[COMMON] unsigned char 
  4622 ;; Auto vars:     Size  Location     Type
  4623 ;;  rateSel         1    5[COMMON] unsigned char 
  4624 ;; Return value:  Size  Location     Type
  4625 ;;                  1    wreg      void 
  4626 ;; Registers used:
  4627 ;;		wreg, status,0
  4628 ;; Tracked objects:
  4629 ;;		On entry : 0/0
  4630 ;;		On exit  : 0/0
  4631 ;;		Unchanged: 0/0
  4632 ;; Data sizes:     COMMON   BANK0   BANK1   BANK3   BANK2
  4633 ;;      Params:         2       0       0       0       0
  4634 ;;      Locals:         1       0       0       0       0
  4635 ;;      Temps:          0       0       0       0       0
  4636 ;;      Totals:         3       0       0       0       0
  4637 ;;Total ram usage:        3 bytes
  4638 ;; Hardware stack levels used:    1
  4639 ;; Hardware stack levels required when called:    1
  4640 ;; This function calls:
  4641 ;;		Nothing
  4642 ;; This function is called by:
  4643 ;;		_main
  4644 ;; This function uses a non-reentrant model
  4645 ;;
  4646                           
  4647                           
  4648                           ;psect for function _baudRate
  4649  0A04                     _baudRate:	
  4650                           
  4651                           ;incstack = 0
  4652                           ; Regs used in _baudRate: [wreg+status,0]
  4653                           ;baudRate@rateSel stored from wreg
  4654  0A04  00F5               	movwf	baudRate@rateSel
  4655  0A05                     l1856:	
  4656                           
  4657                           ;UART.c: 42:     TXSTAbits.BRGH = rateSel;
  4658  0A05  0C75               	rrf	baudRate@rateSel,w
  4659  0A06  1683               	bsf	3,5	;RP0=1, select bank1
  4660  0A07  1303               	bcf	3,6	;RP1=0, select bank1
  4661  0A08  1C03               	skipc
  4662  0A09  1118               	bcf	24,2	;volatile
  4663  0A0A  1803               	skipnc
  4664  0A0B  1518               	bsf	24,2	;volatile
  4665                           
  4666                           ;UART.c: 43:     BAUDCTLbits.BRG16 = rateGen;
  4667  0A0C  0C73               	rrf	baudRate@rateGen,w
  4668  0A0D  1683               	bsf	3,5	;RP0=1, select bank3
  4669  0A0E  1703               	bsf	3,6	;RP1=1, select bank3
  4670  0A0F  1C03               	skipc
  4671  0A10  1187               	bcf	7,3	;volatile
  4672  0A11  1803               	skipnc
  4673  0A12  1587               	bsf	7,3	;volatile
  4674  0A13                     l1858:	
  4675                           
  4676                           ;UART.c: 44:     SPBRG = baudN;
  4677  0A13  0874               	movf	baudRate@baudN,w
  4678  0A14  1683               	bsf	3,5	;RP0=1, select bank1
  4679  0A15  1303               	bcf	3,6	;RP1=0, select bank1
  4680  0A16  0099               	movwf	25	;volatile
  4681  0A17                     l238:	
  4682  0A17  0008               	return
  4683  0A18                     __end_of_baudRate:	
  4684                           
  4685                           	psect	text22
  4686  0D67                     __ptext22:	
  4687 ;; *************** function ___xxtofl *****************
  4688 ;; Defined at:
  4689 ;;		line 10 in file "C:\Program Files (x86)\Microchip\xc8\v2.10\pic\sources\c90\common\xxtofl.c"
  4690 ;; Parameters:    Size  Location     Type
  4691 ;;  sign            1    wreg     unsigned char 
  4692 ;;  val             4    3[COMMON] long 
  4693 ;; Auto vars:     Size  Location     Type
  4694 ;;  sign            1    4[BANK0 ] unsigned char 
  4695 ;;  arg             4    6[BANK0 ] unsigned long 
  4696 ;;  exp             1    5[BANK0 ] unsigned char 
  4697 ;; Return value:  Size  Location     Type
  4698 ;;                  4    3[COMMON] unsigned char 
  4699 ;; Registers used:
  4700 ;;		wreg, status,2, status,0
  4701 ;; Tracked objects:
  4702 ;;		On entry : 0/0
  4703 ;;		On exit  : 0/0
  4704 ;;		Unchanged: 0/0
  4705 ;; Data sizes:     COMMON   BANK0   BANK1   BANK3   BANK2
  4706 ;;      Params:         4       0       0       0       0
  4707 ;;      Locals:         0       6       0       0       0
  4708 ;;      Temps:          0       4       0       0       0
  4709 ;;      Totals:         4      10       0       0       0
  4710 ;;Total ram usage:       14 bytes
  4711 ;; Hardware stack levels used:    1
  4712 ;; Hardware stack levels required when called:    1
  4713 ;; This function calls:
  4714 ;;		Nothing
  4715 ;; This function is called by:
  4716 ;;		_main
  4717 ;; This function uses a non-reentrant model
  4718 ;;
  4719                           
  4720                           
  4721                           ;psect for function ___xxtofl
  4722  0D67                     ___xxtofl:	
  4723                           
  4724                           ;incstack = 0
  4725                           ; Regs used in ___xxtofl: [wreg+status,2+status,0]
  4726                           ;___xxtofl@sign stored from wreg
  4727  0D67  1283               	bcf	3,5	;RP0=0, select bank0
  4728  0D68  1303               	bcf	3,6	;RP1=0, select bank0
  4729  0D69  00A4               	movwf	___xxtofl@sign
  4730  0D6A                     l2790:	
  4731  0D6A  0824               	movf	___xxtofl@sign,w
  4732  0D6B  1903               	btfsc	3,2
  4733  0D6C  2D6E               	goto	u3191
  4734  0D6D  2D6F               	goto	u3190
  4735  0D6E                     u3191:	
  4736  0D6E  2D83               	goto	l2796
  4737  0D6F                     u3190:	
  4738  0D6F                     l2792:	
  4739  0D6F  1FF6               	btfss	___xxtofl@val+3,7
  4740  0D70  2D72               	goto	u3201
  4741  0D71  2D73               	goto	u3200
  4742  0D72                     u3201:	
  4743  0D72  2D83               	goto	l2796
  4744  0D73                     u3200:	
  4745  0D73                     l2794:	
  4746  0D73  0973               	comf	___xxtofl@val,w
  4747  0D74  00A6               	movwf	___xxtofl@arg
  4748  0D75  0974               	comf	___xxtofl@val+1,w
  4749  0D76  00A7               	movwf	___xxtofl@arg+1
  4750  0D77  0975               	comf	___xxtofl@val+2,w
  4751  0D78  00A8               	movwf	___xxtofl@arg+2
  4752  0D79  0976               	comf	___xxtofl@val+3,w
  4753  0D7A  00A9               	movwf	___xxtofl@arg+3
  4754  0D7B  0AA6               	incf	___xxtofl@arg,f
  4755  0D7C  1903               	skipnz
  4756  0D7D  0AA7               	incf	___xxtofl@arg+1,f
  4757  0D7E  1903               	skipnz
  4758  0D7F  0AA8               	incf	___xxtofl@arg+2,f
  4759  0D80  1903               	skipnz
  4760  0D81  0AA9               	incf	___xxtofl@arg+3,f
  4761  0D82  2D8B               	goto	l803
  4762  0D83                     l2796:	
  4763  0D83  0876               	movf	___xxtofl@val+3,w
  4764  0D84  00A9               	movwf	___xxtofl@arg+3
  4765  0D85  0875               	movf	___xxtofl@val+2,w
  4766  0D86  00A8               	movwf	___xxtofl@arg+2
  4767  0D87  0874               	movf	___xxtofl@val+1,w
  4768  0D88  00A7               	movwf	___xxtofl@arg+1
  4769  0D89  0873               	movf	___xxtofl@val,w
  4770  0D8A  00A6               	movwf	___xxtofl@arg
  4771  0D8B                     l803:	
  4772  0D8B  0876               	movf	___xxtofl@val+3,w
  4773  0D8C  0475               	iorwf	___xxtofl@val+2,w
  4774  0D8D  0474               	iorwf	___xxtofl@val+1,w
  4775  0D8E  0473               	iorwf	___xxtofl@val,w
  4776  0D8F  1D03               	skipz
  4777  0D90  2D92               	goto	u3211
  4778  0D91  2D93               	goto	u3210
  4779  0D92                     u3211:	
  4780  0D92  2D9C               	goto	l2802
  4781  0D93                     u3210:	
  4782  0D93                     l2798:	
  4783  0D93  3000               	movlw	0
  4784  0D94  00F6               	movwf	?___xxtofl+3
  4785  0D95  3000               	movlw	0
  4786  0D96  00F5               	movwf	?___xxtofl+2
  4787  0D97  3000               	movlw	0
  4788  0D98  00F4               	movwf	?___xxtofl+1
  4789  0D99  3000               	movlw	0
  4790  0D9A  00F3               	movwf	?___xxtofl
  4791  0D9B  2E22               	goto	l805
  4792  0D9C                     l2802:	
  4793  0D9C  3096               	movlw	150
  4794  0D9D  00A0               	movwf	??___xxtofl
  4795  0D9E  0820               	movf	??___xxtofl,w
  4796  0D9F  00A5               	movwf	___xxtofl@exp
  4797  0DA0  2DAE               	goto	l2806
  4798  0DA1                     l2804:	
  4799  0DA1  3001               	movlw	1
  4800  0DA2  00A0               	movwf	??___xxtofl
  4801  0DA3  0820               	movf	??___xxtofl,w
  4802  0DA4  07A5               	addwf	___xxtofl@exp,f
  4803  0DA5  3001               	movlw	1
  4804  0DA6                     u3225:	
  4805  0DA6  1003               	clrc
  4806  0DA7  0CA9               	rrf	___xxtofl@arg+3,f
  4807  0DA8  0CA8               	rrf	___xxtofl@arg+2,f
  4808  0DA9  0CA7               	rrf	___xxtofl@arg+1,f
  4809  0DAA  0CA6               	rrf	___xxtofl@arg,f
  4810  0DAB  3EFF               	addlw	-1
  4811  0DAC  1D03               	skipz
  4812  0DAD  2DA6               	goto	u3225
  4813  0DAE                     l2806:	
  4814  0DAE  30FE               	movlw	254
  4815  0DAF  0529               	andwf	___xxtofl@arg+3,w
  4816  0DB0  1D03               	btfss	3,2
  4817  0DB1  2DB3               	goto	u3231
  4818  0DB2  2DB4               	goto	u3230
  4819  0DB3                     u3231:	
  4820  0DB3  2DA1               	goto	l2804
  4821  0DB4                     u3230:	
  4822  0DB4  2DD0               	goto	l809
  4823  0DB5                     l2808:	
  4824  0DB5  3001               	movlw	1
  4825  0DB6  00A0               	movwf	??___xxtofl
  4826  0DB7  0820               	movf	??___xxtofl,w
  4827  0DB8  07A5               	addwf	___xxtofl@exp,f
  4828  0DB9                     l2810:	
  4829  0DB9  3001               	movlw	1
  4830  0DBA  07A6               	addwf	___xxtofl@arg,f
  4831  0DBB  3000               	movlw	0
  4832  0DBC  1803               	skipnc
  4833  0DBD  3001               	movlw	1
  4834  0DBE  07A7               	addwf	___xxtofl@arg+1,f
  4835  0DBF  3000               	movlw	0
  4836  0DC0  1803               	skipnc
  4837  0DC1  3001               	movlw	1
  4838  0DC2  07A8               	addwf	___xxtofl@arg+2,f
  4839  0DC3  3000               	movlw	0
  4840  0DC4  1803               	skipnc
  4841  0DC5  3001               	movlw	1
  4842  0DC6  07A9               	addwf	___xxtofl@arg+3,f
  4843  0DC7                     l2812:	
  4844  0DC7  3001               	movlw	1
  4845  0DC8                     u3245:	
  4846  0DC8  1003               	clrc
  4847  0DC9  0CA9               	rrf	___xxtofl@arg+3,f
  4848  0DCA  0CA8               	rrf	___xxtofl@arg+2,f
  4849  0DCB  0CA7               	rrf	___xxtofl@arg+1,f
  4850  0DCC  0CA6               	rrf	___xxtofl@arg,f
  4851  0DCD  3EFF               	addlw	-1
  4852  0DCE  1D03               	skipz
  4853  0DCF  2DC8               	goto	u3245
  4854  0DD0                     l809:	
  4855  0DD0  30FF               	movlw	255
  4856  0DD1  0529               	andwf	___xxtofl@arg+3,w
  4857  0DD2  1D03               	btfss	3,2
  4858  0DD3  2DD5               	goto	u3251
  4859  0DD4  2DD6               	goto	u3250
  4860  0DD5                     u3251:	
  4861  0DD5  2DB5               	goto	l2808
  4862  0DD6                     u3250:	
  4863  0DD6  2DE2               	goto	l2816
  4864  0DD7                     l2814:	
  4865  0DD7  3001               	movlw	1
  4866  0DD8  02A5               	subwf	___xxtofl@exp,f
  4867  0DD9  3001               	movlw	1
  4868  0DDA  00A0               	movwf	??___xxtofl
  4869  0DDB                     u3265:	
  4870  0DDB  1003               	clrc
  4871  0DDC  0DA6               	rlf	___xxtofl@arg,f
  4872  0DDD  0DA7               	rlf	___xxtofl@arg+1,f
  4873  0DDE  0DA8               	rlf	___xxtofl@arg+2,f
  4874  0DDF  0DA9               	rlf	___xxtofl@arg+3,f
  4875  0DE0  0BA0               	decfsz	??___xxtofl,f
  4876  0DE1  2DDB               	goto	u3265
  4877  0DE2                     l2816:	
  4878  0DE2  1BA8               	btfsc	___xxtofl@arg+2,7
  4879  0DE3  2DE5               	goto	u3271
  4880  0DE4  2DE6               	goto	u3270
  4881  0DE5                     u3271:	
  4882  0DE5  2DEC               	goto	l816
  4883  0DE6                     u3270:	
  4884  0DE6                     l2818:	
  4885  0DE6  3002               	movlw	2
  4886  0DE7  0225               	subwf	___xxtofl@exp,w
  4887  0DE8  1803               	skipnc
  4888  0DE9  2DEB               	goto	u3281
  4889  0DEA  2DEC               	goto	u3280
  4890  0DEB                     u3281:	
  4891  0DEB  2DD7               	goto	l2814
  4892  0DEC                     u3280:	
  4893  0DEC                     l816:	
  4894  0DEC  1825               	btfsc	___xxtofl@exp,0
  4895  0DED  2DEF               	goto	u3291
  4896  0DEE  2DF0               	goto	u3290
  4897  0DEF                     u3291:	
  4898  0DEF  2DF8               	goto	l817
  4899  0DF0                     u3290:	
  4900  0DF0                     l2820:	
  4901  0DF0  30FF               	movlw	255
  4902  0DF1  05A6               	andwf	___xxtofl@arg,f
  4903  0DF2  30FF               	movlw	255
  4904  0DF3  05A7               	andwf	___xxtofl@arg+1,f
  4905  0DF4  307F               	movlw	127
  4906  0DF5  05A8               	andwf	___xxtofl@arg+2,f
  4907  0DF6  30FF               	movlw	255
  4908  0DF7  05A9               	andwf	___xxtofl@arg+3,f
  4909  0DF8                     l817:	
  4910  0DF8  1003               	clrc
  4911  0DF9  0CA5               	rrf	___xxtofl@exp,f
  4912  0DFA                     l2822:	
  4913  0DFA  0825               	movf	___xxtofl@exp,w
  4914  0DFB  00A0               	movwf	??___xxtofl
  4915  0DFC  01A1               	clrf	??___xxtofl+1
  4916  0DFD  01A2               	clrf	??___xxtofl+2
  4917  0DFE  01A3               	clrf	??___xxtofl+3
  4918  0DFF  3018               	movlw	24
  4919  0E00                     u3305:	
  4920  0E00  1003               	clrc
  4921  0E01  0DA0               	rlf	??___xxtofl,f
  4922  0E02  0DA1               	rlf	??___xxtofl+1,f
  4923  0E03  0DA2               	rlf	??___xxtofl+2,f
  4924  0E04  0DA3               	rlf	??___xxtofl+3,f
  4925  0E05                     u3300:	
  4926  0E05  3EFF               	addlw	-1
  4927  0E06  1D03               	skipz
  4928  0E07  2E00               	goto	u3305
  4929  0E08  0820               	movf	??___xxtofl,w
  4930  0E09  04A6               	iorwf	___xxtofl@arg,f
  4931  0E0A  0821               	movf	??___xxtofl+1,w
  4932  0E0B  04A7               	iorwf	___xxtofl@arg+1,f
  4933  0E0C  0822               	movf	??___xxtofl+2,w
  4934  0E0D  04A8               	iorwf	___xxtofl@arg+2,f
  4935  0E0E  0823               	movf	??___xxtofl+3,w
  4936  0E0F  04A9               	iorwf	___xxtofl@arg+3,f
  4937  0E10                     l2824:	
  4938  0E10  0824               	movf	___xxtofl@sign,w
  4939  0E11  1903               	btfsc	3,2
  4940  0E12  2E14               	goto	u3311
  4941  0E13  2E15               	goto	u3310
  4942  0E14                     u3311:	
  4943  0E14  2E1A               	goto	l2830
  4944  0E15                     u3310:	
  4945  0E15                     l2826:	
  4946  0E15  1FF6               	btfss	___xxtofl@val+3,7
  4947  0E16  2E18               	goto	u3321
  4948  0E17  2E19               	goto	u3320
  4949  0E18                     u3321:	
  4950  0E18  2E1A               	goto	l2830
  4951  0E19                     u3320:	
  4952  0E19                     l2828:	
  4953  0E19  17A9               	bsf	___xxtofl@arg+3,7
  4954  0E1A                     l2830:	
  4955  0E1A  0829               	movf	___xxtofl@arg+3,w
  4956  0E1B  00F6               	movwf	?___xxtofl+3
  4957  0E1C  0828               	movf	___xxtofl@arg+2,w
  4958  0E1D  00F5               	movwf	?___xxtofl+2
  4959  0E1E  0827               	movf	___xxtofl@arg+1,w
  4960  0E1F  00F4               	movwf	?___xxtofl+1
  4961  0E20  0826               	movf	___xxtofl@arg,w
  4962  0E21  00F3               	movwf	?___xxtofl
  4963  0E22                     l805:	
  4964  0E22  0008               	return
  4965  0E23                     __end_of___xxtofl:	
  4966                           
  4967                           	psect	text23
  4968  0C35                     __ptext23:	
  4969 ;; *************** function ___fltol *****************
  4970 ;; Defined at:
  4971 ;;		line 43 in file "C:\Program Files (x86)\Microchip\xc8\v2.10\pic\sources\c90\common\fltol.c"
  4972 ;; Parameters:    Size  Location     Type
  4973 ;;  f1              4   56[BANK0 ] unsigned char 
  4974 ;; Auto vars:     Size  Location     Type
  4975 ;;  exp1            1    8[COMMON] unsigned char 
  4976 ;;  sign1           1    7[COMMON] unsigned char 
  4977 ;; Return value:  Size  Location     Type
  4978 ;;                  4   56[BANK0 ] long 
  4979 ;; Registers used:
  4980 ;;		wreg, status,2, status,0
  4981 ;; Tracked objects:
  4982 ;;		On entry : 0/0
  4983 ;;		On exit  : 0/0
  4984 ;;		Unchanged: 0/0
  4985 ;; Data sizes:     COMMON   BANK0   BANK1   BANK3   BANK2
  4986 ;;      Params:         0       4       0       0       0
  4987 ;;      Locals:         2       0       0       0       0
  4988 ;;      Temps:          0       5       0       0       0
  4989 ;;      Totals:         2       9       0       0       0
  4990 ;;Total ram usage:       11 bytes
  4991 ;; Hardware stack levels used:    1
  4992 ;; Hardware stack levels required when called:    1
  4993 ;; This function calls:
  4994 ;;		Nothing
  4995 ;; This function is called by:
  4996 ;;		_main
  4997 ;; This function uses a non-reentrant model
  4998 ;;
  4999                           
  5000                           
  5001                           ;psect for function ___fltol
  5002  0C35                     ___fltol:	
  5003  0C35                     l2754:	
  5004                           ;incstack = 0
  5005                           ; Regs used in ___fltol: [wreg+status,2+status,0]
  5006                           
  5007  0C35  1003               	clrc
  5008  0C36  1283               	bcf	3,5	;RP0=0, select bank0
  5009  0C37  1303               	bcf	3,6	;RP1=0, select bank0
  5010  0C38  0D5A               	rlf	___fltol@f1+2,w
  5011  0C39  0D5B               	rlf	___fltol@f1+3,w
  5012  0C3A  00DC               	movwf	??___fltol
  5013  0C3B  085C               	movf	??___fltol,w
  5014  0C3C  00F8               	movwf	___fltol@exp1
  5015  0C3D  0878               	movf	___fltol@exp1,w
  5016  0C3E  1D03               	btfss	3,2
  5017  0C3F  2C41               	goto	u3091
  5018  0C40  2C42               	goto	u3090
  5019  0C41                     u3091:	
  5020  0C41  2C4B               	goto	l2760
  5021  0C42                     u3090:	
  5022  0C42                     l2756:	
  5023  0C42  3000               	movlw	0
  5024  0C43  00DB               	movwf	?___fltol+3
  5025  0C44  3000               	movlw	0
  5026  0C45  00DA               	movwf	?___fltol+2
  5027  0C46  3000               	movlw	0
  5028  0C47  00D9               	movwf	?___fltol+1
  5029  0C48  3000               	movlw	0
  5030  0C49  00D8               	movwf	?___fltol
  5031  0C4A  2CB0               	goto	l562
  5032  0C4B                     l2760:	
  5033  0C4B  0858               	movf	___fltol@f1,w
  5034  0C4C  00DC               	movwf	??___fltol
  5035  0C4D  0859               	movf	___fltol@f1+1,w
  5036  0C4E  00DD               	movwf	??___fltol+1
  5037  0C4F  085A               	movf	___fltol@f1+2,w
  5038  0C50  00DE               	movwf	??___fltol+2
  5039  0C51  085B               	movf	___fltol@f1+3,w
  5040  0C52  00DF               	movwf	??___fltol+3
  5041  0C53  301F               	movlw	31
  5042  0C54                     u3105:	
  5043  0C54  1003               	clrc
  5044  0C55  0CDF               	rrf	??___fltol+3,f
  5045  0C56  0CDE               	rrf	??___fltol+2,f
  5046  0C57  0CDD               	rrf	??___fltol+1,f
  5047  0C58  0CDC               	rrf	??___fltol,f
  5048  0C59                     u3100:	
  5049  0C59  3EFF               	addlw	-1
  5050  0C5A  1D03               	skipz
  5051  0C5B  2C54               	goto	u3105
  5052  0C5C  085C               	movf	??___fltol,w
  5053  0C5D  00E0               	movwf	??___fltol+4
  5054  0C5E  0860               	movf	??___fltol+4,w
  5055  0C5F  00F7               	movwf	___fltol@sign1
  5056  0C60                     l2762:	
  5057  0C60  17DA               	bsf	___fltol@f1+2,7
  5058  0C61                     l2764:	
  5059  0C61  30FF               	movlw	255
  5060  0C62  05D8               	andwf	___fltol@f1,f
  5061  0C63  30FF               	movlw	255
  5062  0C64  05D9               	andwf	___fltol@f1+1,f
  5063  0C65  30FF               	movlw	255
  5064  0C66  05DA               	andwf	___fltol@f1+2,f
  5065  0C67  3000               	movlw	0
  5066  0C68  05DB               	andwf	___fltol@f1+3,f
  5067  0C69                     l2766:	
  5068  0C69  3096               	movlw	150
  5069  0C6A  02F8               	subwf	___fltol@exp1,f
  5070  0C6B                     l2768:	
  5071  0C6B  1FF8               	btfss	___fltol@exp1,7
  5072  0C6C  2C6E               	goto	u3111
  5073  0C6D  2C6F               	goto	u3110
  5074  0C6E                     u3111:	
  5075  0C6E  2C89               	goto	l2778
  5076  0C6F                     u3110:	
  5077  0C6F                     l2770:	
  5078  0C6F  0878               	movf	___fltol@exp1,w
  5079  0C70  3A80               	xorlw	128
  5080  0C71  3E97               	addlw	151
  5081  0C72  1803               	skipnc
  5082  0C73  2C75               	goto	u3121
  5083  0C74  2C76               	goto	u3120
  5084  0C75                     u3121:	
  5085  0C75  2C77               	goto	l2776
  5086  0C76                     u3120:	
  5087  0C76  2C42               	goto	l2756
  5088  0C77                     l2776:	
  5089  0C77  3001               	movlw	1
  5090  0C78                     u3135:	
  5091  0C78  1003               	clrc
  5092  0C79  0CDB               	rrf	___fltol@f1+3,f
  5093  0C7A  0CDA               	rrf	___fltol@f1+2,f
  5094  0C7B  0CD9               	rrf	___fltol@f1+1,f
  5095  0C7C  0CD8               	rrf	___fltol@f1,f
  5096  0C7D  3EFF               	addlw	-1
  5097  0C7E  1D03               	skipz
  5098  0C7F  2C78               	goto	u3135
  5099  0C80  3001               	movlw	1
  5100  0C81  00DC               	movwf	??___fltol
  5101  0C82  085C               	movf	??___fltol,w
  5102  0C83  07F8               	addwf	___fltol@exp1,f
  5103  0C84  1D03               	btfss	3,2
  5104  0C85  2C87               	goto	u3141
  5105  0C86  2C88               	goto	u3140
  5106  0C87                     u3141:	
  5107  0C87  2C77               	goto	l2776
  5108  0C88                     u3140:	
  5109  0C88  2CA0               	goto	l2786
  5110  0C89                     l2778:	
  5111  0C89  3020               	movlw	32
  5112  0C8A  0278               	subwf	___fltol@exp1,w
  5113  0C8B  1C03               	skipc
  5114  0C8C  2C8E               	goto	u3151
  5115  0C8D  2C8F               	goto	u3150
  5116  0C8E                     u3151:	
  5117  0C8E  2C9B               	goto	l569
  5118  0C8F                     u3150:	
  5119  0C8F  2C42               	goto	l2756
  5120  0C90                     l2784:	
  5121  0C90  3001               	movlw	1
  5122  0C91  00DC               	movwf	??___fltol
  5123  0C92                     u3165:	
  5124  0C92  1003               	clrc
  5125  0C93  0DD8               	rlf	___fltol@f1,f
  5126  0C94  0DD9               	rlf	___fltol@f1+1,f
  5127  0C95  0DDA               	rlf	___fltol@f1+2,f
  5128  0C96  0DDB               	rlf	___fltol@f1+3,f
  5129  0C97  0BDC               	decfsz	??___fltol,f
  5130  0C98  2C92               	goto	u3165
  5131  0C99  3001               	movlw	1
  5132  0C9A  02F8               	subwf	___fltol@exp1,f
  5133  0C9B                     l569:	
  5134  0C9B  0878               	movf	___fltol@exp1,w
  5135  0C9C  1D03               	btfss	3,2
  5136  0C9D  2C9F               	goto	u3171
  5137  0C9E  2CA0               	goto	u3170
  5138  0C9F                     u3171:	
  5139  0C9F  2C90               	goto	l2784
  5140  0CA0                     u3170:	
  5141  0CA0                     l2786:	
  5142  0CA0  0877               	movf	___fltol@sign1,w
  5143  0CA1  1903               	btfsc	3,2
  5144  0CA2  2CA4               	goto	u3181
  5145  0CA3  2CA5               	goto	u3180
  5146  0CA4                     u3181:	
  5147  0CA4  2CB0               	goto	l572
  5148  0CA5                     u3180:	
  5149  0CA5                     l2788:	
  5150  0CA5  09D8               	comf	___fltol@f1,f
  5151  0CA6  09D9               	comf	___fltol@f1+1,f
  5152  0CA7  09DA               	comf	___fltol@f1+2,f
  5153  0CA8  09DB               	comf	___fltol@f1+3,f
  5154  0CA9  0AD8               	incf	___fltol@f1,f
  5155  0CAA  1903               	skipnz
  5156  0CAB  0AD9               	incf	___fltol@f1+1,f
  5157  0CAC  1903               	skipnz
  5158  0CAD  0ADA               	incf	___fltol@f1+2,f
  5159  0CAE  1903               	skipnz
  5160  0CAF  0ADB               	incf	___fltol@f1+3,f
  5161  0CB0                     l572:	
  5162  0CB0                     l562:	
  5163  0CB0  0008               	return
  5164  0CB1                     __end_of___fltol:	
  5165                           
  5166                           	psect	text24
  5167  0E23                     __ptext24:	
  5168 ;; *************** function ___fldiv *****************
  5169 ;; Defined at:
  5170 ;;		line 8 in file "C:\Program Files (x86)\Microchip\xc8\v2.10\pic\sources\c90\common\sprcdiv.c"
  5171 ;; Parameters:    Size  Location     Type
  5172 ;;  a               4   10[BANK0 ] long 
  5173 ;;  b               4   14[BANK0 ] long 
  5174 ;; Auto vars:     Size  Location     Type
  5175 ;;  grs             4   30[BANK0 ] unsigned long 
  5176 ;;  rem             4   23[BANK0 ] unsigned long 
  5177 ;;  new_exp         2   28[BANK0 ] int 
  5178 ;;  aexp            1   35[BANK0 ] unsigned char 
  5179 ;;  bexp            1   34[BANK0 ] unsigned char 
  5180 ;;  sign            1   27[BANK0 ] unsigned char 
  5181 ;; Return value:  Size  Location     Type
  5182 ;;                  4   10[BANK0 ] unsigned char 
  5183 ;; Registers used:
  5184 ;;		wreg, status,2, status,0, btemp+1
  5185 ;; Tracked objects:
  5186 ;;		On entry : 0/0
  5187 ;;		On exit  : 0/0
  5188 ;;		Unchanged: 0/0
  5189 ;; Data sizes:     COMMON   BANK0   BANK1   BANK3   BANK2
  5190 ;;      Params:         0       8       0       0       0
  5191 ;;      Locals:         0      13       0       0       0
  5192 ;;      Temps:          0       5       0       0       0
  5193 ;;      Totals:         0      26       0       0       0
  5194 ;;Total ram usage:       26 bytes
  5195 ;; Hardware stack levels used:    1
  5196 ;; Hardware stack levels required when called:    1
  5197 ;; This function calls:
  5198 ;;		Nothing
  5199 ;; This function is called by:
  5200 ;;		_main
  5201 ;; This function uses a non-reentrant model
  5202 ;;
  5203                           
  5204                           
  5205                           ;psect for function ___fldiv
  5206  0E23                     ___fldiv:	
  5207  0E23                     l2244:	
  5208                           ;incstack = 0
  5209                           ; Regs used in ___fldiv: [wreg+status,2+status,0+btemp+1]
  5210                           
  5211  0E23  1283               	bcf	3,5	;RP0=0, select bank0
  5212  0E24  1303               	bcf	3,6	;RP1=0, select bank0
  5213  0E25  0831               	movf	___fldiv@b+3,w
  5214  0E26  3980               	andlw	128
  5215  0E27  00B2               	movwf	??___fldiv
  5216  0E28  0832               	movf	??___fldiv,w
  5217  0E29  00BB               	movwf	___fldiv@sign
  5218  0E2A                     l2246:	
  5219  0E2A  0831               	movf	___fldiv@b+3,w
  5220  0E2B  00B2               	movwf	??___fldiv
  5221  0E2C  0732               	addwf	??___fldiv,w
  5222  0E2D  00B3               	movwf	??___fldiv+1
  5223  0E2E  0833               	movf	??___fldiv+1,w
  5224  0E2F  00C2               	movwf	___fldiv@bexp
  5225  0E30                     l2248:	
  5226  0E30  1FB0               	btfss	___fldiv@b+2,7
  5227  0E31  2E33               	goto	u2381
  5228  0E32  2E34               	goto	u2380
  5229  0E33                     u2381:	
  5230  0E33  2E35               	goto	l2252
  5231  0E34                     u2380:	
  5232  0E34                     l2250:	
  5233  0E34  1442               	bsf	___fldiv@bexp,0
  5234  0E35                     l2252:	
  5235  0E35  0842               	movf	___fldiv@bexp,w
  5236  0E36  1903               	btfsc	3,2
  5237  0E37  2E39               	goto	u2391
  5238  0E38  2E3A               	goto	u2390
  5239  0E39                     u2391:	
  5240  0E39  2E4A               	goto	l2262
  5241  0E3A                     u2390:	
  5242  0E3A                     l2254:	
  5243  0E3A  0A42               	incf	___fldiv@bexp,w
  5244  0E3B  1D03               	btfss	3,2
  5245  0E3C  2E3E               	goto	u2401
  5246  0E3D  2E3F               	goto	u2400
  5247  0E3E                     u2401:	
  5248  0E3E  2E47               	goto	l2258
  5249  0E3F                     u2400:	
  5250  0E3F                     l2256:	
  5251  0E3F  3000               	movlw	0
  5252  0E40  00B1               	movwf	___fldiv@b+3
  5253  0E41  3000               	movlw	0
  5254  0E42  00B0               	movwf	___fldiv@b+2
  5255  0E43  3000               	movlw	0
  5256  0E44  00AF               	movwf	___fldiv@b+1
  5257  0E45  3000               	movlw	0
  5258  0E46  00AE               	movwf	___fldiv@b
  5259  0E47                     l2258:	
  5260  0E47  17B0               	bsf	___fldiv@b+2,7
  5261  0E48                     l2260:	
  5262  0E48  01B1               	clrf	___fldiv@b+3
  5263  0E49  2E52               	goto	l2264
  5264  0E4A                     l2262:	
  5265  0E4A  3000               	movlw	0
  5266  0E4B  00B1               	movwf	___fldiv@b+3
  5267  0E4C  3000               	movlw	0
  5268  0E4D  00B0               	movwf	___fldiv@b+2
  5269  0E4E  3000               	movlw	0
  5270  0E4F  00AF               	movwf	___fldiv@b+1
  5271  0E50  3000               	movlw	0
  5272  0E51  00AE               	movwf	___fldiv@b
  5273  0E52                     l2264:	
  5274  0E52  082D               	movf	___fldiv@a+3,w
  5275  0E53  3980               	andlw	128
  5276  0E54  00B2               	movwf	??___fldiv
  5277  0E55  0832               	movf	??___fldiv,w
  5278  0E56  06BB               	xorwf	___fldiv@sign,f
  5279  0E57                     l2266:	
  5280  0E57  082D               	movf	___fldiv@a+3,w
  5281  0E58  00B2               	movwf	??___fldiv
  5282  0E59  0732               	addwf	??___fldiv,w
  5283  0E5A  00B3               	movwf	??___fldiv+1
  5284  0E5B  0833               	movf	??___fldiv+1,w
  5285  0E5C  00C3               	movwf	___fldiv@aexp
  5286  0E5D                     l2268:	
  5287  0E5D  1FAC               	btfss	___fldiv@a+2,7
  5288  0E5E  2E60               	goto	u2411
  5289  0E5F  2E61               	goto	u2410
  5290  0E60                     u2411:	
  5291  0E60  2E62               	goto	l2272
  5292  0E61                     u2410:	
  5293  0E61                     l2270:	
  5294  0E61  1443               	bsf	___fldiv@aexp,0
  5295  0E62                     l2272:	
  5296  0E62  0843               	movf	___fldiv@aexp,w
  5297  0E63  1903               	btfsc	3,2
  5298  0E64  2E66               	goto	u2421
  5299  0E65  2E67               	goto	u2420
  5300  0E66                     u2421:	
  5301  0E66  2E77               	goto	l2282
  5302  0E67                     u2420:	
  5303  0E67                     l2274:	
  5304  0E67  0A43               	incf	___fldiv@aexp,w
  5305  0E68  1D03               	btfss	3,2
  5306  0E69  2E6B               	goto	u2431
  5307  0E6A  2E6C               	goto	u2430
  5308  0E6B                     u2431:	
  5309  0E6B  2E74               	goto	l2278
  5310  0E6C                     u2430:	
  5311  0E6C                     l2276:	
  5312  0E6C  3000               	movlw	0
  5313  0E6D  00AD               	movwf	___fldiv@a+3
  5314  0E6E  3000               	movlw	0
  5315  0E6F  00AC               	movwf	___fldiv@a+2
  5316  0E70  3000               	movlw	0
  5317  0E71  00AB               	movwf	___fldiv@a+1
  5318  0E72  3000               	movlw	0
  5319  0E73  00AA               	movwf	___fldiv@a
  5320  0E74                     l2278:	
  5321  0E74  17AC               	bsf	___fldiv@a+2,7
  5322  0E75                     l2280:	
  5323  0E75  01AD               	clrf	___fldiv@a+3
  5324  0E76  2E7F               	goto	l725
  5325  0E77                     l2282:	
  5326  0E77  3000               	movlw	0
  5327  0E78  00AD               	movwf	___fldiv@a+3
  5328  0E79  3000               	movlw	0
  5329  0E7A  00AC               	movwf	___fldiv@a+2
  5330  0E7B  3000               	movlw	0
  5331  0E7C  00AB               	movwf	___fldiv@a+1
  5332  0E7D  3000               	movlw	0
  5333  0E7E  00AA               	movwf	___fldiv@a
  5334  0E7F                     l725:	
  5335  0E7F  082D               	movf	___fldiv@a+3,w
  5336  0E80  042C               	iorwf	___fldiv@a+2,w
  5337  0E81  042B               	iorwf	___fldiv@a+1,w
  5338  0E82  042A               	iorwf	___fldiv@a,w
  5339  0E83  1D03               	skipz
  5340  0E84  2E86               	goto	u2441
  5341  0E85  2E87               	goto	u2440
  5342  0E86                     u2441:	
  5343  0E86  2EA0               	goto	l2292
  5344  0E87                     u2440:	
  5345  0E87                     l2284:	
  5346  0E87  3000               	movlw	0
  5347  0E88  00B1               	movwf	___fldiv@b+3
  5348  0E89  3000               	movlw	0
  5349  0E8A  00B0               	movwf	___fldiv@b+2
  5350  0E8B  3000               	movlw	0
  5351  0E8C  00AF               	movwf	___fldiv@b+1
  5352  0E8D  3000               	movlw	0
  5353  0E8E  00AE               	movwf	___fldiv@b
  5354  0E8F  3080               	movlw	128
  5355  0E90  04B0               	iorwf	___fldiv@b+2,f
  5356  0E91  307F               	movlw	127
  5357  0E92  04B1               	iorwf	___fldiv@b+3,f
  5358  0E93                     l2286:	
  5359  0E93  083B               	movf	___fldiv@sign,w
  5360  0E94  00B2               	movwf	??___fldiv
  5361  0E95  0832               	movf	??___fldiv,w
  5362  0E96  04B1               	iorwf	___fldiv@b+3,f
  5363  0E97                     l2288:	
  5364  0E97  0831               	movf	___fldiv@b+3,w
  5365  0E98  00AD               	movwf	?___fldiv+3
  5366  0E99  0830               	movf	___fldiv@b+2,w
  5367  0E9A  00AC               	movwf	?___fldiv+2
  5368  0E9B  082F               	movf	___fldiv@b+1,w
  5369  0E9C  00AB               	movwf	?___fldiv+1
  5370  0E9D  082E               	movf	___fldiv@b,w
  5371  0E9E  00AA               	movwf	?___fldiv
  5372  0E9F  2FFF               	goto	l727
  5373  0EA0                     l2292:	
  5374  0EA0  0842               	movf	___fldiv@bexp,w
  5375  0EA1  1D03               	btfss	3,2
  5376  0EA2  2EA4               	goto	u2451
  5377  0EA3  2EA5               	goto	u2450
  5378  0EA4                     u2451:	
  5379  0EA4  2EAE               	goto	l2298
  5380  0EA5                     u2450:	
  5381  0EA5                     l2294:	
  5382  0EA5  3000               	movlw	0
  5383  0EA6  00AD               	movwf	?___fldiv+3
  5384  0EA7  3000               	movlw	0
  5385  0EA8  00AC               	movwf	?___fldiv+2
  5386  0EA9  3000               	movlw	0
  5387  0EAA  00AB               	movwf	?___fldiv+1
  5388  0EAB  3000               	movlw	0
  5389  0EAC  00AA               	movwf	?___fldiv
  5390  0EAD  2FFF               	goto	l727
  5391  0EAE                     l2298:	
  5392  0EAE  0842               	movf	___fldiv@bexp,w
  5393  0EAF  00B2               	movwf	??___fldiv
  5394  0EB0  01B3               	clrf	??___fldiv+1
  5395  0EB1  0833               	movf	??___fldiv+1,w
  5396  0EB2  00B5               	movwf	??___fldiv+3
  5397  0EB3  0843               	movf	___fldiv@aexp,w
  5398  0EB4  0232               	subwf	??___fldiv,w
  5399  0EB5  00B4               	movwf	??___fldiv+2
  5400  0EB6  1C03               	skipc
  5401  0EB7  03B5               	decf	??___fldiv+3,f
  5402  0EB8  0834               	movf	??___fldiv+2,w
  5403  0EB9  3E7F               	addlw	127
  5404  0EBA  00BC               	movwf	___fldiv@new_exp
  5405  0EBB  0835               	movf	??___fldiv+3,w
  5406  0EBC  1803               	skipnc
  5407  0EBD  3E01               	addlw	1
  5408  0EBE  3E00               	addlw	0
  5409  0EBF  00BD               	movwf	___fldiv@new_exp+1
  5410  0EC0                     l2300:	
  5411  0EC0  0831               	movf	___fldiv@b+3,w
  5412  0EC1  00BA               	movwf	___fldiv@rem+3
  5413  0EC2  0830               	movf	___fldiv@b+2,w
  5414  0EC3  00B9               	movwf	___fldiv@rem+2
  5415  0EC4  082F               	movf	___fldiv@b+1,w
  5416  0EC5  00B8               	movwf	___fldiv@rem+1
  5417  0EC6  082E               	movf	___fldiv@b,w
  5418  0EC7  00B7               	movwf	___fldiv@rem
  5419  0EC8                     l2302:	
  5420  0EC8  3000               	movlw	0
  5421  0EC9  00B1               	movwf	___fldiv@b+3
  5422  0ECA  3000               	movlw	0
  5423  0ECB  00B0               	movwf	___fldiv@b+2
  5424  0ECC  3000               	movlw	0
  5425  0ECD  00AF               	movwf	___fldiv@b+1
  5426  0ECE  3000               	movlw	0
  5427  0ECF  00AE               	movwf	___fldiv@b
  5428  0ED0                     l2304:	
  5429  0ED0  3000               	movlw	0
  5430  0ED1  00C1               	movwf	___fldiv@grs+3
  5431  0ED2  3000               	movlw	0
  5432  0ED3  00C0               	movwf	___fldiv@grs+2
  5433  0ED4  3000               	movlw	0
  5434  0ED5  00BF               	movwf	___fldiv@grs+1
  5435  0ED6  3000               	movlw	0
  5436  0ED7  00BE               	movwf	___fldiv@grs
  5437  0ED8                     l2306:	
  5438  0ED8  01C3               	clrf	___fldiv@aexp
  5439  0ED9  2F24               	goto	l2326
  5440  0EDA                     l2308:	
  5441  0EDA  0843               	movf	___fldiv@aexp,w
  5442  0EDB  1903               	btfsc	3,2
  5443  0EDC  2EDE               	goto	u2461
  5444  0EDD  2EDF               	goto	u2460
  5445  0EDE                     u2461:	
  5446  0EDE  2EFF               	goto	l2318
  5447  0EDF                     u2460:	
  5448  0EDF                     l2310:	
  5449  0EDF  3001               	movlw	1
  5450  0EE0  00B2               	movwf	??___fldiv
  5451  0EE1                     u2475:	
  5452  0EE1  1003               	clrc
  5453  0EE2  0DB7               	rlf	___fldiv@rem,f
  5454  0EE3  0DB8               	rlf	___fldiv@rem+1,f
  5455  0EE4  0DB9               	rlf	___fldiv@rem+2,f
  5456  0EE5  0DBA               	rlf	___fldiv@rem+3,f
  5457  0EE6  0BB2               	decfsz	??___fldiv,f
  5458  0EE7  2EE1               	goto	u2475
  5459  0EE8  3001               	movlw	1
  5460  0EE9  00B2               	movwf	??___fldiv
  5461  0EEA                     u2485:	
  5462  0EEA  1003               	clrc
  5463  0EEB  0DAE               	rlf	___fldiv@b,f
  5464  0EEC  0DAF               	rlf	___fldiv@b+1,f
  5465  0EED  0DB0               	rlf	___fldiv@b+2,f
  5466  0EEE  0DB1               	rlf	___fldiv@b+3,f
  5467  0EEF  0BB2               	decfsz	??___fldiv,f
  5468  0EF0  2EEA               	goto	u2485
  5469  0EF1                     l2312:	
  5470  0EF1  1FC1               	btfss	___fldiv@grs+3,7
  5471  0EF2  2EF4               	goto	u2491
  5472  0EF3  2EF5               	goto	u2490
  5473  0EF4                     u2491:	
  5474  0EF4  2EF6               	goto	l2316
  5475  0EF5                     u2490:	
  5476  0EF5                     l2314:	
  5477  0EF5  142E               	bsf	___fldiv@b,0
  5478  0EF6                     l2316:	
  5479  0EF6  3001               	movlw	1
  5480  0EF7  00B2               	movwf	??___fldiv
  5481  0EF8                     u2505:	
  5482  0EF8  1003               	clrc
  5483  0EF9  0DBE               	rlf	___fldiv@grs,f
  5484  0EFA  0DBF               	rlf	___fldiv@grs+1,f
  5485  0EFB  0DC0               	rlf	___fldiv@grs+2,f
  5486  0EFC  0DC1               	rlf	___fldiv@grs+3,f
  5487  0EFD  0BB2               	decfsz	??___fldiv,f
  5488  0EFE  2EF8               	goto	u2505
  5489  0EFF                     l2318:	
  5490  0EFF  082D               	movf	___fldiv@a+3,w
  5491  0F00  023A               	subwf	___fldiv@rem+3,w
  5492  0F01  1D03               	skipz
  5493  0F02  2F0D               	goto	u2515
  5494  0F03  082C               	movf	___fldiv@a+2,w
  5495  0F04  0239               	subwf	___fldiv@rem+2,w
  5496  0F05  1D03               	skipz
  5497  0F06  2F0D               	goto	u2515
  5498  0F07  082B               	movf	___fldiv@a+1,w
  5499  0F08  0238               	subwf	___fldiv@rem+1,w
  5500  0F09  1D03               	skipz
  5501  0F0A  2F0D               	goto	u2515
  5502  0F0B  082A               	movf	___fldiv@a,w
  5503  0F0C  0237               	subwf	___fldiv@rem,w
  5504  0F0D                     u2515:	
  5505  0F0D  1C03               	skipc
  5506  0F0E  2F10               	goto	u2511
  5507  0F0F  2F11               	goto	u2510
  5508  0F10                     u2511:	
  5509  0F10  2F20               	goto	l2324
  5510  0F11                     u2510:	
  5511  0F11                     l2320:	
  5512  0F11  1741               	bsf	___fldiv@grs+3,6
  5513  0F12                     l2322:	
  5514  0F12  082A               	movf	___fldiv@a,w
  5515  0F13  02B7               	subwf	___fldiv@rem,f
  5516  0F14  082B               	movf	___fldiv@a+1,w
  5517  0F15  1C03               	skipc
  5518  0F16  0F2B               	incfsz	___fldiv@a+1,w
  5519  0F17  02B8               	subwf	___fldiv@rem+1,f
  5520  0F18  082C               	movf	___fldiv@a+2,w
  5521  0F19  1C03               	skipc
  5522  0F1A  0F2C               	incfsz	___fldiv@a+2,w
  5523  0F1B  02B9               	subwf	___fldiv@rem+2,f
  5524  0F1C  082D               	movf	___fldiv@a+3,w
  5525  0F1D  1C03               	skipc
  5526  0F1E  0F2D               	incfsz	___fldiv@a+3,w
  5527  0F1F  02BA               	subwf	___fldiv@rem+3,f
  5528  0F20                     l2324:	
  5529  0F20  3001               	movlw	1
  5530  0F21  00B2               	movwf	??___fldiv
  5531  0F22  0832               	movf	??___fldiv,w
  5532  0F23  07C3               	addwf	___fldiv@aexp,f
  5533  0F24                     l2326:	
  5534  0F24  301A               	movlw	26
  5535  0F25  0243               	subwf	___fldiv@aexp,w
  5536  0F26  1C03               	skipc
  5537  0F27  2F29               	goto	u2521
  5538  0F28  2F2A               	goto	u2520
  5539  0F29                     u2521:	
  5540  0F29  2EDA               	goto	l2308
  5541  0F2A                     u2520:	
  5542  0F2A                     l2328:	
  5543  0F2A  083A               	movf	___fldiv@rem+3,w
  5544  0F2B  0439               	iorwf	___fldiv@rem+2,w
  5545  0F2C  0438               	iorwf	___fldiv@rem+1,w
  5546  0F2D  0437               	iorwf	___fldiv@rem,w
  5547  0F2E  1903               	skipnz
  5548  0F2F  2F31               	goto	u2531
  5549  0F30  2F32               	goto	u2530
  5550  0F31                     u2531:	
  5551  0F31  2F51               	goto	l2342
  5552  0F32                     u2530:	
  5553  0F32                     l2330:	
  5554  0F32  143E               	bsf	___fldiv@grs,0
  5555  0F33  2F51               	goto	l2342
  5556  0F34                     l2332:	
  5557  0F34  3001               	movlw	1
  5558  0F35  00B2               	movwf	??___fldiv
  5559  0F36                     u2545:	
  5560  0F36  1003               	clrc
  5561  0F37  0DAE               	rlf	___fldiv@b,f
  5562  0F38  0DAF               	rlf	___fldiv@b+1,f
  5563  0F39  0DB0               	rlf	___fldiv@b+2,f
  5564  0F3A  0DB1               	rlf	___fldiv@b+3,f
  5565  0F3B  0BB2               	decfsz	??___fldiv,f
  5566  0F3C  2F36               	goto	u2545
  5567  0F3D                     l2334:	
  5568  0F3D  1FC1               	btfss	___fldiv@grs+3,7
  5569  0F3E  2F40               	goto	u2551
  5570  0F3F  2F41               	goto	u2550
  5571  0F40                     u2551:	
  5572  0F40  2F42               	goto	l2338
  5573  0F41                     u2550:	
  5574  0F41                     l2336:	
  5575  0F41  142E               	bsf	___fldiv@b,0
  5576  0F42                     l2338:	
  5577  0F42  3001               	movlw	1
  5578  0F43  00B2               	movwf	??___fldiv
  5579  0F44                     u2565:	
  5580  0F44  1003               	clrc
  5581  0F45  0DBE               	rlf	___fldiv@grs,f
  5582  0F46  0DBF               	rlf	___fldiv@grs+1,f
  5583  0F47  0DC0               	rlf	___fldiv@grs+2,f
  5584  0F48  0DC1               	rlf	___fldiv@grs+3,f
  5585  0F49  0BB2               	decfsz	??___fldiv,f
  5586  0F4A  2F44               	goto	u2565
  5587  0F4B                     l2340:	
  5588  0F4B  30FF               	movlw	255
  5589  0F4C  07BC               	addwf	___fldiv@new_exp,f
  5590  0F4D  1803               	skipnc
  5591  0F4E  0ABD               	incf	___fldiv@new_exp+1,f
  5592  0F4F  30FF               	movlw	255
  5593  0F50  07BD               	addwf	___fldiv@new_exp+1,f
  5594  0F51                     l2342:	
  5595  0F51  1FB0               	btfss	___fldiv@b+2,7
  5596  0F52  2F54               	goto	u2571
  5597  0F53  2F55               	goto	u2570
  5598  0F54                     u2571:	
  5599  0F54  2F34               	goto	l2332
  5600  0F55                     u2570:	
  5601  0F55                     l2344:	
  5602  0F55  01C3               	clrf	___fldiv@aexp
  5603  0F56                     l2346:	
  5604  0F56  1FC1               	btfss	___fldiv@grs+3,7
  5605  0F57  2F59               	goto	u2581
  5606  0F58  2F5A               	goto	u2580
  5607  0F59                     u2581:	
  5608  0F59  2F76               	goto	l2354
  5609  0F5A                     u2580:	
  5610  0F5A                     l2348:	
  5611  0F5A  30FF               	movlw	255
  5612  0F5B  053E               	andwf	___fldiv@grs,w
  5613  0F5C  00B2               	movwf	??___fldiv
  5614  0F5D  30FF               	movlw	255
  5615  0F5E  053F               	andwf	___fldiv@grs+1,w
  5616  0F5F  00B3               	movwf	??___fldiv+1
  5617  0F60  30FF               	movlw	255
  5618  0F61  0540               	andwf	___fldiv@grs+2,w
  5619  0F62  00B4               	movwf	??___fldiv+2
  5620  0F63  307F               	movlw	127
  5621  0F64  0541               	andwf	___fldiv@grs+3,w
  5622  0F65  00B5               	movwf	??___fldiv+3
  5623  0F66  0835               	movf	??___fldiv+3,w
  5624  0F67  0434               	iorwf	??___fldiv+2,w
  5625  0F68  0433               	iorwf	??___fldiv+1,w
  5626  0F69  0432               	iorwf	??___fldiv,w
  5627  0F6A  1903               	skipnz
  5628  0F6B  2F6D               	goto	u2591
  5629  0F6C  2F6E               	goto	u2590
  5630  0F6D                     u2591:	
  5631  0F6D  2F71               	goto	l741
  5632  0F6E                     u2590:	
  5633  0F6E                     l2350:	
  5634  0F6E  01C3               	clrf	___fldiv@aexp
  5635  0F6F  0AC3               	incf	___fldiv@aexp,f
  5636  0F70  2F76               	goto	l2354
  5637  0F71                     l741:	
  5638  0F71  1C2E               	btfss	___fldiv@b,0
  5639  0F72  2F74               	goto	u2601
  5640  0F73  2F75               	goto	u2600
  5641  0F74                     u2601:	
  5642  0F74  2F76               	goto	l2354
  5643  0F75                     u2600:	
  5644  0F75  2F6E               	goto	l2350
  5645  0F76                     l2354:	
  5646  0F76  0843               	movf	___fldiv@aexp,w
  5647  0F77  1903               	btfsc	3,2
  5648  0F78  2F7A               	goto	u2611
  5649  0F79  2F7B               	goto	u2610
  5650  0F7A                     u2611:	
  5651  0F7A  2FAC               	goto	l2364
  5652  0F7B                     u2610:	
  5653  0F7B                     l2356:	
  5654  0F7B  3001               	movlw	1
  5655  0F7C  07AE               	addwf	___fldiv@b,f
  5656  0F7D  3000               	movlw	0
  5657  0F7E  1803               	skipnc
  5658  0F7F  3001               	movlw	1
  5659  0F80  07AF               	addwf	___fldiv@b+1,f
  5660  0F81  3000               	movlw	0
  5661  0F82  1803               	skipnc
  5662  0F83  3001               	movlw	1
  5663  0F84  07B0               	addwf	___fldiv@b+2,f
  5664  0F85  3000               	movlw	0
  5665  0F86  1803               	skipnc
  5666  0F87  3001               	movlw	1
  5667  0F88  07B1               	addwf	___fldiv@b+3,f
  5668  0F89                     l2358:	
  5669  0F89  1C31               	btfss	___fldiv@b+3,0
  5670  0F8A  2F8C               	goto	u2621
  5671  0F8B  2F8D               	goto	u2620
  5672  0F8C                     u2621:	
  5673  0F8C  2FAC               	goto	l2364
  5674  0F8D                     u2620:	
  5675  0F8D                     l2360:	
  5676  0F8D  082E               	movf	___fldiv@b,w
  5677  0F8E  00B2               	movwf	??___fldiv
  5678  0F8F  082F               	movf	___fldiv@b+1,w
  5679  0F90  00B3               	movwf	??___fldiv+1
  5680  0F91  0830               	movf	___fldiv@b+2,w
  5681  0F92  00B4               	movwf	??___fldiv+2
  5682  0F93  0831               	movf	___fldiv@b+3,w
  5683  0F94  00B5               	movwf	??___fldiv+3
  5684  0F95  3001               	movlw	1
  5685  0F96  00B6               	movwf	??___fldiv+4
  5686  0F97                     u2635:	
  5687  0F97  0D35               	rlf	??___fldiv+3,w
  5688  0F98  0CB5               	rrf	??___fldiv+3,f
  5689  0F99  0CB4               	rrf	??___fldiv+2,f
  5690  0F9A  0CB3               	rrf	??___fldiv+1,f
  5691  0F9B  0CB2               	rrf	??___fldiv,f
  5692  0F9C                     u2630:	
  5693  0F9C  0BB6               	decfsz	??___fldiv+4,f
  5694  0F9D  2F97               	goto	u2635
  5695  0F9E  0835               	movf	??___fldiv+3,w
  5696  0F9F  00B1               	movwf	___fldiv@b+3
  5697  0FA0  0834               	movf	??___fldiv+2,w
  5698  0FA1  00B0               	movwf	___fldiv@b+2
  5699  0FA2  0833               	movf	??___fldiv+1,w
  5700  0FA3  00AF               	movwf	___fldiv@b+1
  5701  0FA4  0832               	movf	??___fldiv,w
  5702  0FA5  00AE               	movwf	___fldiv@b
  5703  0FA6                     l2362:	
  5704  0FA6  3001               	movlw	1
  5705  0FA7  07BC               	addwf	___fldiv@new_exp,f
  5706  0FA8  1803               	skipnc
  5707  0FA9  0ABD               	incf	___fldiv@new_exp+1,f
  5708  0FAA  3000               	movlw	0
  5709  0FAB  07BD               	addwf	___fldiv@new_exp+1,f
  5710  0FAC                     l2364:	
  5711  0FAC  083D               	movf	___fldiv@new_exp+1,w
  5712  0FAD  3A80               	xorlw	128
  5713  0FAE  00FF               	movwf	btemp+1
  5714  0FAF  3080               	movlw	128
  5715  0FB0  027F               	subwf	btemp+1,w
  5716  0FB1  1D03               	skipz
  5717  0FB2  2FB5               	goto	u2645
  5718  0FB3  30FF               	movlw	255
  5719  0FB4  023C               	subwf	___fldiv@new_exp,w
  5720  0FB5                     u2645:	
  5721  0FB5  1C03               	skipc
  5722  0FB6  2FB8               	goto	u2641
  5723  0FB7  2FB9               	goto	u2640
  5724  0FB8                     u2641:	
  5725  0FB8  2FC7               	goto	l2368
  5726  0FB9                     u2640:	
  5727  0FB9                     l2366:	
  5728  0FB9  30FF               	movlw	255
  5729  0FBA  1283               	bcf	3,5	;RP0=0, select bank0
  5730  0FBB  1303               	bcf	3,6	;RP1=0, select bank0
  5731  0FBC  00BC               	movwf	___fldiv@new_exp
  5732  0FBD  3000               	movlw	0
  5733  0FBE  00BD               	movwf	___fldiv@new_exp+1
  5734  0FBF  3000               	movlw	0
  5735  0FC0  00B1               	movwf	___fldiv@b+3
  5736  0FC1  3000               	movlw	0
  5737  0FC2  00B0               	movwf	___fldiv@b+2
  5738  0FC3  3000               	movlw	0
  5739  0FC4  00AF               	movwf	___fldiv@b+1
  5740  0FC5  3000               	movlw	0
  5741  0FC6  00AE               	movwf	___fldiv@b
  5742  0FC7                     l2368:	
  5743  0FC7  1283               	bcf	3,5	;RP0=0, select bank0
  5744  0FC8  1303               	bcf	3,6	;RP1=0, select bank0
  5745  0FC9  083D               	movf	___fldiv@new_exp+1,w
  5746  0FCA  3A80               	xorlw	128
  5747  0FCB  00FF               	movwf	btemp+1
  5748  0FCC  3080               	movlw	128
  5749  0FCD  027F               	subwf	btemp+1,w
  5750  0FCE  1D03               	skipz
  5751  0FCF  2FD2               	goto	u2655
  5752  0FD0  3001               	movlw	1
  5753  0FD1  023C               	subwf	___fldiv@new_exp,w
  5754  0FD2                     u2655:	
  5755  0FD2  1803               	skipnc
  5756  0FD3  2FD5               	goto	u2651
  5757  0FD4  2FD6               	goto	u2650
  5758  0FD5                     u2651:	
  5759  0FD5  2FE3               	goto	l747
  5760  0FD6                     u2650:	
  5761  0FD6                     l2370:	
  5762  0FD6  1283               	bcf	3,5	;RP0=0, select bank0
  5763  0FD7  1303               	bcf	3,6	;RP1=0, select bank0
  5764  0FD8  01BC               	clrf	___fldiv@new_exp
  5765  0FD9  01BD               	clrf	___fldiv@new_exp+1
  5766  0FDA                     l2372:	
  5767  0FDA  3000               	movlw	0
  5768  0FDB  00B1               	movwf	___fldiv@b+3
  5769  0FDC  3000               	movlw	0
  5770  0FDD  00B0               	movwf	___fldiv@b+2
  5771  0FDE  3000               	movlw	0
  5772  0FDF  00AF               	movwf	___fldiv@b+1
  5773  0FE0  3000               	movlw	0
  5774  0FE1  00AE               	movwf	___fldiv@b
  5775  0FE2                     l2374:	
  5776  0FE2  01BB               	clrf	___fldiv@sign
  5777  0FE3                     l747:	
  5778  0FE3  1283               	bcf	3,5	;RP0=0, select bank0
  5779  0FE4  1303               	bcf	3,6	;RP1=0, select bank0
  5780  0FE5  083C               	movf	___fldiv@new_exp,w
  5781  0FE6  00B2               	movwf	??___fldiv
  5782  0FE7  0832               	movf	??___fldiv,w
  5783  0FE8  00C2               	movwf	___fldiv@bexp
  5784  0FE9                     l2376:	
  5785  0FE9  1C42               	btfss	___fldiv@bexp,0
  5786  0FEA  2FEC               	goto	u2661
  5787  0FEB  2FED               	goto	u2660
  5788  0FEC                     u2661:	
  5789  0FEC  2FEF               	goto	l2380
  5790  0FED                     u2660:	
  5791  0FED                     l2378:	
  5792  0FED  17B0               	bsf	___fldiv@b+2,7
  5793  0FEE  2FF3               	goto	l749
  5794  0FEF                     l2380:	
  5795  0FEF  307F               	movlw	127
  5796  0FF0  00B2               	movwf	??___fldiv
  5797  0FF1  0832               	movf	??___fldiv,w
  5798  0FF2  05B0               	andwf	___fldiv@b+2,f
  5799  0FF3                     l749:	
  5800  0FF3  0842               	movf	___fldiv@bexp,w
  5801  0FF4  00B2               	movwf	??___fldiv
  5802  0FF5  1003               	clrc
  5803  0FF6  0C32               	rrf	??___fldiv,w
  5804  0FF7  00B3               	movwf	??___fldiv+1
  5805  0FF8  0833               	movf	??___fldiv+1,w
  5806  0FF9  00B1               	movwf	___fldiv@b+3
  5807  0FFA  083B               	movf	___fldiv@sign,w
  5808  0FFB  00B2               	movwf	??___fldiv
  5809  0FFC  0832               	movf	??___fldiv,w
  5810  0FFD  04B1               	iorwf	___fldiv@b+3,f
  5811  0FFE  2E97               	goto	l2288
  5812  0FFF                     l727:	
  5813  0FFF  0008               	return
  5814  1000                     __end_of___fldiv:	
  5815                           
  5816                           	psect	text25
  5817  047F                     __ptext25:	
  5818 ;; *************** function ___fladd *****************
  5819 ;; Defined at:
  5820 ;;		line 10 in file "C:\Program Files (x86)\Microchip\xc8\v2.10\pic\sources\c90\common\sprcadd.c"
  5821 ;; Parameters:    Size  Location     Type
  5822 ;;  b               4   36[BANK0 ] unsigned char 
  5823 ;;  a               4   40[BANK0 ] unsigned char 
  5824 ;; Auto vars:     Size  Location     Type
  5825 ;;  grs             1   55[BANK0 ] unsigned char 
  5826 ;;  bexp            1   54[BANK0 ] unsigned char 
  5827 ;;  aexp            1   53[BANK0 ] unsigned char 
  5828 ;;  signs           1   52[BANK0 ] unsigned char 
  5829 ;; Return value:  Size  Location     Type
  5830 ;;                  4   36[BANK0 ] unsigned char 
  5831 ;; Registers used:
  5832 ;;		wreg, status,2, status,0, btemp+1
  5833 ;; Tracked objects:
  5834 ;;		On entry : 0/0
  5835 ;;		On exit  : 0/0
  5836 ;;		Unchanged: 0/0
  5837 ;; Data sizes:     COMMON   BANK0   BANK1   BANK3   BANK2
  5838 ;;      Params:         0       8       0       0       0
  5839 ;;      Locals:         0       4       0       0       0
  5840 ;;      Temps:          0       8       0       0       0
  5841 ;;      Totals:         0      20       0       0       0
  5842 ;;Total ram usage:       20 bytes
  5843 ;; Hardware stack levels used:    1
  5844 ;; Hardware stack levels required when called:    1
  5845 ;; This function calls:
  5846 ;;		Nothing
  5847 ;; This function is called by:
  5848 ;;		_main
  5849 ;; This function uses a non-reentrant model
  5850 ;;
  5851                           
  5852                           
  5853                           ;psect for function ___fladd
  5854  047F                     ___fladd:	
  5855  047F                     l2050:	
  5856                           ;incstack = 0
  5857                           ; Regs used in ___fladd: [wreg+status,2+status,0+btemp+1]
  5858                           
  5859  047F  1283               	bcf	3,5	;RP0=0, select bank0
  5860  0480  1303               	bcf	3,6	;RP1=0, select bank0
  5861  0481  0847               	movf	___fladd@b+3,w
  5862  0482  3980               	andlw	128
  5863  0483  00CC               	movwf	??___fladd
  5864  0484  084C               	movf	??___fladd,w
  5865  0485  00D4               	movwf	___fladd@signs
  5866  0486                     l2052:	
  5867  0486  0847               	movf	___fladd@b+3,w
  5868  0487  00CC               	movwf	??___fladd
  5869  0488  074C               	addwf	??___fladd,w
  5870  0489  00CD               	movwf	??___fladd+1
  5871  048A  084D               	movf	??___fladd+1,w
  5872  048B  00D6               	movwf	___fladd@bexp
  5873  048C                     l2054:	
  5874  048C  1FC6               	btfss	___fladd@b+2,7
  5875  048D  2C8F               	goto	u1921
  5876  048E  2C90               	goto	u1920
  5877  048F                     u1921:	
  5878  048F  2C91               	goto	l2058
  5879  0490                     u1920:	
  5880  0490                     l2056:	
  5881  0490  1456               	bsf	___fladd@bexp,0
  5882  0491                     l2058:	
  5883  0491  0856               	movf	___fladd@bexp,w
  5884  0492  1903               	btfsc	3,2
  5885  0493  2C95               	goto	u1931
  5886  0494  2C96               	goto	u1930
  5887  0495                     u1931:	
  5888  0495  2CA6               	goto	l2068
  5889  0496                     u1930:	
  5890  0496                     l2060:	
  5891  0496  0A56               	incf	___fladd@bexp,w
  5892  0497  1D03               	btfss	3,2
  5893  0498  2C9A               	goto	u1941
  5894  0499  2C9B               	goto	u1940
  5895  049A                     u1941:	
  5896  049A  2CA3               	goto	l2064
  5897  049B                     u1940:	
  5898  049B                     l2062:	
  5899  049B  3000               	movlw	0
  5900  049C  00C7               	movwf	___fladd@b+3
  5901  049D  3000               	movlw	0
  5902  049E  00C6               	movwf	___fladd@b+2
  5903  049F  3000               	movlw	0
  5904  04A0  00C5               	movwf	___fladd@b+1
  5905  04A1  3000               	movlw	0
  5906  04A2  00C4               	movwf	___fladd@b
  5907  04A3                     l2064:	
  5908  04A3  17C6               	bsf	___fladd@b+2,7
  5909  04A4                     l2066:	
  5910  04A4  01C7               	clrf	___fladd@b+3
  5911  04A5  2CAE               	goto	l2070
  5912  04A6                     l2068:	
  5913  04A6  3000               	movlw	0
  5914  04A7  00C7               	movwf	___fladd@b+3
  5915  04A8  3000               	movlw	0
  5916  04A9  00C6               	movwf	___fladd@b+2
  5917  04AA  3000               	movlw	0
  5918  04AB  00C5               	movwf	___fladd@b+1
  5919  04AC  3000               	movlw	0
  5920  04AD  00C4               	movwf	___fladd@b
  5921  04AE                     l2070:	
  5922  04AE  084B               	movf	___fladd@a+3,w
  5923  04AF  3980               	andlw	128
  5924  04B0  00CC               	movwf	??___fladd
  5925  04B1  084C               	movf	??___fladd,w
  5926  04B2  00D5               	movwf	___fladd@aexp
  5927  04B3                     l2072:	
  5928  04B3  0855               	movf	___fladd@aexp,w
  5929  04B4  0654               	xorwf	___fladd@signs,w
  5930  04B5  1903               	skipnz
  5931  04B6  2CB8               	goto	u1951
  5932  04B7  2CB9               	goto	u1950
  5933  04B8                     u1951:	
  5934  04B8  2CBA               	goto	l2076
  5935  04B9                     u1950:	
  5936  04B9                     l2074:	
  5937  04B9  1754               	bsf	___fladd@signs,6
  5938  04BA                     l2076:	
  5939  04BA  084B               	movf	___fladd@a+3,w
  5940  04BB  00CC               	movwf	??___fladd
  5941  04BC  074C               	addwf	??___fladd,w
  5942  04BD  00CD               	movwf	??___fladd+1
  5943  04BE  084D               	movf	??___fladd+1,w
  5944  04BF  00D5               	movwf	___fladd@aexp
  5945  04C0                     l2078:	
  5946  04C0  1FCA               	btfss	___fladd@a+2,7
  5947  04C1  2CC3               	goto	u1961
  5948  04C2  2CC4               	goto	u1960
  5949  04C3                     u1961:	
  5950  04C3  2CC5               	goto	l2082
  5951  04C4                     u1960:	
  5952  04C4                     l2080:	
  5953  04C4  1455               	bsf	___fladd@aexp,0
  5954  04C5                     l2082:	
  5955  04C5  0855               	movf	___fladd@aexp,w
  5956  04C6  1903               	btfsc	3,2
  5957  04C7  2CC9               	goto	u1971
  5958  04C8  2CCA               	goto	u1970
  5959  04C9                     u1971:	
  5960  04C9  2CDA               	goto	l2092
  5961  04CA                     u1970:	
  5962  04CA                     l2084:	
  5963  04CA  0A55               	incf	___fladd@aexp,w
  5964  04CB  1D03               	btfss	3,2
  5965  04CC  2CCE               	goto	u1981
  5966  04CD  2CCF               	goto	u1980
  5967  04CE                     u1981:	
  5968  04CE  2CD7               	goto	l2088
  5969  04CF                     u1980:	
  5970  04CF                     l2086:	
  5971  04CF  3000               	movlw	0
  5972  04D0  00CB               	movwf	___fladd@a+3
  5973  04D1  3000               	movlw	0
  5974  04D2  00CA               	movwf	___fladd@a+2
  5975  04D3  3000               	movlw	0
  5976  04D4  00C9               	movwf	___fladd@a+1
  5977  04D5  3000               	movlw	0
  5978  04D6  00C8               	movwf	___fladd@a
  5979  04D7                     l2088:	
  5980  04D7  17CA               	bsf	___fladd@a+2,7
  5981  04D8                     l2090:	
  5982  04D8  01CB               	clrf	___fladd@a+3
  5983  04D9  2CE2               	goto	l669
  5984  04DA                     l2092:	
  5985  04DA  3000               	movlw	0
  5986  04DB  00CB               	movwf	___fladd@a+3
  5987  04DC  3000               	movlw	0
  5988  04DD  00CA               	movwf	___fladd@a+2
  5989  04DE  3000               	movlw	0
  5990  04DF  00C9               	movwf	___fladd@a+1
  5991  04E0  3000               	movlw	0
  5992  04E1  00C8               	movwf	___fladd@a
  5993  04E2                     l669:	
  5994  04E2  0856               	movf	___fladd@bexp,w
  5995  04E3  0255               	subwf	___fladd@aexp,w
  5996  04E4  1803               	skipnc
  5997  04E5  2CE7               	goto	u1991
  5998  04E6  2CE8               	goto	u1990
  5999  04E7                     u1991:	
  6000  04E7  2D2C               	goto	l2128
  6001  04E8                     u1990:	
  6002  04E8                     l2094:	
  6003  04E8  1F54               	btfss	___fladd@signs,6
  6004  04E9  2CEB               	goto	u2001
  6005  04EA  2CEC               	goto	u2000
  6006  04EB                     u2001:	
  6007  04EB  2CF0               	goto	l2098
  6008  04EC                     u2000:	
  6009  04EC                     l2096:	
  6010  04EC  3080               	movlw	128
  6011  04ED  00CC               	movwf	??___fladd
  6012  04EE  084C               	movf	??___fladd,w
  6013  04EF  06D4               	xorwf	___fladd@signs,f
  6014  04F0                     l2098:	
  6015  04F0  0856               	movf	___fladd@bexp,w
  6016  04F1  00CC               	movwf	??___fladd
  6017  04F2  084C               	movf	??___fladd,w
  6018  04F3  00D7               	movwf	___fladd@grs
  6019  04F4                     l2100:	
  6020  04F4  0855               	movf	___fladd@aexp,w
  6021  04F5  00CC               	movwf	??___fladd
  6022  04F6  084C               	movf	??___fladd,w
  6023  04F7  00D6               	movwf	___fladd@bexp
  6024  04F8                     l2102:	
  6025  04F8  0857               	movf	___fladd@grs,w
  6026  04F9  00CC               	movwf	??___fladd
  6027  04FA  084C               	movf	??___fladd,w
  6028  04FB  00D5               	movwf	___fladd@aexp
  6029  04FC                     l2104:	
  6030  04FC  0844               	movf	___fladd@b,w
  6031  04FD  00CC               	movwf	??___fladd
  6032  04FE  084C               	movf	??___fladd,w
  6033  04FF  00D7               	movwf	___fladd@grs
  6034  0500                     l2106:	
  6035  0500  0848               	movf	___fladd@a,w
  6036  0501  00CC               	movwf	??___fladd
  6037  0502  084C               	movf	??___fladd,w
  6038  0503  00C4               	movwf	___fladd@b
  6039  0504                     l2108:	
  6040  0504  0857               	movf	___fladd@grs,w
  6041  0505  00CC               	movwf	??___fladd
  6042  0506  084C               	movf	??___fladd,w
  6043  0507  00C8               	movwf	___fladd@a
  6044  0508                     l2110:	
  6045  0508  0845               	movf	___fladd@b+1,w
  6046  0509  00CC               	movwf	??___fladd
  6047  050A  084C               	movf	??___fladd,w
  6048  050B  00D7               	movwf	___fladd@grs
  6049  050C                     l2112:	
  6050  050C  0849               	movf	___fladd@a+1,w
  6051  050D  00CC               	movwf	??___fladd
  6052  050E  084C               	movf	??___fladd,w
  6053  050F  00C5               	movwf	___fladd@b+1
  6054  0510                     l2114:	
  6055  0510  0857               	movf	___fladd@grs,w
  6056  0511  00CC               	movwf	??___fladd
  6057  0512  084C               	movf	??___fladd,w
  6058  0513  00C9               	movwf	___fladd@a+1
  6059  0514                     l2116:	
  6060  0514  0846               	movf	___fladd@b+2,w
  6061  0515  00CC               	movwf	??___fladd
  6062  0516  084C               	movf	??___fladd,w
  6063  0517  00D7               	movwf	___fladd@grs
  6064  0518                     l2118:	
  6065  0518  084A               	movf	___fladd@a+2,w
  6066  0519  00CC               	movwf	??___fladd
  6067  051A  084C               	movf	??___fladd,w
  6068  051B  00C6               	movwf	___fladd@b+2
  6069  051C                     l2120:	
  6070  051C  0857               	movf	___fladd@grs,w
  6071  051D  00CC               	movwf	??___fladd
  6072  051E  084C               	movf	??___fladd,w
  6073  051F  00CA               	movwf	___fladd@a+2
  6074  0520                     l2122:	
  6075  0520  0847               	movf	___fladd@b+3,w
  6076  0521  00CC               	movwf	??___fladd
  6077  0522  084C               	movf	??___fladd,w
  6078  0523  00D7               	movwf	___fladd@grs
  6079  0524                     l2124:	
  6080  0524  084B               	movf	___fladd@a+3,w
  6081  0525  00CC               	movwf	??___fladd
  6082  0526  084C               	movf	??___fladd,w
  6083  0527  00C7               	movwf	___fladd@b+3
  6084  0528                     l2126:	
  6085  0528  0857               	movf	___fladd@grs,w
  6086  0529  00CC               	movwf	??___fladd
  6087  052A  084C               	movf	??___fladd,w
  6088  052B  00CB               	movwf	___fladd@a+3
  6089  052C                     l2128:	
  6090  052C  01D7               	clrf	___fladd@grs
  6091  052D                     l2130:	
  6092  052D  0855               	movf	___fladd@aexp,w
  6093  052E  00CC               	movwf	??___fladd
  6094  052F  01CD               	clrf	??___fladd+1
  6095  0530  084D               	movf	??___fladd+1,w
  6096  0531  00CF               	movwf	??___fladd+3
  6097  0532  0856               	movf	___fladd@bexp,w
  6098  0533  024C               	subwf	??___fladd,w
  6099  0534  00CE               	movwf	??___fladd+2
  6100  0535  1C03               	skipc
  6101  0536  03CF               	decf	??___fladd+3,f
  6102  0537  084F               	movf	??___fladd+3,w
  6103  0538  3A80               	xorlw	128
  6104  0539  00FF               	movwf	btemp+1
  6105  053A  3080               	movlw	128
  6106  053B  027F               	subwf	btemp+1,w
  6107  053C  1D03               	skipz
  6108  053D  2D40               	goto	u2015
  6109  053E  301A               	movlw	26
  6110  053F  024E               	subwf	??___fladd+2,w
  6111  0540                     u2015:	
  6112  0540  1C03               	skipc
  6113  0541  2D43               	goto	u2011
  6114  0542  2D44               	goto	u2010
  6115  0543                     u2011:	
  6116  0543  2D81               	goto	l2146
  6117  0544                     u2010:	
  6118  0544                     l2132:	
  6119  0544  1283               	bcf	3,5	;RP0=0, select bank0
  6120  0545  1303               	bcf	3,6	;RP1=0, select bank0
  6121  0546  0847               	movf	___fladd@b+3,w
  6122  0547  0446               	iorwf	___fladd@b+2,w
  6123  0548  0445               	iorwf	___fladd@b+1,w
  6124  0549  0444               	iorwf	___fladd@b,w
  6125  054A  1D03               	skipz
  6126  054B  2D4D               	goto	u2021
  6127  054C  2D4F               	goto	u2020
  6128  054D                     u2021:	
  6129  054D  3001               	movlw	1
  6130  054E  2D50               	goto	u2030
  6131  054F                     u2020:	
  6132  054F  3000               	movlw	0
  6133  0550                     u2030:	
  6134  0550  00CC               	movwf	??___fladd
  6135  0551  084C               	movf	??___fladd,w
  6136  0552  00D7               	movwf	___fladd@grs
  6137  0553  3000               	movlw	0
  6138  0554  00C7               	movwf	___fladd@b+3
  6139  0555  3000               	movlw	0
  6140  0556  00C6               	movwf	___fladd@b+2
  6141  0557  3000               	movlw	0
  6142  0558  00C5               	movwf	___fladd@b+1
  6143  0559  3000               	movlw	0
  6144  055A  00C4               	movwf	___fladd@b
  6145  055B  0855               	movf	___fladd@aexp,w
  6146  055C  00CC               	movwf	??___fladd
  6147  055D  084C               	movf	??___fladd,w
  6148  055E  00D6               	movwf	___fladd@bexp
  6149  055F  2D89               	goto	l673
  6150  0560                     l675:	
  6151  0560  1C57               	btfss	___fladd@grs,0
  6152  0561  2D63               	goto	u2041
  6153  0562  2D64               	goto	u2040
  6154  0563                     u2041:	
  6155  0563  2D6D               	goto	l2136
  6156  0564                     u2040:	
  6157  0564                     l2134:	
  6158  0564  0857               	movf	___fladd@grs,w
  6159  0565  00CC               	movwf	??___fladd
  6160  0566  1003               	clrc
  6161  0567  0C4C               	rrf	??___fladd,w
  6162  0568  3801               	iorlw	1
  6163  0569  00CD               	movwf	??___fladd+1
  6164  056A  084D               	movf	??___fladd+1,w
  6165  056B  00D7               	movwf	___fladd@grs
  6166  056C  2D6F               	goto	l2138
  6167  056D                     l2136:	
  6168  056D  1003               	clrc
  6169  056E  0CD7               	rrf	___fladd@grs,f
  6170  056F                     l2138:	
  6171  056F  1C44               	btfss	___fladd@b,0
  6172  0570  2D72               	goto	u2051
  6173  0571  2D73               	goto	u2050
  6174  0572                     u2051:	
  6175  0572  2D74               	goto	l2142
  6176  0573                     u2050:	
  6177  0573                     l2140:	
  6178  0573  17D7               	bsf	___fladd@grs,7
  6179  0574                     l2142:	
  6180  0574  3001               	movlw	1
  6181  0575  00CC               	movwf	??___fladd
  6182  0576                     u2065:	
  6183  0576  0D47               	rlf	___fladd@b+3,w
  6184  0577  0CC7               	rrf	___fladd@b+3,f
  6185  0578  0CC6               	rrf	___fladd@b+2,f
  6186  0579  0CC5               	rrf	___fladd@b+1,f
  6187  057A  0CC4               	rrf	___fladd@b,f
  6188  057B  0BCC               	decfsz	??___fladd& (0+127),f
  6189  057C  2D76               	goto	u2065
  6190  057D                     l2144:	
  6191  057D  3001               	movlw	1
  6192  057E  00CC               	movwf	??___fladd
  6193  057F  084C               	movf	??___fladd,w
  6194  0580  07D6               	addwf	___fladd@bexp,f
  6195  0581                     l2146:	
  6196  0581  1283               	bcf	3,5	;RP0=0, select bank0
  6197  0582  1303               	bcf	3,6	;RP1=0, select bank0
  6198  0583  0855               	movf	___fladd@aexp,w
  6199  0584  0256               	subwf	___fladd@bexp,w
  6200  0585  1C03               	skipc
  6201  0586  2D88               	goto	u2071
  6202  0587  2D89               	goto	u2070
  6203  0588                     u2071:	
  6204  0588  2D60               	goto	l675
  6205  0589                     u2070:	
  6206  0589                     l673:	
  6207  0589  1B54               	btfsc	___fladd@signs,6
  6208  058A  2D8C               	goto	u2081
  6209  058B  2D8D               	goto	u2080
  6210  058C                     u2081:	
  6211  058C  2DD8               	goto	l2172
  6212  058D                     u2080:	
  6213  058D                     l2148:	
  6214  058D  0856               	movf	___fladd@bexp,w
  6215  058E  1D03               	btfss	3,2
  6216  058F  2D91               	goto	u2091
  6217  0590  2D92               	goto	u2090
  6218  0591                     u2091:	
  6219  0591  2D9B               	goto	l2154
  6220  0592                     u2090:	
  6221  0592                     l2150:	
  6222  0592  3000               	movlw	0
  6223  0593  00C7               	movwf	?___fladd+3
  6224  0594  3000               	movlw	0
  6225  0595  00C6               	movwf	?___fladd+2
  6226  0596  3000               	movlw	0
  6227  0597  00C5               	movwf	?___fladd+1
  6228  0598  3000               	movlw	0
  6229  0599  00C4               	movwf	?___fladd
  6230  059A  2F06               	goto	l682
  6231  059B                     l2154:	
  6232  059B  0848               	movf	___fladd@a,w
  6233  059C  07C4               	addwf	___fladd@b,f
  6234  059D  0849               	movf	___fladd@a+1,w
  6235  059E  1103               	clrz
  6236  059F  1803               	skipnc
  6237  05A0  3E01               	addlw	1
  6238  05A1  1903               	skipnz
  6239  05A2  2DA4               	goto	u2101
  6240  05A3  07C5               	addwf	___fladd@b+1,f
  6241  05A4                     u2101:	
  6242  05A4  084A               	movf	___fladd@a+2,w
  6243  05A5  1103               	clrz
  6244  05A6  1803               	skipnc
  6245  05A7  3E01               	addlw	1
  6246  05A8  1903               	skipnz
  6247  05A9  2DAB               	goto	u2102
  6248  05AA  07C6               	addwf	___fladd@b+2,f
  6249  05AB                     u2102:	
  6250  05AB  084B               	movf	___fladd@a+3,w
  6251  05AC  1103               	clrz
  6252  05AD  1803               	skipnc
  6253  05AE  3E01               	addlw	1
  6254  05AF  1903               	skipnz
  6255  05B0  2DB2               	goto	u2103
  6256  05B1  07C7               	addwf	___fladd@b+3,f
  6257  05B2                     u2103:	
  6258  05B2                     l2156:	
  6259  05B2  1C47               	btfss	___fladd@b+3,0
  6260  05B3  2DB5               	goto	u2111
  6261  05B4  2DB6               	goto	u2110
  6262  05B5                     u2111:	
  6263  05B5  2E8C               	goto	l2206
  6264  05B6                     u2110:	
  6265  05B6                     l2158:	
  6266  05B6  1C57               	btfss	___fladd@grs,0
  6267  05B7  2DB9               	goto	u2121
  6268  05B8  2DBA               	goto	u2120
  6269  05B9                     u2121:	
  6270  05B9  2DC3               	goto	l2162
  6271  05BA                     u2120:	
  6272  05BA                     l2160:	
  6273  05BA  0857               	movf	___fladd@grs,w
  6274  05BB  00CC               	movwf	??___fladd
  6275  05BC  1003               	clrc
  6276  05BD  0C4C               	rrf	??___fladd,w
  6277  05BE  3801               	iorlw	1
  6278  05BF  00CD               	movwf	??___fladd+1
  6279  05C0  084D               	movf	??___fladd+1,w
  6280  05C1  00D7               	movwf	___fladd@grs
  6281  05C2  2DC5               	goto	l2164
  6282  05C3                     l2162:	
  6283  05C3  1003               	clrc
  6284  05C4  0CD7               	rrf	___fladd@grs,f
  6285  05C5                     l2164:	
  6286  05C5  1C44               	btfss	___fladd@b,0
  6287  05C6  2DC8               	goto	u2131
  6288  05C7  2DC9               	goto	u2130
  6289  05C8                     u2131:	
  6290  05C8  2DCA               	goto	l2168
  6291  05C9                     u2130:	
  6292  05C9                     l2166:	
  6293  05C9  17D7               	bsf	___fladd@grs,7
  6294  05CA                     l2168:	
  6295  05CA  3001               	movlw	1
  6296  05CB  00CC               	movwf	??___fladd
  6297  05CC                     u2145:	
  6298  05CC  0D47               	rlf	___fladd@b+3,w
  6299  05CD  0CC7               	rrf	___fladd@b+3,f
  6300  05CE  0CC6               	rrf	___fladd@b+2,f
  6301  05CF  0CC5               	rrf	___fladd@b+1,f
  6302  05D0  0CC4               	rrf	___fladd@b,f
  6303  05D1  0BCC               	decfsz	??___fladd& (0+127),f
  6304  05D2  2DCC               	goto	u2145
  6305  05D3                     l2170:	
  6306  05D3  3001               	movlw	1
  6307  05D4  00CC               	movwf	??___fladd
  6308  05D5  084C               	movf	??___fladd,w
  6309  05D6  07D6               	addwf	___fladd@bexp,f
  6310  05D7  2E8C               	goto	l2206
  6311  05D8                     l2172:	
  6312  05D8  0847               	movf	___fladd@b+3,w
  6313  05D9  3A80               	xorlw	128
  6314  05DA  00FF               	movwf	btemp+1
  6315  05DB  084B               	movf	___fladd@a+3,w
  6316  05DC  3A80               	xorlw	128
  6317  05DD  027F               	subwf	btemp+1,w
  6318  05DE  1D03               	skipz
  6319  05DF  2DEA               	goto	u2153
  6320  05E0  084A               	movf	___fladd@a+2,w
  6321  05E1  0246               	subwf	___fladd@b+2,w
  6322  05E2  1D03               	skipz
  6323  05E3  2DEA               	goto	u2153
  6324  05E4  0849               	movf	___fladd@a+1,w
  6325  05E5  0245               	subwf	___fladd@b+1,w
  6326  05E6  1D03               	skipz
  6327  05E7  2DEA               	goto	u2153
  6328  05E8  0848               	movf	___fladd@a,w
  6329  05E9  0244               	subwf	___fladd@b,w
  6330  05EA                     u2153:	
  6331  05EA  1803               	skipnc
  6332  05EB  2DED               	goto	u2151
  6333  05EC  2DEE               	goto	u2150
  6334  05ED                     u2151:	
  6335  05ED  2E46               	goto	l2182
  6336  05EE                     u2150:	
  6337  05EE                     l2174:	
  6338  05EE  30FF               	movlw	255
  6339  05EF  00CC               	movwf	??___fladd
  6340  05F0  30FF               	movlw	255
  6341  05F1  00CD               	movwf	??___fladd+1
  6342  05F2  30FF               	movlw	255
  6343  05F3  00CE               	movwf	??___fladd+2
  6344  05F4  30FF               	movlw	255
  6345  05F5  00CF               	movwf	??___fladd+3
  6346  05F6  0848               	movf	___fladd@a,w
  6347  05F7  00D0               	movwf	??___fladd+4
  6348  05F8  0849               	movf	___fladd@a+1,w
  6349  05F9  00D1               	movwf	??___fladd+5
  6350  05FA  084A               	movf	___fladd@a+2,w
  6351  05FB  00D2               	movwf	??___fladd+6
  6352  05FC  084B               	movf	___fladd@a+3,w
  6353  05FD  00D3               	movwf	??___fladd+7
  6354  05FE  0844               	movf	___fladd@b,w
  6355  05FF  02D0               	subwf	??___fladd+4,f
  6356  0600  0845               	movf	___fladd@b+1,w
  6357  0601  1C03               	skipc
  6358  0602  0F45               	incfsz	___fladd@b+1,w
  6359  0603  2E05               	goto	u2161
  6360  0604  2E06               	goto	u2162
  6361  0605                     u2161:	
  6362  0605  02D1               	subwf	??___fladd+5,f
  6363  0606                     u2162:	
  6364  0606  0846               	movf	___fladd@b+2,w
  6365  0607  1C03               	skipc
  6366  0608  0F46               	incfsz	___fladd@b+2,w
  6367  0609  2E0B               	goto	u2163
  6368  060A  2E0C               	goto	u2164
  6369  060B                     u2163:	
  6370  060B  02D2               	subwf	??___fladd+6,f
  6371  060C                     u2164:	
  6372  060C  0847               	movf	___fladd@b+3,w
  6373  060D  1C03               	skipc
  6374  060E  0F47               	incfsz	___fladd@b+3,w
  6375  060F  2E11               	goto	u2165
  6376  0610  2E12               	goto	u2166
  6377  0611                     u2165:	
  6378  0611  02D3               	subwf	??___fladd+7,f
  6379  0612                     u2166:	
  6380  0612  0850               	movf	??___fladd+4,w
  6381  0613  07CC               	addwf	??___fladd,f
  6382  0614  0851               	movf	??___fladd+5,w
  6383  0615  1803               	skipnc
  6384  0616  0F51               	incfsz	??___fladd+5,w
  6385  0617  2E19               	goto	u2170
  6386  0618  2E1A               	goto	u2171
  6387  0619                     u2170:	
  6388  0619  07CD               	addwf	??___fladd+1,f
  6389  061A                     u2171:	
  6390  061A  0852               	movf	??___fladd+6,w
  6391  061B  1803               	skipnc
  6392  061C  0F52               	incfsz	??___fladd+6,w
  6393  061D  2E1F               	goto	u2172
  6394  061E  2E20               	goto	u2173
  6395  061F                     u2172:	
  6396  061F  07CE               	addwf	??___fladd+2,f
  6397  0620                     u2173:	
  6398  0620  0853               	movf	??___fladd+7,w
  6399  0621  1803               	skipnc
  6400  0622  0A53               	incf	??___fladd+7,w
  6401  0623  07CF               	addwf	??___fladd+3,f
  6402  0624  084F               	movf	??___fladd+3,w
  6403  0625  00C7               	movwf	___fladd@b+3
  6404  0626  084E               	movf	??___fladd+2,w
  6405  0627  00C6               	movwf	___fladd@b+2
  6406  0628  084D               	movf	??___fladd+1,w
  6407  0629  00C5               	movwf	___fladd@b+1
  6408  062A  084C               	movf	??___fladd,w
  6409  062B  00C4               	movwf	___fladd@b
  6410  062C                     l2176:	
  6411  062C  3080               	movlw	128
  6412  062D  00CC               	movwf	??___fladd
  6413  062E  084C               	movf	??___fladd,w
  6414  062F  06D4               	xorwf	___fladd@signs,f
  6415  0630  09D7               	comf	___fladd@grs,f
  6416  0631  0AD7               	incf	___fladd@grs,f
  6417  0632                     l2178:	
  6418  0632  0857               	movf	___fladd@grs,w
  6419  0633  1D03               	btfss	3,2
  6420  0634  2E36               	goto	u2181
  6421  0635  2E37               	goto	u2180
  6422  0636                     u2181:	
  6423  0636  2E54               	goto	l690
  6424  0637                     u2180:	
  6425  0637                     l2180:	
  6426  0637  3001               	movlw	1
  6427  0638  07C4               	addwf	___fladd@b,f
  6428  0639  3000               	movlw	0
  6429  063A  1803               	skipnc
  6430  063B  3001               	movlw	1
  6431  063C  07C5               	addwf	___fladd@b+1,f
  6432  063D  3000               	movlw	0
  6433  063E  1803               	skipnc
  6434  063F  3001               	movlw	1
  6435  0640  07C6               	addwf	___fladd@b+2,f
  6436  0641  3000               	movlw	0
  6437  0642  1803               	skipnc
  6438  0643  3001               	movlw	1
  6439  0644  07C7               	addwf	___fladd@b+3,f
  6440  0645  2E54               	goto	l690
  6441  0646                     l2182:	
  6442  0646  0848               	movf	___fladd@a,w
  6443  0647  02C4               	subwf	___fladd@b,f
  6444  0648  0849               	movf	___fladd@a+1,w
  6445  0649  1C03               	skipc
  6446  064A  0F49               	incfsz	___fladd@a+1,w
  6447  064B  02C5               	subwf	___fladd@b+1,f
  6448  064C  084A               	movf	___fladd@a+2,w
  6449  064D  1C03               	skipc
  6450  064E  0F4A               	incfsz	___fladd@a+2,w
  6451  064F  02C6               	subwf	___fladd@b+2,f
  6452  0650  084B               	movf	___fladd@a+3,w
  6453  0651  1C03               	skipc
  6454  0652  0F4B               	incfsz	___fladd@a+3,w
  6455  0653  02C7               	subwf	___fladd@b+3,f
  6456  0654                     l690:	
  6457  0654  0847               	movf	___fladd@b+3,w
  6458  0655  0446               	iorwf	___fladd@b+2,w
  6459  0656  0445               	iorwf	___fladd@b+1,w
  6460  0657  0444               	iorwf	___fladd@b,w
  6461  0658  1D03               	skipz
  6462  0659  2E5B               	goto	u2191
  6463  065A  2E5C               	goto	u2190
  6464  065B                     u2191:	
  6465  065B  2E88               	goto	l2204
  6466  065C                     u2190:	
  6467  065C                     l2184:	
  6468  065C  0857               	movf	___fladd@grs,w
  6469  065D  1D03               	btfss	3,2
  6470  065E  2E60               	goto	u2201
  6471  065F  2E61               	goto	u2200
  6472  0660                     u2201:	
  6473  0660  2E88               	goto	l2204
  6474  0661                     u2200:	
  6475  0661                     l2186:	
  6476  0661  3000               	movlw	0
  6477  0662  00C7               	movwf	?___fladd+3
  6478  0663  3000               	movlw	0
  6479  0664  00C6               	movwf	?___fladd+2
  6480  0665  3000               	movlw	0
  6481  0666  00C5               	movwf	?___fladd+1
  6482  0667  3000               	movlw	0
  6483  0668  00C4               	movwf	?___fladd
  6484  0669  2F06               	goto	l682
  6485  066A                     l2190:	
  6486  066A  3001               	movlw	1
  6487  066B  00CC               	movwf	??___fladd
  6488  066C                     u2215:	
  6489  066C  1003               	clrc
  6490  066D  0DC4               	rlf	___fladd@b,f
  6491  066E  0DC5               	rlf	___fladd@b+1,f
  6492  066F  0DC6               	rlf	___fladd@b+2,f
  6493  0670  0DC7               	rlf	___fladd@b+3,f
  6494  0671  0BCC               	decfsz	??___fladd,f
  6495  0672  2E6C               	goto	u2215
  6496  0673                     l2192:	
  6497  0673  1FD7               	btfss	___fladd@grs,7
  6498  0674  2E76               	goto	u2221
  6499  0675  2E77               	goto	u2220
  6500  0676                     u2221:	
  6501  0676  2E78               	goto	l694
  6502  0677                     u2220:	
  6503  0677                     l2194:	
  6504  0677  1444               	bsf	___fladd@b,0
  6505  0678                     l694:	
  6506  0678  1C57               	btfss	___fladd@grs,0
  6507  0679  2E7B               	goto	u2231
  6508  067A  2E7C               	goto	u2230
  6509  067B                     u2231:	
  6510  067B  2E7F               	goto	l2198
  6511  067C                     u2230:	
  6512  067C                     l2196:	
  6513  067C  1403               	setc
  6514  067D  0DD7               	rlf	___fladd@grs,f
  6515  067E  2E81               	goto	l2200
  6516  067F                     l2198:	
  6517  067F  1003               	clrc
  6518  0680  0DD7               	rlf	___fladd@grs,f
  6519  0681                     l2200:	
  6520  0681  0856               	movf	___fladd@bexp,w
  6521  0682  1903               	btfsc	3,2
  6522  0683  2E85               	goto	u2241
  6523  0684  2E86               	goto	u2240
  6524  0685                     u2241:	
  6525  0685  2E88               	goto	l2204
  6526  0686                     u2240:	
  6527  0686                     l2202:	
  6528  0686  3001               	movlw	1
  6529  0687  02D6               	subwf	___fladd@bexp,f
  6530  0688                     l2204:	
  6531  0688  1FC6               	btfss	___fladd@b+2,7
  6532  0689  2E8B               	goto	u2251
  6533  068A  2E8C               	goto	u2250
  6534  068B                     u2251:	
  6535  068B  2E6A               	goto	l2190
  6536  068C                     u2250:	
  6537  068C                     l2206:	
  6538  068C  01D5               	clrf	___fladd@aexp
  6539  068D                     l2208:	
  6540  068D  1FD7               	btfss	___fladd@grs,7
  6541  068E  2E90               	goto	u2261
  6542  068F  2E91               	goto	u2260
  6543  0690                     u2261:	
  6544  0690  2E9F               	goto	l2216
  6545  0691                     u2260:	
  6546  0691                     l2210:	
  6547  0691  0857               	movf	___fladd@grs,w
  6548  0692  397F               	andlw	127
  6549  0693  1903               	btfsc	3,2
  6550  0694  2E96               	goto	u2271
  6551  0695  2E97               	goto	u2270
  6552  0696                     u2271:	
  6553  0696  2E9A               	goto	l700
  6554  0697                     u2270:	
  6555  0697                     l2212:	
  6556  0697  01D5               	clrf	___fladd@aexp
  6557  0698  0AD5               	incf	___fladd@aexp,f
  6558  0699  2E9F               	goto	l2216
  6559  069A                     l700:	
  6560  069A  1C44               	btfss	___fladd@b,0
  6561  069B  2E9D               	goto	u2281
  6562  069C  2E9E               	goto	u2280
  6563  069D                     u2281:	
  6564  069D  2E9F               	goto	l2216
  6565  069E                     u2280:	
  6566  069E  2E97               	goto	l2212
  6567  069F                     l2216:	
  6568  069F  0855               	movf	___fladd@aexp,w
  6569  06A0  1903               	btfsc	3,2
  6570  06A1  2EA3               	goto	u2291
  6571  06A2  2EA4               	goto	u2290
  6572  06A3                     u2291:	
  6573  06A3  2ED8               	goto	l703
  6574  06A4                     u2290:	
  6575  06A4                     l2218:	
  6576  06A4  3001               	movlw	1
  6577  06A5  07C4               	addwf	___fladd@b,f
  6578  06A6  3000               	movlw	0
  6579  06A7  1803               	skipnc
  6580  06A8  3001               	movlw	1
  6581  06A9  07C5               	addwf	___fladd@b+1,f
  6582  06AA  3000               	movlw	0
  6583  06AB  1803               	skipnc
  6584  06AC  3001               	movlw	1
  6585  06AD  07C6               	addwf	___fladd@b+2,f
  6586  06AE  3000               	movlw	0
  6587  06AF  1803               	skipnc
  6588  06B0  3001               	movlw	1
  6589  06B1  07C7               	addwf	___fladd@b+3,f
  6590  06B2                     l2220:	
  6591  06B2  1C47               	btfss	___fladd@b+3,0
  6592  06B3  2EB5               	goto	u2301
  6593  06B4  2EB6               	goto	u2300
  6594  06B5                     u2301:	
  6595  06B5  2ED8               	goto	l703
  6596  06B6                     u2300:	
  6597  06B6                     l2222:	
  6598  06B6  0844               	movf	___fladd@b,w
  6599  06B7  00CC               	movwf	??___fladd
  6600  06B8  0845               	movf	___fladd@b+1,w
  6601  06B9  00CD               	movwf	??___fladd+1
  6602  06BA  0846               	movf	___fladd@b+2,w
  6603  06BB  00CE               	movwf	??___fladd+2
  6604  06BC  0847               	movf	___fladd@b+3,w
  6605  06BD  00CF               	movwf	??___fladd+3
  6606  06BE  3001               	movlw	1
  6607  06BF  00D0               	movwf	??___fladd+4
  6608  06C0                     u2315:	
  6609  06C0  0D4F               	rlf	??___fladd+3,w
  6610  06C1  0CCF               	rrf	??___fladd+3,f
  6611  06C2  0CCE               	rrf	??___fladd+2,f
  6612  06C3  0CCD               	rrf	??___fladd+1,f
  6613  06C4  0CCC               	rrf	??___fladd,f
  6614  06C5                     u2310:	
  6615  06C5  0BD0               	decfsz	??___fladd+4,f
  6616  06C6  2EC0               	goto	u2315
  6617  06C7  084F               	movf	??___fladd+3,w
  6618  06C8  00C7               	movwf	___fladd@b+3
  6619  06C9  084E               	movf	??___fladd+2,w
  6620  06CA  00C6               	movwf	___fladd@b+2
  6621  06CB  084D               	movf	??___fladd+1,w
  6622  06CC  00C5               	movwf	___fladd@b+1
  6623  06CD  084C               	movf	??___fladd,w
  6624  06CE  00C4               	movwf	___fladd@b
  6625  06CF  0A56               	incf	___fladd@bexp,w
  6626  06D0  1903               	btfsc	3,2
  6627  06D1  2ED3               	goto	u2321
  6628  06D2  2ED4               	goto	u2320
  6629  06D3                     u2321:	
  6630  06D3  2ED8               	goto	l703
  6631  06D4                     u2320:	
  6632  06D4                     l2224:	
  6633  06D4  3001               	movlw	1
  6634  06D5  00CC               	movwf	??___fladd
  6635  06D6  084C               	movf	??___fladd,w
  6636  06D7  07D6               	addwf	___fladd@bexp,f
  6637  06D8                     l703:	
  6638  06D8  0A56               	incf	___fladd@bexp,w
  6639  06D9  1903               	btfsc	3,2
  6640  06DA  2EDC               	goto	u2331
  6641  06DB  2EDD               	goto	u2330
  6642  06DC                     u2331:	
  6643  06DC  2EE2               	goto	l2228
  6644  06DD                     u2330:	
  6645  06DD                     l2226:	
  6646  06DD  0856               	movf	___fladd@bexp,w
  6647  06DE  1D03               	btfss	3,2
  6648  06DF  2EE1               	goto	u2341
  6649  06E0  2EE2               	goto	u2340
  6650  06E1                     u2341:	
  6651  06E1  2EF0               	goto	l2234
  6652  06E2                     u2340:	
  6653  06E2                     l2228:	
  6654  06E2  3000               	movlw	0
  6655  06E3  00C7               	movwf	___fladd@b+3
  6656  06E4  3000               	movlw	0
  6657  06E5  00C6               	movwf	___fladd@b+2
  6658  06E6  3000               	movlw	0
  6659  06E7  00C5               	movwf	___fladd@b+1
  6660  06E8  3000               	movlw	0
  6661  06E9  00C4               	movwf	___fladd@b
  6662  06EA                     l2230:	
  6663  06EA  0856               	movf	___fladd@bexp,w
  6664  06EB  1D03               	btfss	3,2
  6665  06EC  2EEE               	goto	u2351
  6666  06ED  2EEF               	goto	u2350
  6667  06EE                     u2351:	
  6668  06EE  2EF0               	goto	l2234
  6669  06EF                     u2350:	
  6670  06EF                     l2232:	
  6671  06EF  01D4               	clrf	___fladd@signs
  6672  06F0                     l2234:	
  6673  06F0  1C56               	btfss	___fladd@bexp,0
  6674  06F1  2EF3               	goto	u2361
  6675  06F2  2EF4               	goto	u2360
  6676  06F3                     u2361:	
  6677  06F3  2EF6               	goto	l2238
  6678  06F4                     u2360:	
  6679  06F4                     l2236:	
  6680  06F4  17C6               	bsf	___fladd@b+2,7
  6681  06F5  2EFA               	goto	l711
  6682  06F6                     l2238:	
  6683  06F6  307F               	movlw	127
  6684  06F7  00CC               	movwf	??___fladd
  6685  06F8  084C               	movf	??___fladd,w
  6686  06F9  05C6               	andwf	___fladd@b+2,f
  6687  06FA                     l711:	
  6688  06FA  0856               	movf	___fladd@bexp,w
  6689  06FB  00CC               	movwf	??___fladd
  6690  06FC  1003               	clrc
  6691  06FD  0C4C               	rrf	??___fladd,w
  6692  06FE  00CD               	movwf	??___fladd+1
  6693  06FF  084D               	movf	??___fladd+1,w
  6694  0700  00C7               	movwf	___fladd@b+3
  6695  0701                     l2240:	
  6696  0701  1FD4               	btfss	___fladd@signs,7
  6697  0702  2F04               	goto	u2371
  6698  0703  2F05               	goto	u2370
  6699  0704                     u2371:	
  6700  0704  2F06               	goto	l712
  6701  0705                     u2370:	
  6702  0705                     l2242:	
  6703  0705  17C7               	bsf	___fladd@b+3,7
  6704  0706                     l712:	
  6705  0706                     l682:	
  6706  0706  0008               	return
  6707  0707                     __end_of___fladd:	
  6708                           
  6709                           	psect	text26
  6710  09CE                     __ptext26:	
  6711 ;; *************** function _isr *****************
  6712 ;; Defined at:
  6713 ;;		line 51 in file "giroscopio.c"
  6714 ;; Parameters:    Size  Location     Type
  6715 ;;		None
  6716 ;; Auto vars:     Size  Location     Type
  6717 ;;		None
  6718 ;; Return value:  Size  Location     Type
  6719 ;;                  1    wreg      void 
  6720 ;; Registers used:
  6721 ;;		wreg
  6722 ;; Tracked objects:
  6723 ;;		On entry : 0/0
  6724 ;;		On exit  : 0/0
  6725 ;;		Unchanged: 0/0
  6726 ;; Data sizes:     COMMON   BANK0   BANK1   BANK3   BANK2
  6727 ;;      Params:         0       0       0       0       0
  6728 ;;      Locals:         0       0       0       0       0
  6729 ;;      Temps:          3       0       0       0       0
  6730 ;;      Totals:         3       0       0       0       0
  6731 ;;Total ram usage:        3 bytes
  6732 ;; Hardware stack levels used:    1
  6733 ;; This function calls:
  6734 ;;		Nothing
  6735 ;; This function is called by:
  6736 ;;		Interrupt level 1
  6737 ;; This function uses a non-reentrant model
  6738 ;;
  6739                           
  6740                           
  6741                           ;psect for function _isr
  6742  09CE                     _isr:	
  6743  09CE                     i1l1578:	
  6744                           
  6745                           ;giroscopio.c: 52:     if (PIR1bits.RCIF == 1){
  6746  09CE  1283               	bcf	3,5	;RP0=0, select bank0
  6747  09CF  1303               	bcf	3,6	;RP1=0, select bank0
  6748  09D0  1E8C               	btfss	12,5	;volatile
  6749  09D1  29D3               	goto	u139_21
  6750  09D2  29D4               	goto	u139_20
  6751  09D3                     u139_21:	
  6752  09D3  29D9               	goto	i1l94
  6753  09D4                     u139_20:	
  6754  09D4                     i1l1580:	
  6755                           
  6756                           ;giroscopio.c: 53:         receive = RCREG;
  6757  09D4  081A               	movf	26,w	;volatile
  6758  09D5  00F0               	movwf	??_isr
  6759  09D6  0870               	movf	??_isr,w
  6760  09D7  00FA               	movwf	_receive
  6761  09D8                     i1l1582:	
  6762                           
  6763                           ;giroscopio.c: 54:         PIR1bits.RCIF = 0;
  6764  09D8  128C               	bcf	12,5	;volatile
  6765  09D9                     i1l94:	
  6766  09D9  0872               	movf	??_isr+2,w
  6767  09DA  008A               	movwf	10
  6768  09DB  0E71               	swapf	(??_isr+1)^(0+4294967168),w
  6769  09DC  0083               	movwf	3
  6770  09DD  0EFE               	swapf	btemp,f
  6771  09DE  0E7E               	swapf	btemp,w
  6772  09DF  0009               	retfie
  6773  09E0                     __end_of_isr:	
  6774  007E                     btemp	set	126	;btemp
  6775  007E                     wtemp0	set	126
  6776                           
  6777                           	psect	intentry
  6778  0004                     __pintentry:	
  6779                           ;incstack = 0
  6780                           ; Regs used in _isr: [wreg]
  6781                           
  6782  0004                     interrupt_function:	
  6783  007E                     saved_w	set	btemp
  6784  0004  00FE               	movwf	btemp
  6785  0005  0E03               	swapf	3,w
  6786  0006  00F1               	movwf	??_isr+1
  6787  0007  080A               	movf	10,w
  6788  0008  00F2               	movwf	??_isr+2
  6789  0009  120A  158A  29CE   	ljmp	_isr


Data Sizes:
    Strings     88
    Constant    10
    Data        0
    BSS         54
    Persistent  0
    Stack       0

Auto Spaces:
    Space          Size  Autos    Used
    COMMON           14      9      11
    BANK0            80     65      79
    BANK1            80      3      41
    BANK3            96      0       0
    BANK2            96      0       0

Pointer List with Targets:

    sprintf@f	PTR const unsigned char  size(1) Largest target is 14
		 -> STR_7(CODE[11]), STR_6(CODE[13]), STR_5(CODE[13]), STR_4(CODE[14]), 
		 -> STR_3(CODE[13]), STR_2(CODE[12]), STR_1(CODE[12]), 

    sprintf@sp	PTR unsigned char  size(1) Largest target is 12
		 -> buffer(BANK1[12]), 

    sprintf@ap	PTR void [1] size(1) Largest target is 2
		 -> ?_sprintf(BANK0[2]), 

    uart_sendString@text	PTR unsigned char  size(1) Largest target is 12
		 -> buffer(BANK1[12]), 


Critical Paths under _main in COMMON

    _main->___fltol
    _uart_sendString->_uart_transmit
    _sprintf->___lwmod
    ___lwmod->___lwdiv
    _mpu6050_init->_i2c_addr_start
    _i2c_addr_start->_i2c_masterWrite
    _i2c_master_init->___lldiv
    ___fltol->___xxtofl
    ___fldiv->___xxtofl
    ___fladd->___xxtofl

Critical Paths under _isr in COMMON

    None.

Critical Paths under _main in BANK0

    _main->___fltol
    _sprintf->___lwmod
    ___lwmod->___lwdiv
    _i2c_master_init->___lldiv
    ___fltol->___fladd
    ___fldiv->___xxtofl
    ___fladd->___fldiv

Critical Paths under _isr in BANK0

    None.

Critical Paths under _main in BANK1

    None.

Critical Paths under _isr in BANK1

    None.

Critical Paths under _main in BANK3

    None.

Critical Paths under _isr in BANK3

    None.

Critical Paths under _main in BANK2

    None.

Critical Paths under _isr in BANK2

    None.

Call Graph Tables:

 ---------------------------------------------------------------------------------
 (Depth) Function   	        Calls       Base Space   Used Autos Params    Refs
 ---------------------------------------------------------------------------------
 (0) _main                                                 3     3      0   15941
                                              0 BANK1      3     3      0
                            ___fladd
                            ___fldiv
                            ___fltol
                           ___xxtofl
                           _baudRate
                          _globalInt
                     _i2c_addr_start
                     _i2c_masterRead
                     _i2c_masterStop
                    _i2c_masterWrite
                    _i2c_master_init
                       _mpu6050_init
                            _oscInit
                              _setup
                            _sprintf
                            _txrx_en
                          _uart_9bit
                          _uart_init
                    _uart_interrupts
                    _uart_sendString
 ---------------------------------------------------------------------------------
 (1) _uart_sendString                                      4     4      0     343
                                              4 COMMON     4     4      0
                      _uart_transmit
 ---------------------------------------------------------------------------------
 (2) _uart_transmit                                        1     1      0      22
                                              3 COMMON     1     1      0
 ---------------------------------------------------------------------------------
 (1) _uart_interrupts                                      2     1      1     120
                                              3 COMMON     2     1      1
 ---------------------------------------------------------------------------------
 (1) _uart_init                                            0     0      0       0
 ---------------------------------------------------------------------------------
 (1) _uart_9bit                                            2     1      1     120
                                              3 COMMON     2     1      1
 ---------------------------------------------------------------------------------
 (1) _txrx_en                                              2     1      1     120
                                              3 COMMON     2     1      1
 ---------------------------------------------------------------------------------
 (1) _sprintf                                             21    18      3    2411
                                              8 BANK0     13    10      3
                            ___lwdiv
                            ___lwmod
 ---------------------------------------------------------------------------------
 (2) ___lwmod                                              6     2      4     412
                                              8 COMMON     1     1      0
                                              3 BANK0      5     1      4
                            ___lwdiv (ARG)
 ---------------------------------------------------------------------------------
 (2) ___lwdiv                                              8     4      4     421
                                              3 COMMON     5     1      4
                                              0 BANK0      3     3      0
 ---------------------------------------------------------------------------------
 (1) _setup                                                0     0      0       0
 ---------------------------------------------------------------------------------
 (1) _oscInit                                              3     3      0      28
                                              3 COMMON     3     3      0
 ---------------------------------------------------------------------------------
 (1) _mpu6050_init                                         2     2      0    2194
                                              0 BANK0      2     2      0
                     _i2c_addr_start
                     _i2c_masterStop
                    _i2c_masterWrite
 ---------------------------------------------------------------------------------
 (2) _i2c_masterStop                                       0     0      0       0
                     _i2c_masterWait
 ---------------------------------------------------------------------------------
 (2) _i2c_addr_start                                       3     3      0    1108
                                              5 COMMON     3     3      0
                     _i2c_masterWait
                    _i2c_masterWrite
 ---------------------------------------------------------------------------------
 (2) _i2c_masterWrite                                      2     0      2    1086
                                              3 COMMON     2     0      2
                     _i2c_masterWait
 ---------------------------------------------------------------------------------
 (3) _i2c_masterWait                                       0     0      0       0
 ---------------------------------------------------------------------------------
 (1) _i2c_master_init                                      8     4      4     542
                                              8 BANK0      8     4      4
                            ___lldiv
 ---------------------------------------------------------------------------------
 (2) ___lldiv                                             14     6      8     421
                                              3 COMMON     6     6      0
                                              0 BANK0      8     0      8
 ---------------------------------------------------------------------------------
 (1) _i2c_masterRead                                       5     3      2    1131
                                              3 COMMON     5     3      2
 ---------------------------------------------------------------------------------
 (1) _globalInt                                            0     0      0       0
 ---------------------------------------------------------------------------------
 (1) _baudRate                                             3     1      2     218
                                              3 COMMON     3     1      2
 ---------------------------------------------------------------------------------
 (1) ___xxtofl                                            14    10      4    1106
                                              3 COMMON     4     0      4
                                              0 BANK0     10    10      0
 ---------------------------------------------------------------------------------
 (1) ___fltol                                             11     7      4     967
                                              7 COMMON     2     2      0
                                             56 BANK0      9     5      4
                            ___fladd (ARG)
                            ___fldiv (ARG)
                           ___xxtofl (ARG)
 ---------------------------------------------------------------------------------
 (1) ___fldiv                                             26    18      8    2185
                                             10 BANK0     26    18      8
                           ___xxtofl (ARG)
 ---------------------------------------------------------------------------------
 (1) ___fladd                                             20    12      8    2262
                                             36 BANK0     20    12      8
                            ___fldiv (ARG)
                           ___xxtofl (ARG)
 ---------------------------------------------------------------------------------
 Estimated maximum stack depth 3
 ---------------------------------------------------------------------------------
 (Depth) Function   	        Calls       Base Space   Used Autos Params    Refs
 ---------------------------------------------------------------------------------
 (5) _isr                                                  3     3      0       0
                                              0 COMMON     3     3      0
 ---------------------------------------------------------------------------------
 Estimated maximum stack depth 5
 ---------------------------------------------------------------------------------

 Call Graph Graphs:

 _main (ROOT)
   ___fladd
     ___fldiv (ARG)
       ___xxtofl (ARG)
     ___xxtofl (ARG)
   ___fldiv
     ___xxtofl (ARG)
   ___fltol
     ___fladd (ARG)
       ___fldiv (ARG)
         ___xxtofl (ARG)
       ___xxtofl (ARG)
     ___fldiv (ARG)
       ___xxtofl (ARG)
     ___xxtofl (ARG)
   ___xxtofl
   _baudRate
   _globalInt
   _i2c_addr_start
     _i2c_masterWait
     _i2c_masterWrite
       _i2c_masterWait
   _i2c_masterRead
   _i2c_masterStop
     _i2c_masterWait
   _i2c_masterWrite
     _i2c_masterWait
   _i2c_master_init
     ___lldiv
   _mpu6050_init
     _i2c_addr_start
       _i2c_masterWait
       _i2c_masterWrite
         _i2c_masterWait
     _i2c_masterStop
       _i2c_masterWait
     _i2c_masterWrite
       _i2c_masterWait
   _oscInit
   _setup
   _sprintf
     ___lwdiv
     ___lwmod
       ___lwdiv (ARG)
   _txrx_en
   _uart_9bit
   _uart_init
   _uart_interrupts
   _uart_sendString
     _uart_transmit

 _isr (ROOT)

 Address spaces:
Name               Size   Autos  Total    Cost      Usage
BITCOMMON            E      0       0       0        0.0%
EEDATA             100      0       0       0        0.0%
NULL                 0      0       0       0        0.0%
CODE                 0      0       0       0        0.0%
COMMON               E      9       B       1       78.6%
BITSFR0              0      0       0       1        0.0%
SFR0                 0      0       0       1        0.0%
BITSFR1              0      0       0       2        0.0%
SFR1                 0      0       0       2        0.0%
STACK                0      0       0       2        0.0%
ABS                  0      0      83       3        0.0%
BITBANK0            50      0       0       4        0.0%
BITSFR3              0      0       0       4        0.0%
SFR3                 0      0       0       4        0.0%
BANK0               50     41      4F       5       98.8%
BITSFR2              0      0       0       5        0.0%
SFR2                 0      0       0       5        0.0%
BITBANK1            50      0       0       6        0.0%
BANK1               50      3      29       7       51.3%
BITBANK3            60      0       0       8        0.0%
BANK3               60      0       0       9        0.0%
BITBANK2            60      0       0      10        0.0%
BANK2               60      0       0      11        0.0%
DATA                 0      0      83      12        0.0%


Microchip Technology PIC Macro Assembler V2.10 build 88905656 
Symbol Table                                                                                   Thu Mar 12 15:29:14 2020

           ?_mpu6050_init 0070                         _T 0061              ___fldiv@aexp 0043  
            ___fldiv@bexp 0042                         _t 00AC                         pc 0002  
            ___fldiv@sign 003B        i2c_addr_start@addr 0077               __CFG_CP$OFF 0000  
             _SSPSTATbits 0094                        _AX 00B8                        _AY 00B6  
                      _AZ 00B4                        _GX 00B2                        _GY 00B0  
                      _GZ 00AE                        _Ax 006D                        _Ay 006B  
                      _Az 0069                        _Gx 0067                        _Gy 0065  
                      _Gz 0063                        fsr 0004                       l201 0BCC  
                     l105 09AD                       l202 0BD6                       l203 0BE0  
                     l108 0980                       l140 07F1                       l204 0BEA  
                     l205 0BF4                       l206 0BFE                       l143 07FD  
                     l207 0C08                       l160 09ED                       l208 0C34  
                     l232 09CD                       l137 0AD5                       l161 09F1  
                     l241 0A43                       l155 0991                       l235 09BD  
                     l164 0A68                       l412 0BBF                       l244 0993  
                     l173 0A8B                       l149 0A2D                       l229 0A03  
                     l253 0A64                       l238 0A17                       l158 09E9  
                     l247 099D                       l176 0A8F                       l168 0A7C  
                     l193 0D66                       l179 0A9B                       l700 069A  
                     l372 07F0                       l711 06FA                       l703 06D8  
                     l199 0BC2                       l712 0706                       l562 0CB0  
                     l803 0D8B                       l572 0CB0                       l741 0F71  
                     l725 0E7F                       l805 0E22                       l727 0FFF  
                     l816 0DEC                       l648 0B57                       l673 0589  
                     l569 0C9B                       l817 0DF8                       l809 0DD0  
                     l690 0654                       l682 0706                       l658 0B11  
                     l675 0560                       l747 0FE3                       l669 04E2  
                     l749 0FF3                       l694 0678              __CFG_CPD$OFF 0000  
                     _SEN 0488                       _adc 0079                       _isr 09CE  
                     fsr0 0004                       indf 0000             baudRate@baudN 0074  
            __CFG_LVP$OFF 0000    __end_of_i2c_addr_start 0A2E              ___fltol@exp1 0078  
                    l2010 0A53                      l2100 04F4                      l2012 0A59  
                    l2110 0508                      l2102 04F8                      l2006 0A45  
                    l2200 0681                      l2120 051C                      l2112 050C  
                    l2104 04FC                      l2008 0A48                      l2210 0691  
                    l2202 0686                      l2130 052D                      l2122 0520  
                    l2114 0510                      l2106 0500                      l2050 047F  
                    l2220 06B2                      l2212 0697                      l2204 0688  
                    l2140 0573                      l2132 0544                      l2124 0524  
                    l2116 0514                      l2108 0504                      l2060 0496  
                    l2052 0486                      l2300 0EC0                      l2230 06EA  
                    l2222 06B6                      l2206 068C                      l2150 0592  
                    l2142 0574                      l2134 0564                      l2126 0528  
                    l2118 0518                      l2070 04AE                      l2062 049B  
                    l2054 048C                      l2310 0EDF                      l2302 0EC8  
                    l2240 0701                      l2232 06EF                      l2224 06D4  
                    l2216 069F                      l2208 068D                      l2160 05BA  
                    l2144 057D                      l2136 056D                      l2128 052C  
                    l2080 04C4                      l2072 04B3                      l2064 04A3  
                    l2056 0490                      l2320 0F11                      l2312 0EF1  
                    l2304 0ED0                      l2242 0705                      l2234 06F0  
                    l2226 06DD                      l2218 06A4                      l2170 05D3  
                    l2162 05C3                      l2154 059B                      l2138 056F  
                    l2146 0581                      l2090 04D8                      l2082 04C5  
                    l2074 04B9                      l2066 04A4                      l2058 0491  
                    l2330 0F32                      l2322 0F12                      l2314 0EF5  
                    l2306 0ED8                      l2250 0E34                      l2236 06F4  
                    l2228 06E2                      l2180 0637                      l2164 05C5  
                    l2156 05B2                      l2148 058D                      l2172 05D8  
                    l2084 04CA                      l2092 04DA                      l2076 04BA  
                    l2068 04A6                      l2340 0F4B                      l2332 0F34  
                    l2324 0F20                      l2316 0EF6                      l2308 0EDA  
                    l2260 0E48                      l2252 0E35                      l2244 0E23  
                    l2238 06F6                      l2190 066A                      l2174 05EE  
                    l2182 0646                      l2166 05C9                      l2158 05B6  
                    l2094 04E8                      l2086 04CF                      l2078 04C0  
                    l2350 0F6E                      l2334 0F3D                      l2342 0F51  
                    l2318 0EFF                      l2326 0F24                      l2270 0E61  
                    l2254 0E3A                      l2262 0E4A                      l2246 0E2A  
                    l2192 0673                      l2184 065C                      l2176 062C  
                    l2168 05CA                      l2096 04EC                      l2088 04D7  
                    l2360 0F8D                      l2344 0F55                      l2336 0F41  
                    l2328 0F2A                      l2280 0E75                      l2272 0E62  
                    l2264 0E52                      l2256 0E3F                      l2248 0E30  
                    l2600 0B46                      l2194 0677                      l2186 0661  
                    l2178 0632                      l2098 04F0                      l2370 0FD6  
                    l2362 0FA6                      l2354 0F76                      l2346 0F56  
                    l2338 0F42                      l2274 0E67                      l2282 0E77  
                    l2266 0E57                      l2258 0E47                      l2602 0B4D  
                    l2610 0ADE                      l2196 067C                      l2380 0FEF  
                    l2372 0FDA                      l2356 0F7B                      l2364 0FAC  
                    l2348 0F5A                      l2284 0E87                      l2292 0EA0  
                    l2276 0E6C                      l2268 0E5D                      l1740 09E5  
                    l2604 0B53                      l2620 0AFA                      l2612 0AE1  
                    l2700 0721                      l2198 067F                      l2374 0FE2  
                    l2366 0FB9                      l2358 0F89                      l2294 0EA5  
                    l2286 0E93                      l2278 0E74                      l2630 0A9C  
                    l1734 07F1                      l1742 09EE                      l1750 0989  
                    l1830 099E                      l2622 0B00                      l2614 0AE8  
                    l2710 074B                      l2376 0FE9                      l2368 0FC7  
                    l2288 0E97                      l2560 0B6A                      l2640 0AD4  
                    l2632 0AA0                      l1736 07F7                      l1752 098E  
                    l1840 0BC1                      l1832 09A5                      l2624 0B07  
                    l2616 0AEC                      l2608 0AD6                      l2712 074F  
                    l2704 0722                      l2378 0FED                      l2298 0EAE  
                    l2810 0DB9                      l2802 0D9C                      l1930 0A6C  
                    l2570 0B99                      l2562 0B6D                      l2634 0AA3  
                    l1738 09E0                      l1746 0A19                      l2650 0CD3  
                    l2642 0CB1                      l1834 09A9                      l2618 0AF0  
                    l2626 0B0D                      l2730 0786                      l2722 075A  
                    l2714 0753                      l2706 073F                      l1850 09F2  
                    l1754 0993                      l2820 0DF0                      l2812 0DC7  
                    l2804 0DA1                      l1940 0A94                      l1932 0A72  
                    l2572 0BA7                      l2564 0B7A                      l2636 0AD2  
                    l1748 0A1E                      l2660 0CF4                      l2652 0CD8  
                    l2644 0CBB                      l1844 0C12                      l1836 09AC  
                    l2740 07CD                      l2732 078D                      l2716 0758  
                    l2708 0747                      l1852 09BF                      l1860 0A2F  
                    l1756 0999                      l2900 03ED                      l2830 0E1A  
                    l2822 0DFA                      l2814 0DD7                      l2806 0DAE  
                    l1838 097E                      l1934 0A78                      l2574 0BA8  
                    l2566 0B7E                      l2558 0B58                      l2638 0AD3  
                    l2670 0D16                      l2662 0CFA                      l2654 0CDE  
                    l2646 0CC1                      l2590 0B26                      l2582 0B12  
                    l2742 07D1                      l2734 0791                      l2726 0776  
                    l1854 09AF                      l1862 0A36                      l2910 0467  
                    l2902 0407                      l2760 0C4B                      l2824 0E10  
                    l2816 0DE2                      l2808 0DB5                      l1856 0A05  
                    l1936 0A81                      l1928 0A65                      l2576 0BB1  
                    l2568 0B87                      l2680 0D3B                      l2672 0D1F  
                    l2664 0D03                      l2656 0CE7                      l2648 0CCA  
                    l2592 0B2A                      l2584 0B16                      l2736 0796  
                    l2728 0780                      l2744 07DA                      l1864 0A40  
                    l2912 046D                      l2904 0427                      l2840 0036  
                    l2770 0C6F                      l2762 0C60                      l2754 0C35  
                    l2826 0E15                      l2818 0DE6                      l1858 0A13  
                    l1938 0A87                      l2578 0BB7                      l2690 0D61  
                    l2682 0D44                      l2674 0D27                      l2666 0D0B  
                    l2658 0CEF                      l2594 0B2E                      l2586 0B1C  
                    l2738 07C6                      l2746 07EC                      l2906 042D  
                    l2850 005E                      l2842 003B                      l2834 0026  
                    l2764 0C61                      l2756 0C42                      l2828 0E19  
                    l2684 0D49                      l2676 0D2C                      l2668 0D10  
                    l2596 0B3F                      l2588 0B1F                      l2692 070A  
                    l2908 044D                      l2860 0086                      l2852 006D  
                    l2844 0042                      l2836 002B                      l2766 0C69  
                    l2790 0D6A                      l2686 0D4F                      l2678 0D32  
                    l2598 0B45                      l2694 070F                      l2870 0128  
                    l2862 008C                      l2854 0072                      l2846 004A  
                    l2838 0030                      l2784 0C90                      l2776 0C77  
                    l2768 0C6B                      l2792 0D6F                      l2688 0D58  
                    l2696 0715                      l2880 01E6                      l2872 014F  
                    l2864 00B3                      l2856 0078                      l2848 0057  
                    l2786 0CA0                      l2778 0C89                      l2794 0D73  
                    l2954 0734                      l2698 071C                      l2890 0335  
                    l2882 0229                      l2874 0176                      l2866 00DA  
                    l2858 0081                      l2788 0CA5                      l2796 0D83  
                    l2956 0C1A                      l2892 038F                      l2884 026C  
                    l2876 019E                      l2868 0101                      l2798 0D93  
                    l2894 03A7                      l2886 02AF                      l2878 01A3  
                    l2896 03C7                      l2888 02F2                      l2898 03CD  
                    ?_isr 0070                      STR_1 0845                      STR_2 0851  
                    STR_3 0838                      STR_4 0810                      STR_5 081E  
                    STR_6 082B                      STR_7 085D                      u2000 04EC  
                    u2001 04EB                      u2010 0544                      u2011 0543  
                    u2020 054F                      u2101 05A4                      u2021 054D  
                    u2110 05B6                      u2102 05AB                      u2030 0550  
                    u2111 05B5                      u2103 05B2                      u2015 0540  
                    u2200 0661                      u2120 05BA                      u2040 0564  
                    u3000 0B0D                      u2201 0660                      u2121 05B9  
                    u2041 0563                      u3001 0B0C                      u2130 05C9  
                    u2050 0573                      u3010 0AB3                      u2131 05C8  
                    u2051 0572                      u2300 06B6                      u2220 0677  
                    u3100 0C59                      u3020 0715                      u2301 06B5  
                    u2221 0676                      u3021 0714                      u2310 06C5  
                    u2230 067C                      u2150 05EE                      u2070 0589  
                    u3110 0C6F                      u1430 07F7                      u3030 074F  
                    u2231 067B                      u2215 066C                      u2151 05ED  
                    u2071 0588                      u3111 0C6E                      u3015 0AAE  
                    u1431 07F6                      u3031 074E                      u2320 06D4  
                    u2240 0686                      u2080 058D                      u2400 0E3F  
                    u3120 0C76                      u3200 0D73                      u1440 07FD  
                    u3040 0775                      u2321 06D3                      u2241 0685  
                    u2161 0605                      u2153 05EA                      u2145 05CC  
                    u2081 058C                      u2065 0576                      u2401 0E3E  
                    u3121 0C75                      u3105 0C54                      u3201 0D72  
                    u1441 07FC                      u3041 0774                      u2330 06DD  
                    u2250 068C                      u2170 0619                      u2162 0606  
                    u2090 0592                      u2410 0E61                      u3210 0D93  
                    u1450 09ED                      u3050 0780                      u2331 06DC  
                    u2315 06C0                      u2251 068B                      u2171 061A  
                    u2163 060B                      u2091 0591                      u2411 0E60  
                    u3211 0D92                      u1451 09EC                      u3051 077F  
                    u2340 06E2                      u2260 0691                      u2180 0637  
                    u2172 061F                      u2164 060C                      u2420 0E67  
                    u3140 0C88                      u3300 0E05                      u1700 0A80  
                    u3060 0786                      u1460 0999                      u2341 06E1  
                    u2261 0690                      u2181 0636                      u2173 0620  
                    u2165 0611                      u2421 0E66                      u3141 0C87  
                    u1701 0A7F                      u3061 0785                      u3045 0771  
                    u1461 0998                      u2350 06EF                      u2270 0697  
                    u2190 065C                      u2166 0612                      u2510 0F11  
                    u2430 0E6C                      u3150 0C8F                      u3310 0E15  
                    u3230 0DB4                      u1710 0A87                      u3070 07DA  
                    u2351 06EE                      u2271 0696                      u2191 065B  
                    u2511 0F10                      u2431 0E6B                      u3151 0C8E  
                    u3135 0C78                      u3311 0E14                      u3231 0DB3  
                    u1711 0A86                      u3071 07D9                      u2360 06F4  
                    u2280 069E                      u2600 0F75                      u2520 0F2A  
                    u2440 0E87                      u3320 0E19                      u1720 0A8F  
                    u3080 07EC                      u2361 06F3                      u2281 069D  
                    u2601 0F74                      u2521 0F29                      u2505 0EF8  
                    u2441 0E86                      u3321 0E18                      u3305 0E00  
                    u3225 0DA6                      u1721 0A8E                      u3081 07EB  
                    u2370 0705                      u2290 06A4                      u2610 0F7B  
                    u2530 0F32                      u2450 0EA5                      u3170 0CA0  
                    u3090 0C42                      u3250 0DD6                      u1730 0A94  
                    u1810 0A64                      u2371 0704                      u2291 06A3  
                    u2611 0F7A                      u2531 0F31                      u2515 0F0D  
                    u2451 0EA4                      u3171 0C9F                      u3091 0C41  
                    u3251 0DD5                      u1731 0A93                      u1811 0A63  
                    u2620 0F8D                      u2460 0EDF                      u2380 0E34  
                    u3180 0CA5                      u2621 0F8C                      u2461 0EDE  
                    u2381 0E33                      u3181 0CA4                      u3165 0C92  
                    u3245 0DC8                      u2630 0F9C                      u2550 0F41  
                    u2390 0E3A                      u3270 0DE6                      u3190 0D6F  
                    u2551 0F40                      u2391 0E39                      u3271 0DE5  
                    u3191 0D6E                      u1920 0490                      u2640 0FB9  
                    u3280 0DEC                      u1680 0A6C                      u1921 048F  
                    u2641 0FB8                      u2545 0F36                      u3281 0DEB  
                    u3265 0DDB                      u1681 0A6B                      u3337 0475  
                    u1930 0496                      u2650 0FD6                      u2570 0F55  
                    u2490 0EF5                      u3290 0DF0                      u1690 0A78  
                    u2810 0B6A                      u1931 0495                      u2651 0FD5  
                    u2635 0F97                      u2571 0F54                      u2491 0EF4  
                    u2475 0EE1                      u3291 0DEF                      u1691 0A77  
                    u2811 0B69                      u3347 0CB7                      u1940 049B  
                    u2660 0FED                      u2580 0F5A                      u2900 0B2E  
                    u1941 049A                      u2661 0FEC                      u2645 0FB5  
                    u2581 0F59                      u2565 0F44                      u2485 0EEA  
                    u2901 0B2D                      u1950 04B9                      u2590 0F6E  
                    u2830 0B7E                      u1951 04B8                      u2655 0FD2  
                    u2591 0F6D                      u2831 0B7D                      u1960 04C4  
                    u2920 0B3F                      u1961 04C3                      u2825 0B6F  
                    u2921 0B3E                      u1970 04CA                      u2850 0B99  
                    u1971 04C9                      u2851 0B98                      u2915 0B2F  
                    u1980 04CF                      u2940 0B53                      u1981 04CE  
                    u2845 0B80                      u2941 0B52                      u2925 0B3B  
                    u1990 04E8                      u2870 0BB7                      u2950 0ADE  
                    u1991 04E7                      u2871 0BB6                      u2855 0B95  
                    u2935 0B47                      u2951 0ADD                      u2880 0B1C  
                    u2865 0BA9                      u2881 0B1B                      u2970 0AF0  
                    u2971 0AEF                      u2980 0AFA                      u2981 0AF9  
                    u2965 0AE2                      u2895 0B20                      u2985 0AF6  
                    u2995 0B01                      i1l94 09D9           ??_uart_transmit 0073  
            __CFG_WRT$OFF 0000                      _main 0026                      btemp 007E  
                    start 000C             __CFG_IESO$OFF 0000           ___fldiv@new_exp 003C  
          ??_mpu6050_init 0020                     ??_isr 0070             ___fltol@sign1 0077  
         __end_of___fladd 0707                     ?_main 0070           __end_of___fldiv 1000  
           __CFG_WDTE$OFF 0000           __end_of___fltol 0CB1                     _ANSEL 0188  
         __end_of___lldiv 0BC0           __end_of___lwdiv 0B58           __end_of___lwmod 0B12  
                   _RCREG 001A                     _SPBRG 0099                     _PORTA 0005  
                   _TRISA 0085                     _TRISB 0086                     _TRISC 0087  
                   _TXREG 0019            __CFG_FCMEN$OFF 0000            _i2c_masterRead 0A65  
          _i2c_masterWait 07F1            _i2c_masterStop 0989           __end_of_dpowers 0810  
         ?_i2c_addr_start 0070                     _setup 099E           __end_of_oscInit 0C35  
          __CFG_BOREN$OFF 0000                     pclath 000A                     status 0003  
                   wtemp0 007E           __end_of_sprintf 07F1         ??_uart_interrupts 0074  
         __end_of_txrx_en 09BE            __CFG_MCLRE$OFF 0000           __initialization 000F  
       ??_uart_sendString 0074              __end_of_main 047F                    ??_main 00C6  
  __end_of_i2c_masterRead 0A9C    __end_of_i2c_masterWait 07FE    __end_of_i2c_masterStop 0992  
         baudRate@rateGen 0073           baudRate@rateSel 0075                    ?_setup 0070  
                  i1l1580 09D4                    i1l1582 09D8                    i1l1578 09CE  
                  u139_20 09D4                    u139_21 09D3          __end_of_baudRate 0A18  
                  _SSPADD 0093                    _SSPCON 0014                    _SSPBUF 0013  
        __end_of___xxtofl 0E23            __CFG_PWRTE$OFF 0000                 ??___fladd 004C  
         _i2c_masterWrite 09E0                 ??___fldiv 0032           _i2c_master_init 0A9C  
               ??___fltol 005C                 ??___lldiv 0073                 ??___lwdiv 0077  
               ??___lwmod 0078                    _buffer 00BA           ?_i2c_masterRead 0073  
         ?_i2c_masterWait 0070           ?_i2c_masterStop 0070                 ??_oscInit 0073  
                  saved_w 007E      __end_of_mpu6050_init 0D67                 ??_sprintf 002B  
               ??_txrx_en 0074              ___xxtofl@arg 0026              ___xxtofl@exp 0025  
            ___xxtofl@val 0073   __end_of__initialization 0022                ___fltol@f1 0058  
          __pcstackCOMMON 0070             __end_of_setup 09AE               oscInit@freq 0075  
      __size_of_globalInt 0003                   ??_setup 0073                __pbssBANK0 0061  
              __pbssBANK1 00A0   __end_of_i2c_masterWrite 09F2   __end_of_i2c_master_init 0AD6  
              __pmaintext 0026                __pintentry 0004        __size_of_uart_9bit 0010  
               ?_baudRate 0073          ??_i2c_addr_start 0075        __size_of_uart_init 0012  
               ?___xxtofl 0073           _uart_interrupts 0A2E                   _SSPCON2 0091  
                 _SSPSTAT 0094                __stringtab 0800           _uart_sendString 0A44  
   __end_of_uart_transmit 099E                   ___fladd 047F                   ___fldiv 0E23  
                 ___fltol 0C35                   ___lldiv 0B58                   ___lwdiv 0B12  
                 ___lwmod 0AD6         __end_of_globalInt 0981                   __ptext1 0A44  
                 __ptext2 0992                   __ptext3 0A2E                   __ptext4 09F2  
                 __ptext5 09BE                   __ptext6 09AE                   __ptext7 0707  
                 __ptext8 0AD6                   __ptext9 0B12                   _buffer2 00A0  
   __size_of_mpu6050_init 00B6                ??_baudRate 0075                   _dpowers 0806  
            __size_of_isr 0012                ??___xxtofl 0020                   _receive 007A  
                 _oscInit 0BC0                   _sprintf 0707                   clrloop0 0982  
    end_of_initialization 0022                   _txrx_en 09AE         __end_of_uart_9bit 09CE  
        ?_i2c_masterWrite 0073          ?_i2c_master_init 0028         __end_of_uart_init 0A04  
         ___lldiv@divisor 0020           ___lldiv@counter 0078                 _RCSTAbits 0018  
            _mpu6050_init 0CB1          ??_i2c_masterRead 0075       uart_sendString@text 0077  
        ??_i2c_masterWait 0073          ??_i2c_masterStop 0073   __end_of_uart_interrupts 0A44  
         i2c_masterRead@a 0073               ___fladd@grs 0057             ___xxtofl@sign 0024  
 __end_of_uart_sendString 0A65                 _TRISCbits 0087               ___fldiv@grs 003E  
             ___fldiv@rem 0037                 _TXSTAbits 0098               _BAUDCTLbits 0187  
     start_initialization 000F               __end_of_isr 09E0  __CFG_FOSC$INTRC_NOCLKOUT 0000  
        ?_uart_interrupts 0073                 ___fladd@a 0048                 ___fladd@b 0044  
   uart_transmit@transmit 0073                 ___fldiv@a 002A                 ___fldiv@b 002E  
             __pbssCOMMON 0079                 ___latbits 0002             __pcstackBANK0 0020  
           __pcstackBANK1 00C6          ?_uart_sendString 0070         __size_of_baudRate 0014  
       __size_of___xxtofl 00BC               sprintf@flag 002F               sprintf@prec 0030  
        ___lwdiv@dividend 0075                  ?___fladd 0044                  ?___fldiv 002A  
                ?___fltol 0058                  ?___lldiv 0020                  ?___lwdiv 0073  
                ?___lwmod 0023                 __pstrings 0800          uart_sendString@i 0075  
               _globalInt 097E                  ?_oscInit 0070          ___lwdiv@quotient 0021  
                ?_sprintf 0028            __size_of_setup 0010                  ?_txrx_en 0073  
       interrupt_function 0004                 clear_ram0 0981                  _PIE1bits 008C  
                _PIR1bits 000C                 _uart_9bit 09BE                 _uart_init 09F2  
             __stringbase 0805                ?_globalInt 0070    __size_of_uart_transmit 000C  
 __size_of_i2c_addr_start 0016                ?_uart_9bit 0073                ?_uart_init 0070  
        __size_of___fladd 0288          __size_of___fldiv 01DD  __size_of_i2c_masterWrite 0012  
        __size_of___fltol 007C  __size_of_i2c_master_init 003A          __size_of___lldiv 0068  
        __size_of___lwdiv 0046          __size_of___lwmod 003C        __end_of__stringtab 0806  
              _ANSELHbits 0189                  _baudRate 0A04                sprintf@val 0031  
                ___xxtofl 0D67           ___lwdiv@divisor 0073          __size_of_oscInit 0075  
         ___lwdiv@counter 0020                  __ptext10 099E                  __ptext11 0BC0  
                __ptext20 097E                  __ptext12 0CB1                  __ptext21 0A04  
                __ptext13 0989                  __ptext22 0D67                  __ptext14 0A18  
                __ptext23 0C35                  __ptext15 09E0                  __ptext24 0E23  
                __ptext16 07F1                  __ptext25 047F                  __ptext17 0A9C  
                __ptext26 09CE                  __ptext18 0B58                  __ptext19 0A65  
       __CFG_BOR4V$BOR40V 0000          __size_of_sprintf 00EA          __size_of_txrx_en 0010  
            uart_9bit@rx9 0074              uart_9bit@tx9 0073             __size_of_main 0459  
           _uart_transmit 0992        i2c_masterRead@temp 0077       i2c_masterWrite@data 0073  
             ??_globalInt 0073                _INTCONbits 000B   __size_of_i2c_masterRead 0037  
 __size_of_i2c_masterWait 000D   __size_of_i2c_masterStop 0009     uart_interrupts@rx_int 0074  
                intlevel1 0000                 sprintf@ap 002E     uart_interrupts@tx_int 0073  
               sprintf@sp 0033          ___lwmod@dividend 0025          ___lldiv@dividend 0024  
          ?_uart_transmit 0070                 stringcode 0800                _OSCCONbits 008F  
             ??_uart_9bit 0074               ??_uart_init 0073                  sprintf@c 0034  
                sprintf@f 0028          ___lldiv@quotient 0074           ___lwmod@divisor 0023  
               txrx_en@rx 0073                 txrx_en@tx 0074         ??_i2c_masterWrite 0075  
         ___lwmod@counter 0027         ??_i2c_master_init 002C                  stringdir 0800  
                stringtab 0800               _SSPCON2bits 0091  __size_of_uart_interrupts 0016  
           ___fladd@signs 0054            _i2c_addr_start 0A18              ___fladd@aexp 0055  
            ___fladd@bexp 0056  __size_of_uart_sendString 0021          i2c_master_init@c 0028  
